(dp0
S'file2.txt,page.no12'
p1
I30
sS'file2.txt,page.no13'
p2
I30
sS'file2.txt,page.no10'
p3
I30
sS'file2.txt,page.no11'
p4
I30
sS'file2.txt,page.no16'
p5
I30
sS'file2.txt,page.no17'
p6
I30
sS'file2.txt,page.no14'
p7
I30
sS'file2.txt,page.no15'
p8
I30
sS'file4.txt,page.no25'
p9
I30
sS'file4.txt,page.no24'
p10
I30
sS'file2.txt,page.no18'
p11
I30
sS'file2.txt,page.no19'
p12
I30
sS'file4.txt,page.no21'
p13
I30
sS'file4.txt,page.no20'
p14
I30
sS'file4.txt,page.no23'
p15
I30
sS'file4.txt,page.no22'
p16
I30
sS'file1.txt,page.no3'
p17
I30
sS'file4.txt,page.no29'
p18
I30
sS'file4.txt,page.no5'
p19
I30
sS'file4.txt,page.no28'
p20
I30
sS'file4.txt,page.no8'
p21
I30
sS'file4.txt,page.no9'
p22
I30
sS'file1.txt,page.no9'
p23
I8
sS'file1.txt,page.no8'
p24
I30
sS'file4.txt,page.no2'
p25
I30
sS'file4.txt,page.no3'
p26
I30
sS'file1.txt,page.no7'
p27
I30
sS'file1.txt,page.no6'
p28
I30
sS'file1.txt,page.no1'
p29
I30
sS'file4.txt,page.no7'
p30
I30
sS'file4.txt,page.no4'
p31
I30
sS'file1.txt,page.no2'
p32
I30
sS'file4.txt,page.no27'
p33
I30
sS'file4.txt,page.no6'
p34
I30
sS'file2.txt,page.no30'
p35
I30
sS'file2.txt,page.no31'
p36
I30
sS'file2.txt,page.no32'
p37
I30
sS'file2.txt,page.no33'
p38
I30
sS'file2.txt,page.no34'
p39
I30
sS'file2.txt,page.no35'
p40
I30
sS'file2.txt,page.no36'
p41
I30
sS'file2.txt,page.no37'
p42
I17
sS'file4.txt,page.no18'
p43
I30
sS'file4.txt,page.no19'
p44
I30
sS'file4.txt,page.no26'
p45
I30
sS'file4.txt,page.no10'
p46
I30
sS'file4.txt,page.no11'
p47
I30
sS'file4.txt,page.no12'
p48
I30
sS'file4.txt,page.no13'
p49
I30
sS'file4.txt,page.no14'
p50
I30
sS'file4.txt,page.no15'
p51
I30
sS'file4.txt,page.no16'
p52
I30
sS'file4.txt,page.no17'
p53
I30
sS'file2.txt,page.no8'
p54
I30
sS'file2.txt,page.no9'
p55
I30
sS'file4.txt,page.no30'
p56
I30
sS'file4.txt,page.no31'
p57
I14
sS'file2.txt,page.no1'
p58
I30
sS'file2.txt,page.no2'
p59
I30
sS'file2.txt,page.no3'
p60
I30
sS'file2.txt,page.no4'
p61
I30
sS'file2.txt,page.no5'
p62
I30
sS'file2.txt,page.no6'
p63
I30
sS'file2.txt,page.no7'
p64
I30
sS'file1.txt,page.no5'
p65
I30
sS'file3.txt,page.no8'
p66
I19
sS'file3.txt,page.no7'
p67
I30
sS'file3.txt,page.no6'
p68
I30
sS'file3.txt,page.no5'
p69
I30
sS'file3.txt,page.no4'
p70
I30
sS'file3.txt,page.no3'
p71
I30
sS'file3.txt,page.no2'
p72
I30
sS'file3.txt,page.no1'
p73
I30
sS'file4.txt,page.no1'
p74
I30
sS'file2.txt,page.no29'
p75
I30
sS'file2.txt,page.no28'
p76
I30
sS'file1.txt,page.no4'
p77
I30
sS'file2.txt,page.no23'
p78
I30
sS'file2.txt,page.no22'
p79
I30
sS'file2.txt,page.no21'
p80
I30
sS'file2.txt,page.no20'
p81
I30
sS'file2.txt,page.no27'
p82
I30
sS'file2.txt,page.no26'
p83
I30
sS'file2.txt,page.no25'
p84
I30
sS'file2.txt,page.no24'
p85
I30
s.