(dp0
S'file2.txt,line.no:152'
p1
(lp2
S'INPUT:'
p3
aS'Server'
p4
aS'Address'
p5
aS'and'
p6
aS'Token'
p7
asS'file2.txt,line.no:153'
p8
(lp9
S'OUTPUT:'
p10
aS'Reference'
p11
aS'to'
p12
aS'Socket'
p13
aS'connection'
p14
aS'object'
p15
asS'file2.txt,line.no:150'
p16
(lp17
S'Methods'
p18
asS'file2.txt,line.no:151'
p19
(lp20
S'1.'
p21
aS'private'
p22
aS'Socket'
p23
aS'startConnection(string,'
p24
aS'string);'
p25
asS'file2.txt,line.no:156'
p26
(lp27
S'DESC:'
p28
aS'Verifies'
p29
aS'the'
p30
aS'tokens'
p31
aS'and'
p32
aS'server'
p33
aS'address'
p34
aS'and'
p35
aS'instantiates'
p36
aS'the'
p37
aS'socket'
p38
aS'object.'
p39
asS'file2.txt,line.no:157'
p40
(lp41
S'2.'
p42
aS'protected'
p43
aS'void'
p44
aS'onCreate(Bundle'
p45
aS'savedInstanceState);'
p46
aS'[6]'
p47
asS'file2.txt,line.no:154'
p48
(lp49
S'CALLED'
p50
aS'BY:'
p51
aS'The'
p52
aS'Event'
p53
aS'handler'
p54
aS'of'
p55
aS'the'
p56
aS'UI'
p57
aS'Element'
p58
aS'(Button'
p59
aS'-'
p60
aS'Start'
p61
aS'Connection)'
p62
asS'file2.txt,line.no:155'
p63
(lp64
S'along'
p65
aS'with'
p66
aS'Text'
p67
aS'Views'
p68
aS'containing'
p69
aS'the'
p70
aS'server'
p71
aS'address'
p72
aS'and'
p73
aS'tokens.'
p74
asS'file2.txt,line.no:158'
p75
(lp76
S'INPUT:'
p77
aS'A'
p78
aS'Bundle'
p79
aS'containing'
p80
aS'the'
p81
aS'activity\xe2\x80\x99s'
p82
aS'previously'
p83
aS'frozen'
p84
aS'state'
p85
asS'file2.txt,line.no:159'
p86
(lp87
S'OUTPUT:'
p88
aS'Void'
p89
asS'file2.txt,line.no:43'
p90
(lp91
S'53'
p92
aS'Use'
p93
aS'Cases'
p94
asS'file2.txt,line.no:42'
p95
(lp96
S'requirements'
p97
aS'of'
p98
aS'measuring'
p99
aS'even'
p100
aS'minute'
p101
aS'shaking'
p102
aS'to'
p103
aS'make'
p104
aS'the'
p105
aS'software'
p106
aS'precise.'
p107
asS'file2.txt,line.no:41'
p108
(lp109
S'or'
p110
aS'even'
p111
aS'at'
p112
aS'all.'
p113
aS'Also,'
p114
aS'we'
p115
aS'assume'
p116
aS'the'
p117
aS'devices'
p118
aS'have'
p119
aS'sophisticated'
p120
aS'sensors'
p121
aS'to'
p122
aS'meet'
p123
aS'our'
p124
asS'file2.txt,line.no:40'
p125
(lp126
S'42'
p127
aS'Design'
p128
aS'Overview'
p129
asS'file2.txt,line.no:47'
p130
(lp131
S'Actors'
p132
aS':'
p133
aS'Student,'
p134
aS'Professor'
p135
aS'(both'
p136
aS'are'
p137
aS'collectively'
p138
aS'referred'
p139
aS'to'
p140
aS'as'
p141
aS'the'
p142
aS'user)'
p143
asS'file2.txt,line.no:46'
p144
(lp145
S'3.1'
p146
aS'U1:'
p147
aS'Login'
p148
asS'file2.txt,line.no:45'
p149
(lp150
S'Figure'
p151
aS'3.1:'
p152
aS'Use'
p153
aS'Case'
p154
aS'Diagram'
p155
asS'file2.txt,line.no:44'
p156
(lp157
S'Figure'
p158
aS'3.1'
p159
aS'shows'
p160
aS'the'
p161
aS'pictorial'
p162
aS'view'
p163
aS'of'
p164
aS'the'
p165
aS'Use'
p166
aS'Cases.'
p167
asS'file2.txt,line.no:49'
p168
(lp169
S'1.'
p170
aS'User'
p171
ag133
aS'Requests'
p172
aS'the'
p173
aS'login'
p174
aS'page.'
p175
asS'file2.txt,line.no:48'
p176
(lp177
S'Scenario'
p178
aS'1:'
p179
aS'Mainline'
p180
aS'Sequence:'
p181
asS'file3.txt,line.no:59'
p182
(lp183
S'because'
p184
aS'everyone'
p185
aS'had'
p186
aS'a'
p187
aS'different'
p188
aS'interpretation'
p189
aS'of'
p190
aS'the'
p191
aS'specifications.'
p192
aS'Also'
p193
aS'we'
p194
aS'left'
p195
aS'out'
p196
aS'some'
p197
asS'file3.txt,line.no:58'
p198
(lp199
S'application'
p200
aS'development'
p201
aS'and'
p202
aS'test'
p203
aS'we'
p204
aS'found'
p205
aS'out'
p206
aS'that'
p207
aS'some'
p208
aS'specifications'
p209
aS'needed'
p210
aS'extra'
p211
aS'clarification'
p212
asS'file3.txt,line.no:57'
p213
(lp214
S'never'
p215
aS'developed'
p216
aS'mobile'
p217
aS'programming.'
p218
aS'In'
p219
aS'the'
p220
aS'beginning'
p221
aS'of'
p222
aS'the'
p223
aS'project'
p224
aS'we'
p225
aS'didn\xe2\x80\x99t'
p226
aS'know'
p227
aS'what'
p228
aS'kind'
p229
aS'of'
p230
aS'application'
p231
aS'we'
p232
aS'wanted'
p233
aS'to'
p234
aS'develop'
p235
aS'and'
p236
aS'we'
p237
aS'needed'
p238
aS'some'
p239
aS'time'
p240
aS'to'
p241
aS'decide.'
p242
aS'We'
p243
aS'were'
p244
aS'overwhelmed'
p245
aS'with'
p246
aS'possibilities.'
p247
aS'System'
p248
aS'requirements'
p249
aS'were'
p250
aS'defined'
p251
aS'during'
p252
aS'the'
p253
aS'brainstorming'
p254
aS'session.'
p255
aS'During'
p256
asS'file3.txt,line.no:56'
p257
(lp258
S'was'
p259
aS'based'
p260
aS'on'
p261
aS'open'
p262
aS'source'
p263
aS'software'
p264
aS'and'
p265
aS'we'
p266
aS'used'
p267
aS'within'
p268
aS'the'
p269
aS'project.'
p270
aS'Before'
p271
aS'this'
p272
aS'project'
p273
aS'we'
p274
aS'have'
p275
asS'file3.txt,line.no:55'
p276
(lp277
S'mobile'
p278
aS'phone.'
p279
aS'The'
p280
aS'focus'
p281
aS'of'
p282
aS'this'
p283
aS'work'
p284
aS'was'
p285
aS'on'
p286
aS'the'
p287
aS'processes'
p288
aS'and'
p289
aS'development'
p290
aS'environment'
p291
aS'that'
p292
asS'file3.txt,line.no:54'
p293
(lp294
S'RobiGrgurina'
p295
aS'et'
p296
aS'al.'
p297
aS'learned'
p298
ag187
aS'student'
p299
aS'project'
p300
aS'developing'
p301
ag187
aS'simple'
p302
aS'application'
p303
aS'for'
p304
aS'Android'
p305
asS'file3.txt,line.no:53'
p306
(lp307
S'preservation.'
p308
aS'[2]'
p309
asS'file3.txt,line.no:52'
p310
(lp311
S'extensively'
p312
aS'via'
p313
aS'trace-based'
p314
aS'simulation,'
p315
aS'showing'
p316
aS'the'
p317
aS'effectiveness'
p318
aS'of'
p319
aS'user-controllable'
p320
aS'privacy'
p321
asS'file3.txt,line.no:51'
p322
(lp323
S'Information.'
p324
aS'We'
p325
aS'have'
p326
aS'implemented'
p327
aS'ALPS'
p328
aS'on'
p329
aS'Android'
p330
aS'OS'
p331
aS'and'
p332
aS'evaluated'
p333
aS'the'
p334
aS'implementation'
p335
asS'file3.txt,line.no:50'
p336
(lp337
S'algorithms,'
p338
aS'and'
p339
aS'then'
p340
aS'defined'
p341
ag187
aS'scheme'
p342
aS'that'
p343
aS'allows'
p344
ag187
aS'user'
p345
aS'to'
p346
aS'control'
p347
aS'the'
p348
aS'privacy'
p349
aS'of'
p350
aS'tracking'
p351
asS'file4.txt,line.no:38'
p352
(lp353
S'with'
p354
aS'the'
p355
aS'system.'
p356
aS'The'
p357
aS'use'
p358
aS'case'
p359
aS'Start'
p360
ag187
aS'track'
p361
aS'is'
p362
aS'in'
p363
aS'fact'
p364
aS'2'
p365
aS'use'
p366
aS'cases.'
p367
ag78
aS'track'
p368
asS'file4.txt,line.no:39'
p369
(lp370
S'can'
p371
aS'be'
p372
aS'started'
p373
aS'from'
p374
aS'the'
p375
aS'web'
p376
aS'client'
p377
aS'or'
p378
aS'from'
p379
aS'the'
p380
aS'mobile'
p381
aS'application'
p382
aS'(cell'
p383
aS'phone'
p384
asS'file4.txt,line.no:30'
p385
(lp386
S'nalling'
p387
aS'systems'
p388
aS'which'
p389
aS'switch'
p390
aS'on'
p391
aS'as'
p392
aS'soon'
p393
aS'as'
p394
aS'the'
p395
aS'rider'
p396
aS'get'
p397
aS'cought'
p398
aS'by'
p399
aS'an'
p400
aS'avalanche'
p401
asS'file4.txt,line.no:31'
p402
(lp403
S'for'
p404
aS'example.'
p405
aS'It'
p406
aS'transmits'
p407
ag187
aS'radio'
p408
aS'signal'
p409
aS'to'
p410
aS'the'
p411
aS'closest'
p412
aS'relay'
p413
aS'and'
p414
aS'indicate'
p415
aS'the'
p416
asS'file4.txt,line.no:32'
p417
(lp418
S'exact'
p419
aS'position'
p420
aS'of'
p421
aS'the'
p422
aS'victim.'
p423
aS'It'
p424
aS'helps'
p425
aS'for'
p426
aS'the'
p427
aS'search'
p428
aS'and'
p429
aS'often'
p430
aS'save'
p431
aS'lives.'
p432
aS'The'
p433
asS'file4.txt,line.no:33'
p434
(lp435
S'portable'
p436
aS'TomTom'
p437
aS'GPS'
p438
aS'proposes'
p439
ag187
aS'full'
p440
aS'navigation'
p441
aS'system'
p442
aS'with'
p443
aS'vocal'
p444
aS'indication.'
p445
asS'file4.txt,line.no:34'
p446
(lp447
S'The'
p448
aS'list'
p449
aS'of'
p450
aS'geo-positioning'
p451
aS'applications'
p452
aS'is'
p453
aS'huge'
p454
aS'and'
p455
ag187
aS'simple'
p456
aS'search'
p457
aS'on'
p458
aS'the'
p459
aS'In-'
p460
asS'file4.txt,line.no:35'
p461
(lp462
S'ternet'
p463
aS'gives'
p464
aS'hundred'
p465
aS'web'
p466
aS'sites'
p467
aS'talking'
p468
aS'about'
p469
aS'the'
p470
aS'topic.'
p471
asS'file4.txt,line.no:36'
p472
(lp473
S'The'
p474
aS'diagram'
p475
aS'(figure'
p476
aS'2)'
p477
aS'shows'
p478
aS'the'
p479
aS'use'
p480
aS'cases'
p481
aS'for'
p482
aS'the'
p483
aS'application.'
p484
aS'There'
p485
aS'are'
p486
asS'file4.txt,line.no:37'
p487
(lp488
S'3'
p489
aS'actors,'
p490
aS'10'
p491
aS'use'
p492
aS'cases'
p493
aS'which'
p494
aS'represent'
p495
aS'for'
p496
aS'different'
p497
aS'action'
p498
aS'what'
p499
aS'actors'
p500
aS'can'
p501
aS'do'
p502
asS'file3.txt,line.no:100'
p503
(lp504
S'works'
p505
aS'is'
p506
aS'only'
p507
aS'start'
p508
aS'and'
p509
aS'stop'
p510
aS'the'
p511
aS'bus.'
p512
asS'file3.txt,line.no:101'
p513
(lp514
S'When'
p515
aS'the'
p516
aS'application'
p517
aS'is'
p518
aS'launched,'
p519
aS'the'
p520
aS'homeActivity'
p521
aS'fetches'
p522
aS'the'
p523
aS'routes'
p524
aS'from'
p525
aS'the'
p526
aS'server'
p527
asS'file3.txt,line.no:102'
p528
(lp529
S'and'
p530
aS'binds'
p531
aS'it'
p532
aS'to'
p533
aS'the'
p534
aS'spinner'
p535
aS'for'
p536
aS'the'
p537
aS'driver'
p538
aS'to'
p539
aS'select'
p540
aS'it.'
p541
aS'If'
p542
aS'the'
p543
aS'driver'
p544
aS'selects'
p545
aS'\xe2\x80\x9cStart\xe2\x80\x9d,'
p546
aS'the'
p547
aS'location'
p548
aS'of'
p549
asS'file3.txt,line.no:103'
p550
(lp551
S'the'
p552
aS'bus'
p553
aS'will'
p554
aS'be'
p555
aS'uploaded'
p556
aS'to'
p557
aS'the'
p558
aS'server.'
p559
aS'If'
p560
aS'the'
p561
aS'driver'
p562
aS'selects'
p563
aS'\xe2\x80\x9cStop\xe2\x80\x9d'
p564
aS'then'
p565
aS'the'
p566
aS'uploading'
p567
aS'of'
p568
aS'location'
p569
asS'file3.txt,line.no:104'
p570
(lp571
S'of'
p572
aS'the'
p573
aS'bus'
p574
aS'is'
p575
aS'stopped.'
p576
aS'The'
p577
aS'below'
p578
aS'figure'
p579
aS'7'
p580
aS'shows'
p581
aS'the'
p582
aS'driver'
p583
aS'login'
p584
aS'page.'
p585
asS'file3.txt,line.no:105'
p586
(lp587
S'Figure'
p588
aS'7:'
p589
aS'Driver'
p590
aS'Login'
p591
aS'Page'
p592
asS'file3.txt,line.no:106'
p593
(lp594
S'\xc2\xa9'
p595
aS'2015,'
p596
aS'IJCSMC'
p597
aS'All'
p598
aS'Rights'
p599
aS'Reserved'
p600
asS'file3.txt,line.no:107'
p601
(lp602
S'505G.'
p603
aS'Jemilda'
p604
aS'et'
p605
aS'al,'
p606
aS'International'
p607
aS'Journal'
p608
aS'of'
p609
aS'Computer'
p610
aS'Science'
p611
aS'and'
p612
aS'Mobile'
p613
aS'Computing,'
p614
aS'Vol.4'
p615
aS'Issue.3,'
p616
aS'March-'
p617
aS'2015,'
p618
aS'pg.'
p619
aS'500-507'
p620
asS'file3.txt,line.no:108'
p621
(lp622
S'Software'
p623
aS'testing'
p624
aS'is'
p625
ag187
aS'process'
p626
aS'used'
p627
aS'for'
p628
aS'verifying'
p629
aS'the'
p630
aS'correctness,'
p631
aS'completeness'
p632
aS'and'
p633
aS'quality'
p634
asS'file3.txt,line.no:109'
p635
(lp636
S'of'
p637
aS'the'
p638
aS'developed'
p639
aS'software.'
p640
aS'Software'
p641
aS'is'
p642
aS'built'
p643
aS'out'
p644
aS'of'
p645
aS'sub-systems'
p646
aS'that'
p647
aS'are'
p648
aS'composed'
p649
aS'of'
p650
aS'modules,'
p651
asS'file2.txt,line.no:129'
p652
(lp653
S'2.'
p654
aS'SensorEventListener'
p655
asS'file2.txt,line.no:128'
p656
(lp657
S'1.'
p658
aS'Main'
p659
aS'Activity'
p660
asS'file2.txt,line.no:123'
p661
(lp662
S'4.1.2'
p663
aS'Controller'
p664
aS'Objects'
p665
asS'file2.txt,line.no:122'
p666
(lp667
S'3.'
p668
aS'Professor'
p669
asS'file2.txt,line.no:121'
p670
(lp671
S'2.'
p672
aS'Student'
p673
asS'file2.txt,line.no:120'
p674
(lp675
S'1.'
p676
aS'SensorData'
p677
asS'file2.txt,line.no:127'
p678
(lp679
S'4.1.3'
p680
aS'Boundary'
p681
aS'Objects'
p682
asS'file2.txt,line.no:126'
p683
(lp684
S'3.'
p685
aS'Monitor'
p686
asS'file2.txt,line.no:125'
p687
(lp688
S'2.'
p689
aS'Socket'
p690
ag133
aS'Client'
p691
asS'file2.txt,line.no:124'
p692
(lp693
S'1.'
p694
aS'Socket'
p695
ag133
aS'Server'
p696
asS'file2.txt,line.no:38'
p697
(lp698
S'available'
p699
aS'for'
p700
aS'the'
p701
aS'application,'
p702
aS'for'
p703
aS'example'
p704
aS'the'
p705
aS'users'
p706
aS'might'
p707
aS'have'
p708
aS'allocated'
p709
aS'them'
p710
aS'with'
p711
aS'other'
p712
asS'file2.txt,line.no:39'
p713
(lp714
S'applications,'
p715
aS'there'
p716
aS'may'
p717
aS'be'
p718
aS'scenarios'
p719
aS'where'
p720
aS'the'
p721
aS'application'
p722
aS'does'
p723
aS'not'
p724
aS'work'
p725
aS'as'
p726
aS'intended'
p727
asS'file2.txt,line.no:32'
p728
(lp729
S'We'
p730
aS'assume'
p731
aS'the'
p732
aS'presence'
p733
aS'of'
p734
aS'an'
p735
aS'IT-enabled'
p736
aS'large'
p737
aS'classroom'
p738
aS'with'
p739
aS'the'
p740
aS'availability'
p741
aS'of'
p742
ag187
aS'system'
p743
asS'file2.txt,line.no:33'
p744
(lp745
S'that'
p746
aS'can'
p747
aS'display'
p748
aS'slides'
p749
aS'from'
p750
aS'the'
p751
aS'instructor'
p752
aS'to'
p753
aS'the'
p754
aS'students'
p755
aS'along'
p756
aS'with'
p757
aS'slide'
p758
aS'transitions'
p759
asS'file2.txt,line.no:30'
p760
(lp761
S'orientation'
p762
aS'rendering'
p763
aS'the'
p764
aS'accelerometer'
p765
aS'and'
p766
aS'gyroscopic'
p767
aS'functions'
p768
aS'redundant.'
p769
asS'file2.txt,line.no:31'
p770
(lp771
S'2.6'
p772
aS'Assumptions'
p773
aS'and'
p774
aS'Dependencies'
p775
asS'file2.txt,line.no:36'
p776
(lp777
S'One'
p778
aS'assumption'
p779
aS'about'
p780
aS'the'
p781
aS'product'
p782
aS'is'
p783
aS'that'
p784
aS'it'
p785
aS'will'
p786
aS'always'
p787
aS'be'
p788
aS'used'
p789
aS'on'
p790
aS'mobile'
p791
aS'phones'
p792
asS'file2.txt,line.no:37'
p793
(lp794
S'that'
p795
aS'have'
p796
aS'enough'
p797
aS'performance.'
p798
aS'If'
p799
aS'the'
p800
aS'phone'
p801
aS'does'
p802
aS'not'
p803
aS'have'
p804
aS'enough'
p805
aS'hardware'
p806
aS'resources'
p807
asS'file2.txt,line.no:34'
p808
(lp809
S'is'
p810
aS'available.'
p811
aS'We'
p812
aS'assume'
p813
aS'that'
p814
aS'the'
p815
aS'devices'
p816
aS'owned'
p817
aS'by'
p818
aS'the'
p819
aS'students'
p820
aS'will'
p821
aS'be'
p822
aS'based'
p823
aS'on'
p824
aS'the'
p825
asS'file2.txt,line.no:35'
p826
(lp827
S'Android'
p828
aS'Operating'
p829
aS'System.'
p830
asS'file3.txt,line.no:9'
p831
(lp832
S'UG'
p833
aS'Scholar'
p834
aS'in'
p835
aS'CSE'
p836
aS'Department'
p837
aS','
p838
aS'JACSI'
p839
aS'College'
p840
aS'of'
p841
aS'Engineering,'
p842
aS'Tamil'
p843
aS'Nadu,'
p844
aS'India'
p845
asS'file3.txt,line.no:8'
p846
(lp847
S'Mobile'
p848
aS'Application'
p849
aS'for'
p850
aS'College'
p851
aS'Bus'
p852
aS'Tracking'
p853
asS'file3.txt,line.no:7'
p854
(lp855
S'RESEARCH'
p856
aS'ARTICLE'
p857
asS'file3.txt,line.no:6'
p858
(lp859
S'IJCSMC,'
p860
aS'Vol.'
p861
aS'4,'
p862
aS'Issue.'
p863
aS'3,'
p864
aS'March'
p865
aS'2015,'
p866
aS'pg.500'
p867
aS'\xe2\x80\x93'
p868
aS'507'
p869
asS'file3.txt,line.no:5'
p870
(lp871
S'ISSN'
p872
aS'2320\xe2\x80\x93088X'
p873
asS'file3.txt,line.no:4'
p874
(lp875
g78
aS'Monthly'
p876
aS'Journal'
p877
aS'of'
p878
aS'Computer'
p879
aS'Science'
p880
aS'and'
p881
aS'Information'
p882
aS'Technology'
p883
asS'file3.txt,line.no:3'
p884
(lp885
S'International'
p886
aS'Journal'
p887
aS'of'
p888
aS'Computer'
p889
aS'Science'
p890
aS'and'
p891
aS'Mobile'
p892
aS'Computing'
p893
asS'file3.txt,line.no:2'
p894
(lp895
S'Available'
p896
aS'Online'
p897
aS'at'
p898
aS'www.ijcsmc.com'
p899
asS'file3.txt,line.no:1'
p900
(lp901
S'G.'
p902
aS'Jemilda'
p903
aS'et'
p904
aS'al,'
p905
aS'International'
p906
aS'Journal'
p907
aS'of'
p908
aS'Computer'
p909
aS'Science'
p910
aS'and'
p911
aS'Mobile'
p912
aS'Computing,'
p913
aS'Vol.4'
p914
aS'Issue.3,'
p915
aS'March-'
p916
aS'2015,'
p917
aS'pg.'
p918
aS'500-507'
p919
asS'file2.txt,line.no:228'
p920
(lp921
S'ALGORITHM:'
p922
aS'For'
p923
aS'proper'
p924
aS'attention,'
p925
aS'following'
p926
aS'must'
p927
aS'be'
p928
aS'satisfied:'
p929
asS'file2.txt,line.no:229'
p930
(lp931
S'a)'
p932
aS'Distance'
p933
aS'between'
p934
aS'student'
p935
aS'and'
p936
aS'device'
p937
aS'='
p938
aS'25cm(approx.)'
p939
asS'file2.txt,line.no:224'
p940
(lp941
S'2.'
p942
aS'public'
p943
aS'void'
p944
aS'checkAttention();'
p945
asS'file2.txt,line.no:225'
p946
(lp947
S'CALLED'
p948
aS'By:'
p949
aS'SensorEventListener::onSensorChanged(SensorEvent'
p950
aS'event)'
p951
aS'[9]'
p952
asS'file2.txt,line.no:226'
p953
(lp954
S'DESC:'
p955
aS'Sets'
p956
aS'the'
p957
aS'attention'
p958
aS'flag'
p959
aS'and'
p960
aS'checks'
p961
aS'if'
p962
aS'it'
p963
aS'changes'
p964
aS'and'
p965
aS'appropriately'
p966
aS'informs'
p967
asS'file2.txt,line.no:227'
p968
(lp969
S'the'
p970
aS'Professor.'
p971
asS'file2.txt,line.no:220'
p972
(lp973
S'1.'
p974
aS'public'
p975
aS'Constructor:'
p976
aS'Monitor();'
p977
asS'file2.txt,line.no:221'
p978
(lp979
S'CALLED'
p980
aS'BY:'
p981
aS'Socket::OnConnectEventListener'
p982
asS'file2.txt,line.no:222'
p983
(lp984
S'DESC:'
p985
aS'Instantiates'
p986
aS'the'
p987
aS'sensor'
p988
aS'manager'
p989
aS'and'
p990
aS'registers'
p991
aS'all'
p992
aS'the'
p993
aS'event'
p994
aS'listeners'
p995
aS'for'
p996
aS'the'
p997
asS'file2.txt,line.no:223'
p998
(lp999
S'sensors.'
p1000
asS'file4.txt,line.no:18'
p1001
(lp1002
S'and'
p1003
aS'help'
p1004
aS'people'
p1005
aS'in'
p1006
aS'city'
p1007
aS'or'
p1008
aS'country'
p1009
aS'side'
p1010
aS'to'
p1011
aS'find'
p1012
aS'their'
p1013
aS'road.'
p1014
asS'file3.txt,line.no:13'
p1015
(lp1016
S'source'
p1017
aS'development'
p1018
aS'which'
p1019
aS'is'
p1020
aS'probably'
p1021
aS'the'
p1022
aS'most'
p1023
aS'feasible'
p1024
aS'and'
p1025
ag187
aS'present'
p1026
aS'user'
p1027
aS'friendly'
p1028
aS'approach.'
p1029
aS'This'
p1030
aS'paper'
p1031
aS'also'
p1032
asS'file3.txt,line.no:12'
p1033
(lp1034
S'numbers'
p1035
aS'as'
p1036
aS'well'
p1037
aS'as'
p1038
aS'bus'
p1039
aS'routes'
p1040
aS'both'
p1041
aS'online'
p1042
aS'and'
p1043
aS'offline.'
p1044
aS'Reason'
p1045
aS'for'
p1046
aS'Android'
p1047
aS'platform'
p1048
aS'Android'
p1049
aS'requires'
p1050
aS'an'
p1051
aS'open'
p1052
asS'file3.txt,line.no:11'
p1053
(lp1054
S'Abstract'
p1055
ag60
aS'This'
p1056
aS'paper'
p1057
aS'proposes'
p1058
aS'an'
p1059
aS'Android'
p1060
aS'mobile'
p1061
aS'phone'
p1062
aS'application'
p1063
aS'that'
p1064
aS'gives'
p1065
aS'information'
p1066
aS'about'
p1067
aS'buses,'
p1068
aS'bus'
p1069
asS'file3.txt,line.no:10'
p1070
(lp1071
S'jemildajeba@yahoo.com'
p1072
aS'1'
p1073
ag838
aS'rbkrishna22@gmail.com'
p1074
ag365
ag838
aS'johnvasu87@gmail.com'
p1075
ag489
ag838
aS'lingasangeeth.gj@gmail.com'
p1076
aS'4'
p1077
asS'file3.txt,line.no:17'
p1078
(lp1079
S'Keywords'
p1080
aS'\xe2\x80\x93'
p1081
aS'GPS,'
p1082
aS'client-server'
p1083
aS'Technology'
p1084
asS'file3.txt,line.no:16'
p1085
(lp1086
S'display'
p1087
aS'the'
p1088
aS'required'
p1089
aS'maps'
p1090
aS'with'
p1091
aS'the'
p1092
aS'help'
p1093
aS'of'
p1094
aS'GPS.'
p1095
asS'file3.txt,line.no:15'
p1096
(lp1097
S'estimate'
p1098
aS'remaining'
p1099
aS'time'
p1100
aS'for'
p1101
aS'the'
p1102
aS'tracked'
p1103
aS'bus'
p1104
aS'to'
p1105
aS'reach'
p1106
aS'its'
p1107
aS'destination'
p1108
aS'using'
p1109
aS'the'
p1110
aS'client'
p1111
aS'\xe2\x80\x93server'
p1112
aS'technology.'
p1113
aS'Also'
p1114
aS'It'
p1115
asS'file3.txt,line.no:14'
p1116
(lp1117
S'deals'
p1118
aS'with'
p1119
aS'Location'
p1120
aS'Based'
p1121
aS'Services,'
p1122
aS'which'
p1123
aS'are'
p1124
aS'used'
p1125
aS'to'
p1126
aS'track'
p1127
aS'the'
p1128
aS'current'
p1129
aS'location'
p1130
aS'of'
p1131
aS'the'
p1132
aS'bus'
p1133
aS'as'
p1134
aS'well'
p1135
aS'as'
p1136
aS'give'
p1137
aS'an'
p1138
asS'file3.txt,line.no:19'
p1139
(lp1140
S'INTRODUCTION'
p1141
asS'file3.txt,line.no:18'
p1142
(lp1143
S'I.'
p1144
asS'file3.txt,line.no:139'
p1145
(lp1146
S'bus\xe2\x80\x99s'
p1147
aS'location'
p1148
aS'to'
p1149
aS'the'
p1150
aS'server'
p1151
aS'and'
p1152
aS'the'
p1153
aS'other'
p1154
aS'for'
p1155
aS'the'
p1156
aS'user'
p1157
aS'to'
p1158
aS'retrieve'
p1159
aS'the'
p1160
aS'location'
p1161
aS'of'
p1162
aS'the'
p1163
aS'bus'
p1164
aS'and'
p1165
aS'check'
p1166
asS'file3.txt,line.no:138'
p1167
(lp1168
S'The'
p1169
aS'two'
p1170
aS'Android'
p1171
aS'applications'
p1172
aS'designed'
p1173
aS'are:'
p1174
aS'One'
p1175
aS'for'
p1176
aS'the'
p1177
aS'Driver'
p1178
aS'to'
p1179
aS'start'
p1180
aS'uploading'
p1181
aS'the'
p1182
asS'file3.txt,line.no:131'
p1183
(lp1184
S'to'
p1185
aS'manage'
p1186
aS'not'
p1187
aS'only'
p1188
aS'college'
p1189
aS'buses'
p1190
aS'but'
p1191
aS'also'
p1192
aS'the'
p1193
aS'vehicles'
p1194
aS'that'
p1195
aS'belong'
p1196
aS'to'
p1197
aS'the'
p1198
aS'institution.'
p1199
aS'These'
p1200
asS'file3.txt,line.no:130'
p1201
(lp1202
S'offer'
p1203
aS'simple'
p1204
aS'solutions'
p1205
aS'to'
p1206
aS'do'
p1207
aS'our'
p1208
aS'daily'
p1209
aS'activities.'
p1210
aS'These'
p1211
aS'Android'
p1212
aS'applications'
p1213
aS'can'
p1214
aS'be'
p1215
aS'used'
p1216
aS'in'
p1217
aS'future'
p1218
asS'file3.txt,line.no:133'
p1219
(lp1220
S'\xc2\xa9'
p1221
aS'2015,'
p1222
aS'IJCSMC'
p1223
aS'All'
p1224
aS'Rights'
p1225
aS'Reserved'
p1226
asS'file3.txt,line.no:132'
p1227
(lp1228
S'applications'
p1229
aS'can'
p1230
aS'also'
p1231
aS'be'
p1232
aS'used'
p1233
aS'in'
p1234
aS'any'
p1235
aS'other'
p1236
aS'domain'
p1237
aS'to'
p1238
aS'carry'
p1239
aS'out'
p1240
aS'fleet'
p1241
aS'management'
p1242
aS'efficiently.'
p1243
asS'file3.txt,line.no:135'
p1244
(lp1245
S'The'
p1246
aS'proposed'
p1247
aS'system'
p1248
aS'can'
p1249
aS'further'
p1250
aS'be'
p1251
aS'enhanced'
p1252
aS'by'
p1253
aS'making'
p1254
aS'use'
p1255
aS'of'
p1256
aS'it'
p1257
aS'in'
p1258
aS'BMTC'
p1259
aS'bus'
p1260
aS'tracking'
p1261
asS'file3.txt,line.no:134'
p1262
(lp1263
S'506G.'
p1264
aS'Jemilda'
p1265
aS'et'
p1266
aS'al,'
p1267
aS'International'
p1268
aS'Journal'
p1269
aS'of'
p1270
aS'Computer'
p1271
aS'Science'
p1272
aS'and'
p1273
aS'Mobile'
p1274
aS'Computing,'
p1275
aS'Vol.4'
p1276
aS'Issue.3,'
p1277
aS'March-'
p1278
aS'2015,'
p1279
aS'pg.'
p1280
aS'500-507'
p1281
asS'file3.txt,line.no:137'
p1282
(lp1283
S'Figure'
p1284
aS'8:'
p1285
aS'Google'
p1286
aS'Map'
p1287
asS'file3.txt,line.no:136'
p1288
(lp1289
S'systems'
p1290
aS'and'
p1291
aS'also'
p1292
aS'to'
p1293
aS'rep'
p1294
aS'have'
p1295
aS'presented'
p1296
aS'an'
p1297
aS'Android'
p1298
aS'Application'
p1299
aS'to'
p1300
aS'track'
p1301
aS'the'
p1302
aS'college'
p1303
aS'buses'
p1304
asS'file2.txt,line.no:169'
p1305
(lp1306
S'Inherited'
p1307
aS'From:'
p1308
aS'IO'
p1309
aS'[7]'
p1310
asS'file2.txt,line.no:168'
p1311
(lp1312
S'4.3.2'
p1313
aS'Socket'
p1314
ag133
aS'IO.socket-client'
p1315
asS'file2.txt,line.no:167'
p1316
(lp1317
S'data'
p1318
aS'from'
p1319
aS'database'
p1320
aS'and'
p1321
aS'fills'
p1322
aS'stud'
p1323
aS'object.'
p1324
asS'file2.txt,line.no:166'
p1325
(lp1326
S'DESC:'
p1327
aS'Verifies'
p1328
aS'the'
p1329
aS'email'
p1330
aS'address'
p1331
aS'and'
p1332
aS'password'
p1333
aS'combination'
p1334
aS'and'
p1335
aS'fetches'
p1336
aS'student'
p1337
asS'file2.txt,line.no:165'
p1338
(lp1339
S'Text'
p1340
aS'Views'
p1341
aS'containing'
p1342
aS'the'
p1343
aS'email'
p1344
aS'address'
p1345
aS'and'
p1346
aS'password.'
p1347
asS'file2.txt,line.no:164'
p1348
(lp1349
S'CALLED'
p1350
aS'BY:'
p1351
aS'The'
p1352
aS'Event'
p1353
aS'handler'
p1354
aS'of'
p1355
aS'the'
p1356
aS'UI'
p1357
aS'Element'
p1358
aS'(Button'
p1359
ag60
aS'Login)'
p1360
aS'along'
p1361
aS'with'
p1362
asS'file2.txt,line.no:163'
p1363
(lp1364
S'INPUT:'
p1365
aS'email'
p1366
aS'address,'
p1367
aS'password'
p1368
aS'of'
p1369
aS'the'
p1370
aS'student'
p1371
asS'file2.txt,line.no:162'
p1372
(lp1373
S'3.'
p1374
aS'private'
p1375
aS'void'
p1376
aS'authenticate(string,'
p1377
aS'string);'
p1378
asS'file2.txt,line.no:161'
p1379
(lp1380
S'UI'
p1381
aS'Elements'
p1382
aS'(Views)'
p1383
aS'and'
p1384
aS'the'
p1385
aS'Student'
p1386
aS'class.'
p1387
asS'file2.txt,line.no:160'
p1388
(lp1389
S'DESC:'
p1390
aS'Called'
p1391
aS'when'
p1392
aS'the'
p1393
aS'activity'
p1394
aS'is'
p1395
aS'first'
p1396
aS'created.'
p1397
aS'This'
p1398
aS'method'
p1399
aS'instantiates'
p1400
aS'all'
p1401
aS'the'
p1402
asS'file2.txt,line.no:78'
p1403
(lp1404
S'2.'
p1405
aS'System'
p1406
ag133
aS'Displays'
p1407
ag187
aS'prompt'
p1408
aS'requesting'
p1409
aS'the'
p1410
aS'session'
p1411
aS'address.'
p1412
asS'file2.txt,line.no:79'
p1413
(lp1414
S'3.'
p1415
aS'Student'
p1416
ag133
aS'Enters'
p1417
aS'the'
p1418
aS'session'
p1419
aS'address'
p1420
aS'as'
p1421
aS'directed'
p1422
aS'by'
p1423
aS'the'
p1424
aS'professor.'
p1425
asS'file2.txt,line.no:76'
p1426
(lp1427
S'1.'
p1428
aS'Student'
p1429
ag133
aS'Requests'
p1430
aS'to'
p1431
aS'Join'
p1432
aS'the'
p1433
aS'session.'
p1434
asS'file2.txt,line.no:77'
p1435
(lp1436
S'73'
p1437
aS'Use'
p1438
aS'Cases'
p1439
asS'file2.txt,line.no:74'
p1440
(lp1441
S'by'
p1442
aS'the'
p1443
aS'professor.'
p1444
asS'file2.txt,line.no:75'
p1445
(lp1446
S'Scenario'
p1447
aS'1:'
p1448
aS'Mainline'
p1449
aS'Sequence:'
p1450
asS'file2.txt,line.no:72'
p1451
(lp1452
S'Actors'
p1453
ag133
aS'Student'
p1454
asS'file2.txt,line.no:73'
p1455
(lp1456
S'Precondition'
p1457
ag133
aS'Student'
p1458
aS'is'
p1459
aS'logged'
p1460
aS'into'
p1461
aS'the'
p1462
aS'system'
p1463
aS'and'
p1464
ag187
aS'session'
p1465
aS'has'
p1466
aS'been'
p1467
aS'initiated'
p1468
asS'file2.txt,line.no:70'
p1469
(lp1470
S'entered'
p1471
aS'and'
p1472
aS'it'
p1473
aS'displays'
p1474
ag187
aS'prompt'
p1475
aS'to'
p1476
aS'enter'
p1477
aS'the'
p1478
aS'missing'
p1479
aS'information.'
p1480
asS'file2.txt,line.no:71'
p1481
(lp1482
S'3.3'
p1483
aS'U3:'
p1484
aS'Join'
p1485
aS'Session'
p1486
asS'file2.txt,line.no:94'
p1487
(lp1488
S'Scenario'
p1489
aS'1:'
p1490
aS'Mainline'
p1491
aS'Sequence:'
p1492
asS'file2.txt,line.no:95'
p1493
(lp1494
S'1.'
p1495
aS'System'
p1496
ag133
aS'Checks'
p1497
aS'the'
p1498
aS'sensor'
p1499
aS'data'
p1500
aS'and'
p1501
aS'evaluates'
p1502
aS'the'
p1503
aS'values'
p1504
aS'based'
p1505
aS'on'
p1506
aS'our'
p1507
aS'norm'
p1508
aS'and'
p1509
asS'file2.txt,line.no:96'
p1510
(lp1511
S'determines'
p1512
aS'the'
p1513
aS'attention'
p1514
aS'to'
p1515
aS'displays'
p1516
ag187
aS'message'
p1517
aS'to'
p1518
aS'the'
p1519
aS'professor.'
p1520
asS'file2.txt,line.no:97'
p1521
(lp1522
S'2.'
p1523
aS'Professor'
p1524
ag133
aS'Receives'
p1525
aS'the'
p1526
aS'message'
p1527
aS'and'
p1528
aS'acknowledges'
p1529
aS'it.'
p1530
asS'file2.txt,line.no:90'
p1531
(lp1532
S'Actors'
p1533
ag133
aS'Professor'
p1534
asS'file2.txt,line.no:91'
p1535
(lp1536
S'Precondition'
p1537
ag133
aS'Both'
p1538
aS'student'
p1539
aS'and'
p1540
aS'professor'
p1541
aS'are'
p1542
aS'logged'
p1543
aS'in,'
p1544
aS'the'
p1545
aS'session'
p1546
aS'is'
p1547
aS'initiated'
p1548
aS'by'
p1549
asS'file2.txt,line.no:92'
p1550
(lp1551
S'the'
p1552
aS'professor'
p1553
aS'and'
p1554
aS'at'
p1555
aS'least'
p1556
aS'one'
p1557
aS'student'
p1558
aS'has'
p1559
aS'joined'
p1560
aS'the'
p1561
aS'session'
p1562
aS'and'
p1563
aS'the'
p1564
aS'student'
p1565
aS'has'
p1566
aS'given'
p1567
asS'file2.txt,line.no:93'
p1568
(lp1569
S'permission'
p1570
aS'to'
p1571
aS'monitor'
p1572
aS'the'
p1573
aS'sensors.'
p1574
asS'file3.txt,line.no:62'
p1575
(lp1576
S'applications.'
p1577
aS'We'
p1578
aS'understand'
p1579
aS'the'
p1580
aS'importance'
p1581
aS'of'
p1582
aS'formal'
p1583
aS'processes'
p1584
aS'for'
p1585
aS'effective'
p1586
aS'teamwork'
p1587
aS'as'
p1588
aS'is'
p1589
aS'for'
p1590
asS'file3.txt,line.no:63'
p1591
(lp1592
S'example'
p1593
aS'in'
p1594
aS'our'
p1595
aS'case'
p1596
aS'insufficiency'
p1597
aS'defined'
p1598
aS'requirements'
p1599
aS'have'
p1600
aS'slower'
p1601
aS'our'
p1602
aS'development'
p1603
aS'and'
p1604
aS'testing'
p1605
asS'file3.txt,line.no:60'
p1606
(lp1607
S'details'
p1608
aS'that'
p1609
aS'could'
p1610
aS'improve'
p1611
aS'user'
p1612
aS'experience'
p1613
aS'like'
p1614
aS'displaying'
p1615
aS'current'
p1616
aS'result.'
p1617
aS'This'
p1618
aS'experience'
p1619
aS'was'
p1620
asS'file3.txt,line.no:61'
p1621
(lp1622
S'very'
p1623
aS'useful'
p1624
aS'because'
p1625
aS'we'
p1626
aS'learned'
p1627
aS'something'
p1628
aS'new'
p1629
aS'and'
p1630
aS'got'
p1631
aS'insight'
p1632
aS'into'
p1633
aS'the'
p1634
aS'entire'
p1635
aS'process'
p1636
aS'of'
p1637
aS'creating'
p1638
asS'file2.txt,line.no:98'
p1639
(lp1640
S'3.'
p1641
aS'System'
p1642
ag133
aS'Notifies'
p1643
aS'the'
p1644
aS'student'
p1645
aS'to'
p1646
aS'pay'
p1647
aS'attention.'
p1648
asS'file2.txt,line.no:99'
p1649
(lp1650
S'Scenario'
p1651
aS'2:'
p1652
aS'At'
p1653
aS'step'
p1654
ag1073
aS'of'
p1655
aS'mainline'
p1656
aS'sequence:'
p1657
asS'file3.txt,line.no:64'
p1658
(lp1659
S'by'
p1660
aS'increasing'
p1661
aS'the'
p1662
aS'otherwise.uding'
p1663
aS'SQLite,'
p1664
aS'Web'
p1665
aS'Kit,'
p1666
aS'OpenGL,'
p1667
asS'file3.txt,line.no:65'
p1668
(lp1669
S'Software'
p1670
aS'development'
p1671
aS'kit'
p1672
aS'used'
p1673
aS'to'
p1674
aS'create'
p1675
aS'applications,'
p1676
aS'including'
p1677
aS'tools,'
p1678
aS'plug-ins,'
p1679
aS'and'
p1680
asS'file4.txt,line.no:29'
p1681
(lp1682
S'Also'
p1683
aS'it'
p1684
aS'exist,'
p1685
aS'for'
p1686
aS'mountain'
p1687
aS'activities'
p1688
aS'like'
p1689
aS'freeride,'
p1690
aS'hicking,'
p1691
aS'those'
p1692
aS'automatic'
p1693
aS'sig-'
p1694
asS'file4.txt,line.no:28'
p1695
(lp1696
S'flight\xe2\x80\x99s'
p1697
aS'map'
p1698
aS'for'
p1699
aS'pilots,'
p1700
aS'etc.'
p1701
asS'file4.txt,line.no:23'
p1702
(lp1703
S'As'
p1704
aS'mentioned'
p1705
aS'above,'
p1706
aS'there'
p1707
aS'are'
p1708
aS'already'
p1709
ag187
aS'lot'
p1710
aS'of'
p1711
aS'applications'
p1712
aS'which'
p1713
aS'use'
p1714
aS'the'
p1715
aS'geo-'
p1716
asS'file4.txt,line.no:22'
p1717
(lp1718
S'Figure'
p1719
aS'1:'
p1720
aS'GPS'
p1721
aS'traker:'
p1722
aS'General'
p1723
aS'schema'
p1724
asS'file4.txt,line.no:21'
p1725
(lp1726
g187
aS'web'
p1727
aS'client,'
p1728
aS'the'
p1729
aS'user'
p1730
aS'can'
p1731
aS'be'
p1732
aS'followed'
p1733
aS'on'
p1734
ag187
aS'map'
p1735
aS'in'
p1736
aS'real'
p1737
aS'time'
p1738
aS'mode.'
p1739
asS'file4.txt,line.no:20'
p1740
(lp1741
S'we?\xe2\x80\x9d'
p1742
aS'but'
p1743
aS'more'
p1744
aS'on'
p1745
aS'\xe2\x80\x9dwhere'
p1746
aS'he/she'
p1747
aS'is?\xe2\x80\x9d.'
p1748
aS'For'
p1749
aS'this'
p1750
aS'the'
p1751
aS'idea'
p1752
aS'is'
p1753
aS'to'
p1754
aS'use'
p1755
ag187
aS'cell'
p1756
aS'phone'
p1757
aS'which'
p1758
aS'accepts'
p1759
aS'to'
p1760
aS'receive'
p1761
aS'GPS'
p1762
aS'coordinates'
p1763
aS'and'
p1764
aS'send'
p1765
aS'them'
p1766
aS'to'
p1767
ag187
aS'server'
p1768
aS'able'
p1769
aS'to'
p1770
aS'the'
p1771
aS'account'
p1772
aS'of'
p1773
ag187
aS'register'
p1774
aS'user'
p1775
aS'(tracked'
p1776
aS'person).'
p1777
aS'Then'
p1778
aS'from'
p1779
asS'file4.txt,line.no:27'
p1780
(lp1781
S'maps'
p1782
aS'and'
p1783
aS'tracking,'
p1784
aS'topologic'
p1785
aS'maps'
p1786
aS'for'
p1787
aS'technical'
p1788
aS'job'
p1789
aS'like'
p1790
aS'geologist'
p1791
aS'(for'
p1792
aS'instance),'
p1793
asS'file4.txt,line.no:26'
p1794
(lp1795
S'GPS'
p1796
aS'devices.'
p1797
aS'Different'
p1798
aS'kind'
p1799
aS'of'
p1800
aS'applications'
p1801
aS'for'
p1802
aS'different'
p1803
aS'kind'
p1804
aS'of'
p1805
aS'public:'
p1806
aS'road'
p1807
asS'file4.txt,line.no:25'
p1808
(lp1809
S'almost'
p1810
aS'every'
p1811
aS'countries'
p1812
aS'in'
p1813
aS'the'
p1814
aS'world'
p1815
aS'ready'
p1816
aS'to'
p1817
aS'be'
p1818
aS'download'
p1819
aS'into'
p1820
aS'their'
p1821
aS'panel'
p1822
aS'of'
p1823
asS'file4.txt,line.no:24'
p1824
(lp1825
S'positioning.'
p1826
aS'Garmin,'
p1827
aS'one'
p1828
aS'of'
p1829
aS'the'
p1830
aS'famous'
p1831
aS'GPS'
p1832
aS'manufacturer,'
p1833
aS'proposes'
p1834
aS'maps'
p1835
aS'of'
p1836
asS'file2.txt,line.no:215'
p1837
(lp1838
S'4.'
p1839
aS'private'
p1840
aS'bool'
p1841
aS'attentionFlagChanged;'
p1842
asS'file2.txt,line.no:214'
p1843
(lp1844
S'DESC:'
p1845
aS'Attention'
p1846
aS'status'
p1847
aS'of'
p1848
aS'student'
p1849
asS'file2.txt,line.no:217'
p1850
(lp1851
S'5.'
p1852
aS'private'
p1853
aS'SensorEventListener'
p1854
aS'sel;'
p1855
asS'file2.txt,line.no:216'
p1856
(lp1857
S'DESC:'
p1858
aS'True'
p1859
aS'if'
p1860
aS'the'
p1861
aS'Attention'
p1862
aS'Flag'
p1863
aS'just'
p1864
aS'changed.'
p1865
asS'file2.txt,line.no:211'
p1866
(lp1867
S'2.'
p1868
aS'private'
p1869
aS'SensorData'
p1870
aS'sd;'
p1871
asS'file2.txt,line.no:210'
p1872
(lp1873
S'DESC:'
p1874
aS'It'
p1875
aS'lets'
p1876
aS'access'
p1877
aS'to'
p1878
aS'the'
p1879
aS'student'
p1880
aS'device\xe2\x80\x99s'
p1881
aS'sensors.'
p1882
asS'file2.txt,line.no:213'
p1883
(lp1884
S'3.'
p1885
aS'private'
p1886
aS'bool'
p1887
aS'attentionFlag'
p1888
asS'file2.txt,line.no:212'
p1889
(lp1890
S'DESC:'
p1891
aS'Sensor'
p1892
aS'Data'
p1893
aS'Values.'
p1894
asS'file2.txt,line.no:219'
p1895
(lp1896
S'Methods'
p1897
asS'file2.txt,line.no:218'
p1898
(lp1899
S'DESC:'
p1900
aS'Implements'
p1901
aS'the'
p1902
aS'work'
p1903
aS'that'
p1904
aS'needs'
p1905
aS'to'
p1906
aS'be'
p1907
aS'done'
p1908
aS'when'
p1909
aS'sensors'
p1910
aS'trigger.'
p1911
asS'file2.txt,line.no:185'
p1912
(lp1913
S'Called'
p1914
aS'By:'
p1915
aS'Triggered'
p1916
aS'when'
p1917
aS'the'
p1918
aS'connection'
p1919
aS'is'
p1920
aS'established'
p1921
aS'[7]'
p1922
asS'file2.txt,line.no:184'
p1923
(lp1924
S'2.'
p1925
aS'public'
p1926
aS'void'
p1927
aS'onConnectEventListener();'
p1928
asS'file2.txt,line.no:187'
p1929
(lp1930
S'DESC:'
p1931
aS'Asks'
p1932
aS'for'
p1933
aS'Permission'
p1934
aS'to'
p1935
aS'access'
p1936
aS'Sensors'
p1937
aS'from'
p1938
aS'the'
p1939
aS'student.'
p1940
asS'file2.txt,line.no:186'
p1941
(lp1942
S'OUTPUT:'
p1943
aS'Void'
p1944
asS'file2.txt,line.no:181'
p1945
(lp1946
S'INPUT:'
p1947
aS'Server'
p1948
aS'Address'
p1949
asS'file2.txt,line.no:180'
p1950
(lp1951
S'1.'
p1952
aS'public'
p1953
aS'Constructor:'
p1954
aS'Socket(string);'
p1955
asS'file2.txt,line.no:183'
p1956
(lp1957
S'DESC:'
p1958
aS'Establishes'
p1959
aS'the'
p1960
aS'socket'
p1961
aS'connection'
p1962
aS'and'
p1963
aS'registers'
p1964
aS'all'
p1965
aS'the'
p1966
aS'event'
p1967
aS'listeners.'
p1968
asS'file2.txt,line.no:182'
p1969
(lp1970
S'CALLED'
p1971
aS'BY:'
p1972
aS'Main'
p1973
aS'Activity::StartConnection'
p1974
asS'file2.txt,line.no:189'
p1975
(lp1976
S'Called'
p1977
aS'By:'
p1978
aS'Triggered'
p1979
aS'when'
p1980
aS'the'
p1981
aS'connection'
p1982
aS'is'
p1983
aS'destroyed'
p1984
aS'[7]'
p1985
asS'file2.txt,line.no:188'
p1986
(lp1987
S'3.'
p1988
aS'public'
p1989
aS'void'
p1990
aS'onDisconnectEventListener();'
p1991
asS'file2.txt,line.no:109'
p1992
(lp1993
S'1.'
p1994
aS'User'
p1995
ag133
aS'Selects'
p1996
aS'the'
p1997
aS'option'
p1998
aS'of'
p1999
aS'viewing'
p2000
aS'the'
p2001
aS'past'
p2002
aS'report.'
p2003
asS'file2.txt,line.no:108'
p2004
(lp2005
S'Scenario'
p2006
aS'1:'
p2007
aS'Mainline'
p2008
aS'Sequence:'
p2009
asS'file3.txt,line.no:99'
p2010
(lp2011
S'Driver'
p2012
aS'has'
p2013
aS'to'
p2014
aS'enter'
p2015
aS'the'
p2016
aS'bus'
p2017
aS'number,'
p2018
aS'route'
p2019
aS'id,'
p2020
aS'and'
p2021
aS'mobile'
p2022
aS'number'
p2023
aS'to'
p2024
aS'login'
p2025
aS'the'
p2026
aS'application.'
p2027
aS'Driver'
p2028
asS'file2.txt,line.no:134'
p2029
(lp2030
S'Extends:'
p2031
aS'Activity'
p2032
aS'[6]'
p2033
asS'file2.txt,line.no:135'
p2034
(lp2035
S'Description:'
p2036
aS'An'
p2037
aS'activity'
p2038
aS'is'
p2039
ag187
aS'single,'
p2040
aS'focused'
p2041
aS'thing'
p2042
aS'that'
p2043
aS'the'
p2044
aS'user'
p2045
aS'can'
p2046
aS'do.'
p2047
aS'Activity'
p2048
asS'file2.txt,line.no:136'
p2049
(lp2050
S'interact'
p2051
aS'with'
p2052
aS'the'
p2053
aS'user'
p2054
aS'and'
p2055
aS'takes'
p2056
aS'care'
p2057
aS'of'
p2058
aS'creating'
p2059
ag187
aS'window'
p2060
aS'in'
p2061
aS'which'
p2062
aS'UI'
p2063
aS'elements'
p2064
aS'are'
p2065
asS'file2.txt,line.no:137'
p2066
(lp2067
S'places.'
p2068
asS'file2.txt,line.no:130'
p2069
(lp2070
S'4.2'
p2071
aS'Class'
p2072
aS'Diagram'
p2073
asS'file2.txt,line.no:131'
p2074
(lp2075
S'Figure'
p2076
aS'4.1'
p2077
aS'shows'
p2078
aS'the'
p2079
aS'relationships'
p2080
aS'between'
p2081
aS'the'
p2082
aS'classes/objects'
p2083
aS'pictorially.'
p2084
asS'file2.txt,line.no:132'
p2085
(lp2086
S'4.3'
p2087
aS'Class'
p2088
aS'Descriptions'
p2089
asS'file2.txt,line.no:133'
p2090
(lp2091
S'4.3.1'
p2092
aS'Main'
p2093
aS'Activity'
p2094
asS'file2.txt,line.no:138'
p2095
(lp2096
S'104'
p2097
aS'Object'
p2098
aS'Oriented'
p2099
aS'Model'
p2100
asS'file2.txt,line.no:139'
p2101
(lp2102
S'Attributes'
p2103
asS'file2.txt,line.no:25'
p2104
(lp2105
S'2.5'
p2106
aS'Design'
p2107
aS'and'
p2108
aS'Implementation'
p2109
aS'Constraints'
p2110
asS'file2.txt,line.no:24'
p2111
(lp2112
S'will'
p2113
aS'be'
p2114
aS'used'
p2115
aS'to'
p2116
aS'implement'
p2117
aS'the'
p2118
aS'two'
p2119
aS'way'
p2120
aS'socket'
p2121
aS'communication'
p2122
aS'between'
p2123
aS'the'
p2124
aS'devices.'
p2125
asS'file2.txt,line.no:27'
p2126
(lp2127
S'for'
p2128
aS'measuring'
p2129
aS'the'
p2130
aS'attention.'
p2131
aS'[1]'
p2132
aS'The'
p2133
aS'students'
p2134
aS'might'
p2135
aS'exploit'
p2136
aS'the'
p2137
aS'sensors'
p2138
aS'used'
p2139
aS'to'
p2140
aS'portray'
p2141
asS'file2.txt,line.no:26'
p2142
(lp2143
S'For'
p2144
aS'the'
p2145
aS'above'
p2146
aS'purpose'
p2147
aS'of'
p2148
aS'implementing'
p2149
aS'the'
p2150
aS'app,'
p2151
aS'we'
p2152
aS'are'
p2153
aS'forbidden'
p2154
aS'from'
p2155
aS'using'
p2156
aS'the'
p2157
aS'camera'
p2158
asS'file2.txt,line.no:21'
p2159
(lp2160
S'2.4.4'
p2161
aS'Communications'
p2162
aS'Interfaces'
p2163
asS'file2.txt,line.no:20'
p2164
(lp2165
S'Further,'
p2166
aS'the'
p2167
aS'portal'
p2168
aS'for'
p2169
aS'application'
p2170
aS'will'
p2171
aS'be'
p2172
aS'written'
p2173
aS'in'
p2174
aS'Node.JS'
p2175
aS'framework.'
p2176
asS'file2.txt,line.no:23'
p2177
(lp2178
g187
aS'wireless'
p2179
aS'local'
p2180
aS'area'
p2181
aS'network,'
p2182
aS'wifi'
p2183
aS'will'
p2184
aS'be'
p2185
aS'used'
p2186
aS'and'
p2187
aS'Node.JS'
p2188
aS'socket'
p2189
aS'communication'
p2190
aS'library'
p2191
asS'file2.txt,line.no:22'
p2192
(lp2193
S'For'
p2194
aS'establishing'
p2195
aS'the'
p2196
aS'connection'
p2197
aS'between'
p2198
aS'the'
p2199
aS'student'
p2200
aS'and'
p2201
aS'instructor'
p2202
aS'devices'
p2203
aS'in'
p2204
aS'the'
p2205
aS'form'
p2206
aS'of'
p2207
asS'file2.txt,line.no:29'
p2208
(lp2209
S'This'
p2210
aS'gives'
p2211
ag187
aS'false'
p2212
aS'positive'
p2213
aS'in'
p2214
aS'cases'
p2215
aS'when'
p2216
aS'the'
p2217
aS'student'
p2218
aS'uses'
p2219
ag187
aS'stand'
p2220
aS'to'
p2221
aS'maintain'
p2222
aS'the'
p2223
asS'file2.txt,line.no:28'
p2224
(lp2225
S'themselves'
p2226
aS'as'
p2227
aS'paying'
p2228
aS'attention'
p2229
aS'even'
p2230
aS'when'
p2231
aS'they'
p2232
aS'are'
p2233
aS'not.'
p2234
asS'file3.txt,line.no:90'
p2235
(lp2236
S'If'
p2237
aS'the'
p2238
aS'client'
p2239
aS'selects'
p2240
aS'\xe2\x80\x9cGet'
p2241
aS'Location\xe2\x80\x9d'
p2242
aS'then'
p2243
aS'the'
p2244
aS'location'
p2245
aS'details'
p2246
aS'of'
p2247
aS'the'
p2248
aS'bus'
p2249
aS'for'
p2250
aS'that'
p2251
aS'route'
p2252
aS'is'
p2253
aS'fetched.'
p2254
asS'file2.txt,line.no:250'
p2255
(lp2256
S'24'
p2257
asS'file3.txt,line.no:28'
p2258
(lp2259
S'developments'
p2260
aS'on'
p2261
aS'the'
p2262
aS'internet'
p2263
aS'had'
p2264
aS'given'
p2265
aS'mobile'
p2266
aS'phones'
p2267
aS'more'
p2268
aS'sophisticated'
p2269
aS'but'
p2270
aS'easy'
p2271
aS'to'
p2272
aS'use'
p2273
aS'in'
p2274
asS'file3.txt,line.no:29'
p2275
(lp2276
S'applications.'
p2277
asS'file3.txt,line.no:26'
p2278
(lp2279
S'innovation'
p2280
aS'and'
p2281
aS'new'
p2282
aS'applications.'
p2283
aS'Originally,'
p2284
aS'it'
p2285
aS'was'
p2286
aS'intended'
p2287
aS'to'
p2288
aS'be'
p2289
ag187
aS'telephone'
p2290
aS'that'
p2291
aS'can'
p2292
aS'be'
p2293
aS'carried'
p2294
asS'file3.txt,line.no:27'
p2295
(lp2296
S'wirelessly'
p2297
aS'at'
p2298
aS'greater'
p2299
aS'distances.'
p2300
aS'Advances'
p2301
aS'in'
p2302
aS'communications,'
p2303
aS'upgrades'
p2304
aS'in'
p2305
aS'radio'
p2306
aS'frequency'
p2307
aS'and'
p2308
asS'file3.txt,line.no:24'
p2309
(lp2310
S'Having'
p2311
ag187
aS'mobile'
p2312
aS'phone'
p2313
aS'for'
p2314
aS'us'
p2315
aS'makes'
p2316
aS'life'
p2317
aS'easier.'
p2318
aS'Communication'
p2319
aS'is'
p2320
aS'always'
p2321
ag187
aS'part'
p2322
aS'of'
p2323
aS'daily'
p2324
asS'file3.txt,line.no:25'
p2325
(lp2326
S'life,'
p2327
aS'and'
p2328
aS'we'
p2329
aS'cannot'
p2330
aS'avoid'
p2331
aS'it.'
p2332
aS'The'
p2333
aS'invention'
p2334
aS'of'
p2335
aS'mobile'
p2336
aS'phone'
p2337
aS'has'
p2338
aS'gone'
p2339
aS'tremendous'
p2340
aS'leaps'
p2341
aS'in'
p2342
asS'file3.txt,line.no:22'
p2343
(lp2344
S'market'
p2345
aS'sector'
p2346
aS'and'
p2347
aS'the'
p2348
aS'ever-growing'
p2349
aS'and'
p2350
aS'demanding'
p2351
aS'consumers'
p2352
aS'always'
p2353
aS'want'
p2354
aS'to'
p2355
aS'have'
p2356
aS'more,'
p2357
aS'and'
p2358
asS'file3.txt,line.no:23'
p2359
(lp2360
S'they'
p2361
aS'want'
p2362
aS'it'
p2363
aS'better'
p2364
aS'than'
p2365
aS'ever.'
p2366
asS'file3.txt,line.no:20'
p2367
(lp2368
S'The'
p2369
aS'mobile'
p2370
aS'phone'
p2371
aS'industry'
p2372
aS'is'
p2373
aS'one'
p2374
aS'of'
p2375
aS'the'
p2376
aS'fastest'
p2377
aS'and'
p2378
aS'most'
p2379
aS'dynamic'
p2380
aS'business'
p2381
aS'sectors'
p2382
aS'today.'
p2383
asS'file3.txt,line.no:21'
p2384
(lp2385
S'The'
p2386
aS'need'
p2387
aS'to'
p2388
aS'communicate'
p2389
aS'efficiently'
p2390
aS'and'
p2391
aS'instantaneously'
p2392
aS'is'
p2393
aS'always'
p2394
aS'an'
p2395
aS'undying'
p2396
aS'necessity.'
p2397
aS'The'
p2398
asS'file4.txt,line.no:52'
p2399
(lp2400
S'characters'
p2401
aS'long.'
p2402
aS'Any'
p2403
aS'fields'
p2404
aS'must'
p2405
aS'be'
p2406
aS'empty'
p2407
aS'otherwise'
p2408
aS'the'
p2409
aS'user'
p2410
aS'is'
p2411
aS'not'
p2412
aS'register.'
p2413
asS'file4.txt,line.no:53'
p2414
(lp2415
S'Modification'
p2416
aS'of'
p2417
aS'the'
p2418
aS'user'
p2419
aS'profile.'
p2420
aS'Once'
p2421
aS'logged,'
p2422
aS'the'
p2423
aS'user'
p2424
aS'can'
p2425
aS'modify'
p2426
aS'its'
p2427
asS'file4.txt,line.no:50'
p2428
(lp2429
S'Then'
p2430
aS'the'
p2431
aS'user'
p2432
aS'receives'
p2433
ag187
aS'user'
p2434
aS'Id'
p2435
aS'(integer)'
p2436
aS'and'
p2437
aS'is'
p2438
aS'recorded'
p2439
aS'in'
p2440
aS'the'
p2441
aS'database.'
p2442
asS'file4.txt,line.no:51'
p2443
(lp2444
S'This'
p2445
aS'part'
p2446
aS'is'
p2447
aS'done'
p2448
aS'on'
p2449
aS'the'
p2450
aS'web'
p2451
aS'client'
p2452
aS'side.'
p2453
aS'The'
p2454
aS'password'
p2455
aS'must'
p2456
aS'be'
p2457
aS'more'
p2458
aS'than'
p2459
ag1077
asS'file4.txt,line.no:56'
p2460
(lp2461
S'identify'
p2462
aS'in'
p2463
aS'order'
p2464
aS'to'
p2465
aS'access'
p2466
aS'any'
p2467
aS'options.'
p2468
aS'The'
p2469
aS'web'
p2470
aS'page'
p2471
aS'contains'
p2472
aS'two'
p2473
aS'fields:'
p2474
asS'file4.txt,line.no:54'
p2475
(lp2476
S'profile'
p2477
aS'using'
p2478
aS'the'
p2479
aS'same'
p2480
aS'data'
p2481
aS'as'
p2482
aS'above'
p2483
aS'and'
p2484
aS'same'
p2485
aS'constraints.'
p2486
asS'file4.txt,line.no:55'
p2487
(lp2488
S'User'
p2489
aS'login'
p2490
aS'This'
p2491
aS'web'
p2492
aS'page'
p2493
aS'is'
p2494
aS'the'
p2495
aS'first'
p2496
aS'one'
p2497
aS'in'
p2498
aS'the'
p2499
aS'system.'
p2500
aS'The'
p2501
aS'user'
p2502
aS'must'
p2503
aS'be'
p2504
asS'file3.txt,line.no:128'
p2505
(lp2506
S'open'
p2507
aS'which'
p2508
aS'can'
p2509
aS'be'
p2510
aS'taken'
p2511
aS'up'
p2512
aS'as'
p2513
aS'future'
p2514
aS'enhancements.'
p2515
asS'file3.txt,line.no:129'
p2516
(lp2517
S'As'
p2518
aS'Android'
p2519
aS'phones'
p2520
aS'are'
p2521
aS'widely'
p2522
aS'used'
p2523
aS'everywhere,'
p2524
aS'it'
p2525
aS'is'
p2526
aS'obvious'
p2527
aS'that'
p2528
aS'applications'
p2529
aS'like'
p2530
aS'these'
p2531
asS'file3.txt,line.no:122'
p2532
(lp2533
S'C.'
p2534
aS'System'
p2535
aS'Testing'
p2536
asS'file3.txt,line.no:123'
p2537
(lp2538
S'System'
p2539
aS'testing'
p2540
aS'is'
p2541
aS'the'
p2542
aS'stage'
p2543
aS'of'
p2544
aS'implementation.'
p2545
aS'Testing'
p2546
aS'is'
p2547
aS'the'
p2548
aS'process'
p2549
aS'of'
p2550
aS'executing'
p2551
ag187
asS'file3.txt,line.no:120'
p2552
(lp2553
S'Integration'
p2554
aS'tests'
p2555
aS'are'
p2556
aS'designed'
p2557
aS'to'
p2558
aS'test'
p2559
aS'integrated'
p2560
aS'software'
p2561
aS'components'
p2562
aS'to'
p2563
aS'determine'
p2564
aS'if'
p2565
aS'they'
p2566
asS'file3.txt,line.no:121'
p2567
(lp2568
S'actually'
p2569
aS'run'
p2570
aS'as'
p2571
aS'one'
p2572
aS'program.'
p2573
asS'file3.txt,line.no:126'
p2574
(lp2575
S'FUTURE'
p2576
aS'ENHANCEMENTS'
p2577
asS'file3.txt,line.no:127'
p2578
(lp2579
S'After'
p2580
aS'analyzing'
p2581
aS'the'
p2582
aS'test'
p2583
aS'results'
p2584
aS'of'
p2585
aS'the'
p2586
aS'developed'
p2587
aS'systems,'
p2588
aS'the'
p2589
aS'following'
p2590
aS'issues'
p2591
aS'are'
p2592
aS'still'
p2593
asS'file3.txt,line.no:124'
p2594
(lp2595
S'program'
p2596
aS'with'
p2597
aS'the'
p2598
aS'intent'
p2599
aS'of'
p2600
aS'finding'
p2601
aS'an'
p2602
aS'error.'
p2603
ag78
aS'good'
p2604
aS'test'
p2605
aS'case'
p2606
aS'is'
p2607
aS'one'
p2608
aS'that'
p2609
aS'has'
p2610
ag187
aS'high'
p2611
aS'probability'
p2612
aS'of'
p2613
asS'file3.txt,line.no:125'
p2614
(lp2615
S'finding'
p2616
ag187
aS'yet'
p2617
aS'undiscovered'
p2618
aS'error.'
p2619
asS'file2.txt,line.no:178'
p2620
(lp2621
S'DESC:'
p2622
aS'Socket'
p2623
aS'identifier'
p2624
asS'file2.txt,line.no:179'
p2625
(lp2626
S'Methods'
p2627
asS'file2.txt,line.no:170'
p2628
(lp2629
S'Description:'
p2630
aS'socket-client'
p2631
aS'is'
p2632
ag187
aS'library'
p2633
aS'class'
p2634
aS'that'
p2635
aS'allows'
p2636
aS'establishment'
p2637
aS'and'
p2638
aS'management'
p2639
asS'file2.txt,line.no:171'
p2640
(lp2641
S'of'
p2642
aS'the'
p2643
aS'connection'
p2644
aS'between'
p2645
aS'the'
p2646
aS'student'
p2647
aS'and'
p2648
aS'Professor'
p2649
aS'devices.'
p2650
aS'It'
p2651
aS'will'
p2652
aS'be'
p2653
aS'instantiated'
p2654
aS'on'
p2655
asS'file2.txt,line.no:172'
p2656
(lp2657
S'the'
p2658
aS'student'
p2659
aS'device'
p2660
aS'and'
p2661
aS'manage'
p2662
aS'connection'
p2663
aS'from'
p2664
aS'students'
p2665
aS'point'
p2666
aS'of'
p2667
aS'view.'
p2668
asS'file2.txt,line.no:173'
p2669
(lp2670
S'114'
p2671
aS'Object'
p2672
aS'Oriented'
p2673
aS'Model'
p2674
asS'file2.txt,line.no:174'
p2675
(lp2676
S'Attributes'
p2677
asS'file2.txt,line.no:175'
p2678
(lp2679
S'1.'
p2680
aS'private'
p2681
aS'String'
p2682
aS'url;'
p2683
asS'file2.txt,line.no:176'
p2684
(lp2685
S'DESC:'
p2686
aS'The'
p2687
aS'Address'
p2688
aS'of'
p2689
aS'the'
p2690
aS'server'
p2691
asS'file2.txt,line.no:177'
p2692
(lp2693
S'2.'
p2694
aS'private'
p2695
aS'String'
p2696
aS'socket.id;'
p2697
asS'file2.txt,line.no:69'
p2698
(lp2699
S'4.'
p2700
aS'System'
p2701
ag133
aS'Displays'
p2702
aS'the'
p2703
aS'message'
p2704
aS'if'
p2705
aS'some'
p2706
aS'of'
p2707
aS'the'
p2708
aS'required'
p2709
aS'information'
p2710
aS'has'
p2711
aS'not'
p2712
aS'been'
p2713
asS'file2.txt,line.no:68'
p2714
(lp2715
S'Scenario'
p2716
aS'3:'
p2717
aS'At'
p2718
aS'step'
p2719
ag1077
aS'of'
p2720
aS'mainline'
p2721
aS'sequence:'
p2722
asS'file2.txt,line.no:61'
p2723
(lp2724
S'1.'
p2725
aS'Professor'
p2726
ag133
aS'Select'
p2727
aS'Session'
p2728
aS'initiate'
p2729
aS'option.'
p2730
asS'file2.txt,line.no:60'
p2731
(lp2732
S'Scenario'
p2733
aS'1:'
p2734
aS'Mainline'
p2735
aS'Sequence:'
p2736
asS'file2.txt,line.no:63'
p2737
(lp2738
S'3.'
p2739
aS'Professor'
p2740
ag133
aS'Enter'
p2741
aS'the'
p2742
aS'required'
p2743
aS'values.'
p2744
asS'file2.txt,line.no:62'
p2745
(lp2746
S'2.'
p2747
aS'System'
p2748
ag133
aS'Display'
p2749
aS'prompt'
p2750
aS'to'
p2751
aS'enter'
p2752
aS'course'
p2753
aS'and'
p2754
aS'class'
p2755
aS'details.'
p2756
asS'file2.txt,line.no:65'
p2757
(lp2758
S'dress.'
p2759
asS'file2.txt,line.no:64'
p2760
(lp2761
S'4.'
p2762
aS'System'
p2763
ag133
aS'Displays'
p2764
aS'acknowledgement'
p2765
aS'of'
p2766
aS'creation'
p2767
aS'or'
p2768
aS'session'
p2769
aS'and'
p2770
aS'returns'
p2771
aS'server'
p2772
aS'ad-'
p2773
asS'file2.txt,line.no:67'
p2774
(lp2775
S'4.'
p2776
aS'System'
p2777
ag133
aS'Displays'
p2778
aS'error'
p2779
aS'if'
p2780
ag187
aS'problem'
p2781
aS'is'
p2782
aS'encountered'
p2783
aS'while'
p2784
aS'creating'
p2785
aS'the'
p2786
aS'session.'
p2787
asS'file2.txt,line.no:66'
p2788
(lp2789
S'Scenario'
p2790
aS'2:'
p2791
aS'At'
p2792
aS'step'
p2793
ag1077
aS'of'
p2794
aS'mainline'
p2795
aS'sequence:'
p2796
asS'file4.txt,line.no:16'
p2797
(lp2798
S'This'
p2799
aS'concept'
p2800
aS'is'
p2801
aS'not'
p2802
aS'new'
p2803
aS'and'
p2804
ag187
aS'lot'
p2805
aS'of'
p2806
aS'applications'
p2807
aS'involving'
p2808
aS'GPS'
p2809
aS'are'
p2810
aS'available'
p2811
aS'on'
p2812
asS'file4.txt,line.no:17'
p2813
(lp2814
S'the'
p2815
aS'market:'
p2816
aS'nowadays'
p2817
aS'almost'
p2818
aS'every'
p2819
aS'new'
p2820
aS'car'
p2821
aS'is'
p2822
aS'equipped'
p2823
aS'with'
p2824
ag187
aS'GPS'
p2825
aS'on'
p2826
aS'board'
p2827
asS'file4.txt,line.no:14'
p2828
(lp2829
S'2.'
p2830
aS'Has'
p2831
aS'link'
p2832
aS'between'
p2833
ag187
aS'GPS'
p2834
aS'device'
p2835
aS'and'
p2836
aS'its'
p2837
aS'mobile'
p2838
aS'phone.'
p2839
asS'file4.txt,line.no:15'
p2840
(lp2841
S'3.'
p2842
aS'Has'
p2843
aS'Internet'
p2844
aS'access.'
p2845
asS'file4.txt,line.no:12'
p2846
(lp2847
S'every'
p2848
aS'people'
p2849
aS'who'
p2850
aS'have'
p2851
aS'the'
p2852
aS'possibility'
p2853
aS'to'
p2854
asS'file4.txt,line.no:13'
p2855
(lp2856
S'1.'
p2857
aS'Run'
p2858
ag187
aS'small'
p2859
aS'Java'
p2860
aS'application'
p2861
aS'on'
p2862
aS'its'
p2863
aS'mobile'
p2864
aS'phone.'
p2865
asS'file4.txt,line.no:10'
p2866
(lp2867
S'The'
p2868
aS'project'
p2869
aS'is'
p2870
aS'meant'
p2871
aS'to'
p2872
aS'propose'
p2873
ag187
aS'simple'
p2874
aS'and'
p2875
aS'portable'
p2876
aS'solution'
p2877
aS'for'
p2878
aS'people'
p2879
aS'to'
p2880
aS'get'
p2881
asS'file4.txt,line.no:11'
p2882
(lp2883
S'traced'
p2884
aS'during'
p2885
ag187
aS'trip.'
p2886
aS'The'
p2887
aS'application'
p2888
aS'is'
p2889
aS'web'
p2890
aS'based'
p2891
aS'and'
p2892
aS'should'
p2893
aS'be'
p2894
aS'available'
p2895
aS'for'
p2896
asS'file2.txt,line.no:105'
p2897
(lp2898
S'Actors'
p2899
ag133
aS'Student,'
p2900
aS'Professor'
p2901
aS'(both'
p2902
aS'are'
p2903
aS'collectively'
p2904
aS'referred'
p2905
aS'to'
p2906
aS'as'
p2907
aS'the'
p2908
aS'user)'
p2909
asS'file2.txt,line.no:104'
p2910
(lp2911
S'3.5'
p2912
aS'U5:'
p2913
aS'View'
p2914
aS'Past'
p2915
aS'reports'
p2916
asS'file2.txt,line.no:107'
p2917
(lp2918
S'to'
p2919
aS'view'
p2920
aS'the'
p2921
aS'report.'
p2922
asS'file2.txt,line.no:106'
p2923
(lp2924
S'Precondition'
p2925
ag133
aS'Previous'
p2926
aS'sessions'
p2927
aS'data'
p2928
aS'has'
p2929
aS'been'
p2930
aS'recorded'
p2931
aS'and'
p2932
aS'the'
p2933
aS'user'
p2934
aS'is'
p2935
aS'logged'
p2936
aS'in'
p2937
asS'file2.txt,line.no:101'
p2938
(lp2939
S'sends'
p2940
aS'the'
p2941
aS'message'
p2942
aS'to'
p2943
aS'professor.'
p2944
asS'file2.txt,line.no:100'
p2945
(lp2946
S'1.'
p2947
aS'System'
p2948
ag133
aS'Checks'
p2949
aS'sensor'
p2950
aS'data'
p2951
aS'and'
p2952
aS'determines'
p2953
aS'that'
p2954
aS'the'
p2955
aS'student'
p2956
aS'is'
p2957
aS'attentive'
p2958
aS'and'
p2959
asS'file2.txt,line.no:103'
p2960
(lp2961
S'83'
p2962
aS'Use'
p2963
aS'Cases'
p2964
asS'file2.txt,line.no:102'
p2965
(lp2966
S'2.'
p2967
aS'Professor'
p2968
ag133
aS'Receives'
p2969
aS'the'
p2970
aS'total'
p2971
aS'count'
p2972
aS'of'
p2973
aS'the'
p2974
aS'students'
p2975
aS'paying'
p2976
aS'attention'
p2977
asS'file2.txt,line.no:87'
p2978
(lp2979
S'5.'
p2980
aS'Student'
p2981
ag133
aS'Rejects'
p2982
aS'the'
p2983
aS'permission'
p2984
aS'to'
p2985
aS'monitor'
p2986
aS'sensors.'
p2987
asS'file2.txt,line.no:86'
p2988
(lp2989
S'Scenario'
p2990
aS'3:'
p2991
aS'At'
p2992
aS'step'
p2993
aS'5'
p2994
aS'of'
p2995
aS'mainline'
p2996
aS'sequence:'
p2997
asS'file2.txt,line.no:85'
p2998
(lp2999
S'prompts'
p3000
aS'to'
p3001
aS're'
p3002
aS'enter'
p3003
aS'the'
p3004
aS'session'
p3005
aS'address.'
p3006
asS'file2.txt,line.no:84'
p3007
(lp3008
S'4.'
p3009
aS'System'
p3010
ag133
aS'Shows'
p3011
aS'an'
p3012
aS'error'
p3013
aS'message'
p3014
aS'when'
p3015
aS'he'
p3016
aS'enters'
p3017
aS'an'
p3018
aS'incorrect'
p3019
aS'session'
p3020
aS'address'
p3021
aS'and'
p3022
asS'file2.txt,line.no:83'
p3023
(lp3024
S'Scenario'
p3025
aS'2:'
p3026
aS'At'
p3027
aS'step'
p3028
ag1077
aS'of'
p3029
aS'mainline'
p3030
aS'sequence:'
p3031
asS'file2.txt,line.no:82'
p3032
(lp3033
S'5.'
p3034
aS'Student'
p3035
ag133
aS'The'
p3036
aS'student'
p3037
aS'accepts'
p3038
aS'the'
p3039
aS'request'
p3040
aS'for'
p3041
aS'permission'
p3042
aS'to'
p3043
aS'monitor'
p3044
aS'sensors.'
p3045
asS'file2.txt,line.no:81'
p3046
(lp3047
S'permission'
p3048
aS'to'
p3049
aS'monitor'
p3050
aS'the'
p3051
aS'sensors.'
p3052
asS'file2.txt,line.no:80'
p3053
(lp3054
S'4.'
p3055
aS'System'
p3056
ag133
aS'Shows'
p3057
ag187
aS'message'
p3058
aS'acknowledging'
p3059
aS'joining'
p3060
aS'the'
p3061
aS'session'
p3062
aS'and'
p3063
aS'requests'
p3064
aS'for'
p3065
asS'file4.txt,line.no:19'
p3066
(lp3067
S'The'
p3068
aS'concept'
p3069
aS'of'
p3070
aS'this'
p3071
aS'project'
p3072
aS'is'
p3073
ag187
aS'bit'
p3074
aS'different.'
p3075
aS'We'
p3076
aS'are'
p3077
aS'not'
p3078
aS'focusing'
p3079
aS'on'
p3080
aS'\xe2\x80\x9dwhere'
p3081
aS'are'
p3082
asS'file2.txt,line.no:89'
p3083
(lp3084
S'3.4'
p3085
aS'U4:'
p3086
aS'Monitor'
p3087
aS'Attention'
p3088
aS'Detail'
p3089
asS'file2.txt,line.no:88'
p3090
(lp3091
S'6.'
p3092
aS'System'
p3093
ag133
aS'Sends'
p3094
ag187
aS'message'
p3095
aS'to'
p3096
aS'the'
p3097
aS'professor'
p3098
aS'showing'
p3099
ag187
aS'student'
p3100
aS'has'
p3101
aS'not'
p3102
aS'accepted'
p3103
asS'file2.txt,line.no:18'
p3104
(lp3105
S'pooling'
p3106
aS'will'
p3107
aS'be'
p3108
aS'used'
p3109
aS'to'
p3110
aS'update'
p3111
aS'this'
p3112
aS'database'
p3113
aS'when'
p3114
aS'students\xe2\x80\x99'
p3115
aS'device'
p3116
aS'emit'
p3117
aS'socket'
p3118
aS'message'
p3119
asS'file2.txt,line.no:19'
p3120
(lp3121
S'to'
p3122
aS'the'
p3123
aS'professors'
p3124
aS'device.'
p3125
asS'file2.txt,line.no:14'
p3126
(lp3127
S'orientation,'
p3128
aS'this'
p3129
aS'will'
p3130
aS'be'
p3131
aS'done'
p3132
aS'by'
p3133
aS'using'
p3134
aS'the'
p3135
aS'sensors:'
p3136
aS'gyroscope,'
p3137
aS'accelerometer,'
p3138
aS'proximity'
p3139
asS'file2.txt,line.no:15'
p3140
(lp3141
S'sensor'
p3142
aS'which'
p3143
aS'will'
p3144
aS'be'
p3145
aS'interfaced'
p3146
aS'using'
p3147
aS'the'
p3148
aS'Android'
p3149
aS'Sensor'
p3150
aS'Manager'
p3151
aS'Library.'
p3152
asS'file2.txt,line.no:16'
p3153
(lp3154
S'2.4.3'
p3155
aS'Software'
p3156
aS'Interfaces'
p3157
asS'file2.txt,line.no:17'
p3158
(lp3159
S'The'
p3160
aS'sensor'
p3161
aS'data'
p3162
aS'collected'
p3163
aS'will'
p3164
aS'be'
p3165
aS'stored'
p3166
aS'in'
p3167
ag187
aS'relational'
p3168
aS'MySQL'
p3169
aS'database.'
p3170
aS'Node-mysql'
p3171
asS'file2.txt,line.no:10'
p3172
(lp3173
S'between'
p3174
aS'their'
p3175
aS'devices.'
p3176
aS'Thereafter'
p3177
aS'the'
p3178
aS'instructor'
p3179
aS'will'
p3180
aS'be'
p3181
aS'able'
p3182
aS'to'
p3183
aS'get'
p3184
aS'real'
p3185
aS'time'
p3186
aS'statistics'
p3187
asS'file2.txt,line.no:11'
p3188
(lp3189
S'of'
p3190
aS'the'
p3191
aS'attention'
p3192
aS'span'
p3193
aS'of'
p3194
aS'the'
p3195
aS'attendees.'
p3196
asS'file2.txt,line.no:12'
p3197
(lp3198
S'2.4.2'
p3199
aS'Hardware'
p3200
aS'Interfaces'
p3201
asS'file2.txt,line.no:13'
p3202
(lp3203
S'The'
p3204
aS'devices'
p3205
aS'carried'
p3206
aS'by'
p3207
aS'the'
p3208
aS'students'
p3209
aS'need'
p3210
aS'to'
p3211
aS'measure'
p3212
aS'the'
p3213
aS'shaking'
p3214
aS'frequency,'
p3215
aS'distance'
p3216
aS'and'
p3217
asS'file2.txt,line.no:206'
p3218
(lp3219
S'Description:'
p3220
aS'Manages'
p3221
aS'the'
p3222
aS'sensor'
p3223
aS'data'
p3224
aS'and'
p3225
aS'takes'
p3226
aS'actions'
p3227
aS'appropriate'
p3228
aS'to'
p3229
aS'the'
p3230
aS'recordings.'
p3231
asS'file2.txt,line.no:207'
p3232
(lp3233
S'124'
p3234
aS'Object'
p3235
aS'Oriented'
p3236
aS'Model'
p3237
asS'file2.txt,line.no:204'
p3238
(lp3239
S'DESC:'
p3240
aS'The'
p3241
aS'Gyroscope'
p3242
aS'reading'
p3243
asS'file2.txt,line.no:205'
p3244
(lp3245
S'4.3.4'
p3246
aS'Monitor'
p3247
asS'file2.txt,line.no:202'
p3248
(lp3249
S'DESC:'
p3250
aS'The'
p3251
aS'Proximity'
p3252
aS'Sensor'
p3253
aS'reading'
p3254
asS'file2.txt,line.no:203'
p3255
(lp3256
S'3.'
p3257
aS'public'
p3258
aS'float'
p3259
aS'rotationMatrix[16];'
p3260
asS'file2.txt,line.no:200'
p3261
(lp3262
S'DESC:'
p3263
aS'The'
p3264
aS'Accelerometer'
p3265
aS'reading'
p3266
asS'file2.txt,line.no:201'
p3267
(lp3268
S'2.'
p3269
aS'public'
p3270
aS'float'
p3271
aS'proximityData;'
p3272
asS'file3.txt,line.no:80'
p3273
(lp3274
S'B.'
p3275
aS'Client'
p3276
asS'file3.txt,line.no:81'
p3277
(lp3278
S'The'
p3279
aS'below'
p3280
aS'figure'
p3281
ag1077
aS'represents'
p3282
aS'the'
p3283
aS'flow'
p3284
aS'of'
p3285
aS'actions'
p3286
aS'of'
p3287
aS'client.'
p3288
asS'file3.txt,line.no:82'
p3289
(lp3290
S'Figure'
p3291
aS'4:'
p3292
aS'Flow'
p3293
aS'Diagram'
p3294
aS'of'
p3295
aS'client'
p3296
aS'application'
p3297
asS'file3.txt,line.no:83'
p3298
(lp3299
S'Client'
p3300
aS'has'
p3301
aS'to'
p3302
aS'enter'
p3303
aS'the'
p3304
aS'register'
p3305
aS'number'
p3306
aS'and'
p3307
aS'mobile'
p3308
aS'number'
p3309
aS'to'
p3310
aS'login'
p3311
aS'the'
p3312
aS'application.'
p3313
aS'To'
p3314
asS'file3.txt,line.no:84'
p3315
(lp3316
S'search'
p3317
aS'for'
p3318
ag187
aS'bus,'
p3319
aS'client'
p3320
aS'has'
p3321
aS'to'
p3322
aS'enter'
p3323
aS'the'
p3324
aS'bus'
p3325
aS'number'
p3326
aS'in'
p3327
aS'the'
p3328
aS'search'
p3329
aS'bar.'
p3330
aS'Then'
p3331
aS'map'
p3332
aS'is'
p3333
aS'displayed'
p3334
asS'file3.txt,line.no:85'
p3335
(lp3336
S'which'
p3337
aS'shows'
p3338
aS'the'
p3339
aS'current'
p3340
aS'location'
p3341
aS'of'
p3342
aS'the'
p3343
aS'bus.'
p3344
aS'He'
p3345
aS'can'
p3346
aS'also'
p3347
aS'receive'
p3348
aS'an'
p3349
aS'alert'
p3350
aS'notification'
p3351
aS'when'
p3352
aS'the'
p3353
asS'file2.txt,line.no:208'
p3354
(lp3355
S'Attributes'
p3356
asS'file2.txt,line.no:209'
p3357
(lp3358
S'1.'
p3359
aS'private'
p3360
aS'SensorManager'
p3361
aS'sm;'
p3362
asS'file3.txt,line.no:75'
p3363
(lp3364
S'new'
p3365
aS'student'
p3366
aS'details'
p3367
aS'and'
p3368
aS'can'
p3369
aS'view'
p3370
aS'the'
p3371
aS'list'
p3372
aS'of'
p3373
aS'students.'
p3374
aS'He'
p3375
aS'has'
p3376
aS'the'
p3377
aS'options'
p3378
aS'to'
p3379
aS'add'
p3380
aS'or'
p3381
aS'remove'
p3382
ag187
asS'file3.txt,line.no:74'
p3383
(lp3384
S'driver'
p3385
aS'then'
p3386
aS'he'
p3387
aS'can'
p3388
aS'send'
p3389
aS'the'
p3390
aS'message'
p3391
aS'to'
p3392
aS'the'
p3393
aS'driver\xe2\x80\x99s'
p3394
aS'mobile'
p3395
aS'via'
p3396
aS'the'
p3397
aS'browser.'
p3398
aS'He'
p3399
aS'can'
p3400
aS'also'
p3401
aS'enter'
p3402
asS'file3.txt,line.no:77'
p3403
(lp3404
S'Figure'
p3405
aS'3:'
p3406
aS'Admin'
p3407
aS'home'
p3408
aS'page'
p3409
asS'file3.txt,line.no:76'
p3410
(lp3411
S'student'
p3412
aS'details.'
p3413
aS'The'
p3414
aS'below'
p3415
aS'figure'
p3416
ag489
aS'shows'
p3417
aS'the'
p3418
aS'home'
p3419
aS'page'
p3420
aS'of'
p3421
aS'admin.'
p3422
asS'file3.txt,line.no:71'
p3423
(lp3424
S'enter'
p3425
aS'new'
p3426
aS'route'
p3427
aS'details'
p3428
aS'and'
p3429
aS'also'
p3430
aS'he'
p3431
aS'can'
p3432
aS'select'
p3433
aS'the'
p3434
aS'route'
p3435
aS'from'
p3436
aS'the'
p3437
aS'list'
p3438
aS'of'
p3439
aS'routes'
p3440
aS'and'
p3441
aS'then'
p3442
aS'the'
p3443
asS'file3.txt,line.no:70'
p3444
(lp3445
S'Admin'
p3446
aS'can'
p3447
aS'login'
p3448
aS'to'
p3449
aS'the'
p3450
aS'admin'
p3451
aS'account'
p3452
aS'after'
p3453
aS'authentication'
p3454
aS'and'
p3455
aS'authorization.'
p3456
aS'He'
p3457
aS'can'
p3458
asS'file3.txt,line.no:73'
p3459
(lp3460
S'option'
p3461
aS'to'
p3462
aS'modify'
p3463
aS'or'
p3464
aS'remove'
p3465
ag187
aS'stop'
p3466
aS'from'
p3467
aS'the'
p3468
aS'route.'
p3469
aS'If'
p3470
aS'admin'
p3471
aS'want'
p3472
aS'to'
p3473
aS'say'
p3474
aS'any'
p3475
aS'information'
p3476
aS'to'
p3477
aS'the'
p3478
asS'file3.txt,line.no:72'
p3479
(lp3480
S'corresponding'
p3481
aS'stops'
p3482
aS'are'
p3483
aS'displayed.'
p3484
aS'He'
p3485
aS'has'
p3486
aS'the'
p3487
aS'options'
p3488
aS'to'
p3489
aS'add'
p3490
aS'or'
p3491
aS'remove'
p3492
ag187
aS'route.'
p3493
aS'He'
p3494
aS'also'
p3495
aS'has'
p3496
aS'the'
p3497
asS'file3.txt,line.no:79'
p3498
(lp3499
S'503G.'
p3500
aS'Jemilda'
p3501
aS'et'
p3502
aS'al,'
p3503
aS'International'
p3504
aS'Journal'
p3505
aS'of'
p3506
aS'Computer'
p3507
aS'Science'
p3508
aS'and'
p3509
aS'Mobile'
p3510
aS'Computing,'
p3511
aS'Vol.4'
p3512
aS'Issue.3,'
p3513
aS'March-'
p3514
aS'2015,'
p3515
aS'pg.'
p3516
aS'500-507'
p3517
asS'file3.txt,line.no:78'
p3518
(lp3519
S'\xc2\xa9'
p3520
aS'2015,'
p3521
aS'IJCSMC'
p3522
aS'All'
p3523
aS'Rights'
p3524
aS'Reserved'
p3525
asS'file2.txt,line.no:196'
p3526
(lp3527
S'4.3.3'
p3528
aS'SensorData'
p3529
asS'file2.txt,line.no:197'
p3530
(lp3531
S'Description:'
p3532
aS'The'
p3533
aS'sensor'
p3534
aS'data'
p3535
aS'recordings'
p3536
aS'encapsulation.'
p3537
asS'file2.txt,line.no:194'
p3538
(lp3539
S'OUTPUT:'
p3540
aS'Void'
p3541
asS'file2.txt,line.no:195'
p3542
(lp3543
S'DESC:'
p3544
aS'Sends'
p3545
aS'the'
p3546
aS'message'
p3547
aS'string'
p3548
aS'to'
p3549
aS'Instructor'
p3550
asS'file2.txt,line.no:192'
p3551
(lp3552
S'4.'
p3553
aS'public'
p3554
aS'void'
p3555
aS'emit(string);'
p3556
aS'[7]'
p3557
asS'file2.txt,line.no:193'
p3558
(lp3559
S'INPUT:'
p3560
aS'Message'
p3561
aS'string'
p3562
asS'file2.txt,line.no:190'
p3563
(lp3564
S'OUTPUT:'
p3565
aS'Void'
p3566
asS'file2.txt,line.no:191'
p3567
(lp3568
S'DESC:'
p3569
aS'Informs'
p3570
aS'student'
p3571
aS'about'
p3572
aS'connection'
p3573
aS'problem.'
p3574
asS'file2.txt,line.no:198'
p3575
(lp3576
S'Attributes'
p3577
asS'file2.txt,line.no:199'
p3578
(lp3579
S'1.'
p3580
aS'public'
p3581
aS'float'
p3582
aS'accelGravityData[3];'
p3583
aS'[9]'
p3584
asS'file3.txt,line.no:153'
p3585
(lp3586
S'[4]'
p3587
aS'J.F.'
p3588
aS'DiMarzio,'
p3589
aS'Android'
p3590
ag78
aS'Programmer\xe2\x80\x99s'
p3591
aS'Guide,'
p3592
aS'Chicago:'
p3593
aS'McGraw-Hill,'
p3594
aS'Jul.'
p3595
aS'2008.'
p3596
asS'file3.txt,line.no:152'
p3597
(lp3598
S'Android'
p3599
aS'Application'
p3600
aS'Development:'
p3601
aS'an'
p3602
aS'Experience'
p3603
aS'Report\xe2\x80\x9d,'
p3604
aS'MIPRO'
p3605
aS'2011,'
p3606
aS'May'
p3607
aS'23-27,'
p3608
aS'2011.'
p3609
asS'file3.txt,line.no:151'
p3610
(lp3611
S'[3]'
p3612
aS'RobiGrgurina,'
p3613
aS'Goran'
p3614
aS'Brestovac'
p3615
aS'and'
p3616
aS'TihanaGalinacGrbac,'
p3617
aS'\xe2\x80\x9cDevelopment'
p3618
aS'Environment'
p3619
aS'for'
p3620
asS'file3.txt,line.no:150'
p3621
(lp3622
S'International'
p3623
aS'Conference'
p3624
aS'on'
p3625
aS'sensing,'
p3626
aS'Communication'
p3627
aS'and'
p3628
aS'networking.'
p3629
asS'file3.txt,line.no:156'
p3630
(lp3631
S'507'
p3632
asS'file3.txt,line.no:155'
p3633
(lp3634
S'\xc2\xa9'
p3635
aS'2015,'
p3636
aS'IJCSMC'
p3637
aS'All'
p3638
aS'Rights'
p3639
aS'Reserved'
p3640
asS'file3.txt,line.no:154'
p3641
(lp3642
S'[5]'
p3643
aS'Android'
p3644
aS'Developers,'
p3645
aS'http://www.androidin.com/.'
p3646
asS'file2.txt,line.no:141'
p3647
(lp3648
S'DESC:'
p3649
aS'This'
p3650
aS'object'
p3651
aS'controls'
p3652
aS'the'
p3653
aS'activities'
p3654
aS'related'
p3655
aS'to'
p3656
aS'the'
p3657
aS'sensor'
p3658
aS'data'
p3659
asS'file2.txt,line.no:140'
p3660
(lp3661
S'1.'
p3662
aS'private'
p3663
aS'Monitor'
p3664
aS'monitor;'
p3665
asS'file2.txt,line.no:143'
p3666
(lp3667
S'DESC:'
p3668
aS'This'
p3669
aS'is'
p3670
ag187
aS'reference'
p3671
aS'to'
p3672
aS'the'
p3673
aS'class'
p3674
aS'that'
p3675
aS'manages'
p3676
aS'the'
p3677
aS'connections'
p3678
aS'between'
p3679
aS'the'
p3680
asS'file2.txt,line.no:142'
p3681
(lp3682
S'2.'
p3683
aS'public'
p3684
aS'Socket'
p3685
aS'socket;'
p3686
asS'file2.txt,line.no:145'
p3687
(lp3688
S'3.'
p3689
aS'public'
p3690
aS'Student'
p3691
aS'stud;'
p3692
asS'file2.txt,line.no:144'
p3693
(lp3694
S'student'
p3695
aS'and'
p3696
aS'instructor'
p3697
aS'devices'
p3698
asS'file2.txt,line.no:147'
p3699
(lp3700
S'4.'
p3701
aS'public'
p3702
aS'View'
p3703
aS'view;'
p3704
asS'file2.txt,line.no:146'
p3705
(lp3706
S'DESC:'
p3707
aS'It'
p3708
aS'stores'
p3709
aS'the'
p3710
aS'details'
p3711
aS'of'
p3712
aS'the'
p3713
aS'student.'
p3714
asS'file2.txt,line.no:149'
p3715
(lp3716
S'on'
p3717
aS'students\xe2\x80\x99'
p3718
aS'devices.'
p3719
asS'file2.txt,line.no:148'
p3720
(lp3721
S'DESC:'
p3722
aS'It'
p3723
aS'is'
p3724
ag187
aS'reference'
p3725
aS'to'
p3726
aS'the'
p3727
aS'UI'
p3728
aS'elements'
p3729
aS'present'
p3730
aS'in'
p3731
aS'the'
p3732
aS'mobile'
p3733
aS'application'
p3734
aS'running'
p3735
asS'file3.txt,line.no:98'
p3736
(lp3737
S'Figure'
p3738
aS'6:'
p3739
aS'Flow'
p3740
aS'Diagram'
p3741
aS'of'
p3742
aS'Driver'
p3743
aS'Application'
p3744
asS'file2.txt,line.no:50'
p3745
(lp3746
S'63'
p3747
aS'Use'
p3748
aS'Cases'
p3749
asS'file2.txt,line.no:51'
p3750
(lp3751
S'2.'
p3752
aS'System'
p3753
ag133
aS'Prompts'
p3754
aS'to'
p3755
aS'enter'
p3756
aS'details.'
p3757
asS'file2.txt,line.no:52'
p3758
(lp3759
S'3.'
p3760
aS'User'
p3761
ag133
aS'Enter'
p3762
aS'the'
p3763
aS'details'
p3764
aS'i.e'
p3765
aS'username'
p3766
aS'and'
p3767
aS'password.'
p3768
asS'file2.txt,line.no:53'
p3769
(lp3770
S'4.'
p3771
aS'System'
p3772
ag133
aS'Displays'
p3773
aS'Login'
p3774
aS'acknowledgement'
p3775
aS'and'
p3776
aS'available'
p3777
aS'options.'
p3778
asS'file2.txt,line.no:54'
p3779
(lp3780
S'Scenario'
p3781
aS'2:'
p3782
aS'At'
p3783
aS'step'
p3784
ag1077
aS'in'
p3785
aS'mainline:'
p3786
asS'file2.txt,line.no:55'
p3787
(lp3788
S'4.'
p3789
aS'System'
p3790
ag133
aS'Indicates'
p3791
aS'error'
p3792
aS'in'
p3793
aS'case'
p3794
aS'of'
p3795
aS'incorrect'
p3796
aS'and/or'
p3797
aS'empty'
p3798
aS'username'
p3799
aS'and'
p3800
aS'password'
p3801
asS'file2.txt,line.no:56'
p3802
(lp3803
S'combination.'
p3804
asS'file2.txt,line.no:57'
p3805
(lp3806
S'3.2'
p3807
aS'U2:'
p3808
aS'Initiate'
p3809
aS'Session'
p3810
asS'file2.txt,line.no:58'
p3811
(lp3812
S'Actors'
p3813
ag133
aS'Professor'
p3814
asS'file2.txt,line.no:59'
p3815
(lp3816
S'Precondition'
p3817
ag133
aS'The'
p3818
aS'professor'
p3819
aS'has'
p3820
aS'logged'
p3821
aS'in'
p3822
aS'with'
p3823
aS'his'
p3824
aS'credentials.'
p3825
asS'file3.txt,line.no:88'
p3826
(lp3827
S'and'
p3828
aS'binds'
p3829
aS'it'
p3830
aS'to'
p3831
aS'the'
p3832
aS'spinner'
p3833
aS'for'
p3834
aS'the'
p3835
aS'client'
p3836
aS'to'
p3837
aS'select'
p3838
aS'it.'
p3839
aS'When'
p3840
aS'the'
p3841
aS'client'
p3842
aS'selects'
p3843
ag187
aS'route,'
p3844
asS'file2.txt,line.no:248'
p3845
(lp3846
S'CALLED'
p3847
aS'BY:'
p3848
aS'UI'
p3849
aS'Event'
p3850
aS'Listener'
p3851
ag60
aS'Trigger'
p3852
aS'by'
p3853
aS'professor'
p3854
aS'to'
p3855
aS'start'
p3856
aS'server.'
p3857
asS'file2.txt,line.no:249'
p3858
(lp3859
S'DESC:'
p3860
aS'Establishes'
p3861
aS'the'
p3862
aS'socket'
p3863
aS'Server'
p3864
aS'to'
p3865
aS'w'
p3866
asS'file3.txt,line.no:89'
p3867
(lp3868
S'corresponding'
p3869
aS'stops'
p3870
aS'are'
p3871
aS'fetched'
p3872
aS'from'
p3873
aS'the'
p3874
aS'server'
p3875
aS'and'
p3876
aS'binded'
p3877
aS'to'
p3878
aS'the'
p3879
aS'spinner'
p3880
aS'for'
p3881
aS'the'
p3882
aS'client'
p3883
aS'to'
p3884
aS'select.'
p3885
asS'file2.txt,line.no:242'
p3886
(lp3887
S'1.'
p3888
aS'private'
p3889
aS'String'
p3890
aS'socketId;'
p3891
asS'file2.txt,line.no:243'
p3892
(lp3893
S'DESC:'
p3894
aS'Socket'
p3895
aS'identifier'
p3896
asS'file2.txt,line.no:240'
p3897
(lp3898
S'134'
p3899
aS'Object'
p3900
aS'Oriented'
p3901
aS'Model'
p3902
asS'file2.txt,line.no:241'
p3903
(lp3904
S'Attributes'
p3905
asS'file2.txt,line.no:246'
p3906
(lp3907
S'Methods'
p3908
asS'file2.txt,line.no:247'
p3909
(lp3910
S'1.'
p3911
aS'public'
p3912
aS'Constructor:'
p3913
aS'Socket();'
p3914
asS'file2.txt,line.no:244'
p3915
(lp3916
S'2.'
p3917
aS'private'
p3918
aS'Client'
p3919
aS'socketClient;'
p3920
asS'file2.txt,line.no:245'
p3921
(lp3922
S'DESC:'
p3923
ag78
aS'reference'
p3924
aS'to'
p3925
aS'the'
p3926
aS'underlying'
p3927
aS'Client'
p3928
aS'object.'
p3929
aS'[8]'
p3930
asS'file3.txt,line.no:48'
p3931
(lp3932
S'the'
p3933
aS'level'
p3934
aS'of'
p3935
aS'privacy'
p3936
aS'disclosure'
p3937
aS'with'
p3938
aS'different'
p3939
aS'quality'
p3940
aS'of'
p3941
aS'location-based'
p3942
aS'service'
p3943
aS'(LBS).'
p3944
aS'We'
p3945
aS'have'
p3946
asS'file3.txt,line.no:49'
p3947
(lp3948
S'identified'
p3949
aS'key'
p3950
aS'attack'
p3951
aS'models'
p3952
aS'on'
p3953
aS'location'
p3954
aS'tracking'
p3955
aS'using'
p3956
aS'powerful'
p3957
aS'map-'
p3958
aS'matching'
p3959
asS'file3.txt,line.no:44'
p3960
(lp3961
S'location'
p3962
aS'leads'
p3963
aS'to'
p3964
aS'disclosing'
p3965
aS'sensitive'
p3966
aS'information'
p3967
aS'about'
p3968
aS'the'
p3969
aS'Users'
p3970
aS'daily'
p3971
aS'activity.'
p3972
aS'Several'
p3973
aS'location'
p3974
asS'file3.txt,line.no:45'
p3975
(lp3976
S'privacy-preserving'
p3977
aS'schemes'
p3978
aS'have'
p3979
aS'been'
p3980
aS'proposed,'
p3981
aS'but'
p3982
aS'it'
p3983
aS'remains'
p3984
aS'challenging'
p3985
aS'for'
p3986
ag187
aS'user'
p3987
aS'to'
p3988
aS'achieve'
p3989
asS'file3.txt,line.no:46'
p3990
(lp3991
S'visibility'
p3992
aS'of'
p3993
aS'the'
p3994
aS'associated'
p3995
aS'threats'
p3996
aS'as'
p3997
aS'well'
p3998
aS'as'
p3999
aS'to'
p4000
aS'control'
p4001
aS'the'
p4002
aS'impact'
p4003
aS'of'
p4004
aS'those'
p4005
aS'threats.'
p4006
aS'This'
p4007
aS'paper'
p4008
asS'file3.txt,line.no:47'
p4009
(lp4010
S'presents'
p4011
aS'an'
p4012
aS'adaptive'
p4013
aS'location'
p4014
aS'privacy-preserving'
p4015
aS'system'
p4016
aS'(ALPS)'
p4017
aS'that'
p4018
aS'allows'
p4019
aS'for'
p4020
ag187
aS'user'
p4021
aS'to'
p4022
aS'control'
p4023
asS'file3.txt,line.no:40'
p4024
(lp4025
S'II.'
p4026
asS'file3.txt,line.no:41'
p4027
(lp4028
S'LITERATURE'
p4029
aS'REVIEW'
p4030
asS'file3.txt,line.no:42'
p4031
(lp4032
S'Jindan'
p4033
aS'Zhu'
p4034
aS'et'
p4035
aS'al.'
p4036
aS'discussed'
p4037
aS'that'
p4038
aS'many'
p4039
aS'popular'
p4040
aS'mobile'
p4041
aS'applications'
p4042
aS'require'
p4043
aS'the'
p4044
asS'file3.txt,line.no:43'
p4045
(lp4046
S'continuous'
p4047
aS'monitoring'
p4048
aS'and'
p4049
aS'sharing'
p4050
aS'of'
p4051
ag187
aS'mobile'
p4052
aS'User\xe2\x80\x99s'
p4053
aS'location.'
p4054
aS'However,'
p4055
aS'exploiting'
p4056
ag187
aS'user\xe2\x80\x99s'
p4057
asS'file3.txt,line.no:39'
p4058
(lp4059
S'station'
p4060
aS'and'
p4061
aS'other'
p4062
aS'places'
p4063
aS'of'
p4064
aS'interests.'
p4065
asS'file3.txt,line.no:38'
p4066
(lp4067
S'nearest'
p4068
aS'establishment'
p4069
aS'that'
p4070
aS'they'
p4071
aS'want'
p4072
aS'to'
p4073
aS'look'
p4074
aS'for'
p4075
aS'such'
p4076
aS'as'
p4077
aS'restaurants,'
p4078
aS'hotels,'
p4079
aS'malls,'
p4080
aS'bank,'
p4081
aS'police'
p4082
asS'file3.txt,line.no:31'
p4083
(lp4084
S'tracking'
p4085
aS'of'
p4086
ag187
aS'mobile'
p4087
aS'user'
p4088
aS'that'
p4089
aS'can'
p4090
aS'be'
p4091
aS'potentially'
p4092
aS'used'
p4093
aS'by'
p4094
aS'privacy'
p4095
aS'adversaries'
p4096
aS'to'
p4097
aS'accurately'
p4098
asS'file3.txt,line.no:30'
p4099
(lp4100
S'For'
p4101
aS'instance,'
p4102
aS'authors'
p4103
aS'in'
p4104
aS'[1]'
p4105
aS'propose'
p4106
aS'an'
p4107
aS'accurate'
p4108
aS'map-matching'
p4109
aS'algorithm'
p4110
aS'for'
p4111
aS'location'
p4112
asS'file3.txt,line.no:33'
p4113
(lp4114
S'\xc2\xa9'
p4115
aS'2015,'
p4116
aS'IJCSMC'
p4117
aS'All'
p4118
aS'Rights'
p4119
aS'Reserved'
p4120
asS'file3.txt,line.no:32'
p4121
(lp4122
S'reconstruct'
p4123
ag187
aS'user\xe2\x80\x99s'
p4124
aS'actual'
p4125
aS'trace.'
p4126
asS'file3.txt,line.no:35'
p4127
(lp4128
S'Mobile'
p4129
aS'phones'
p4130
aS'are'
p4131
aS'now'
p4132
aS'equipped'
p4133
aS'with'
p4134
aS'navigation'
p4135
aS'systems'
p4136
aS'such'
p4137
aS'as'
p4138
aS'GPS'
p4139
aS'or'
p4140
aS'Global'
p4141
asS'file3.txt,line.no:34'
p4142
(lp4143
S'500G.'
p4144
aS'Jemilda'
p4145
aS'et'
p4146
aS'al,'
p4147
aS'International'
p4148
aS'Journal'
p4149
aS'of'
p4150
aS'Computer'
p4151
aS'Science'
p4152
aS'and'
p4153
aS'Mobile'
p4154
aS'Computing,'
p4155
aS'Vol.4'
p4156
aS'Issue.3,'
p4157
aS'March-'
p4158
aS'2015,'
p4159
aS'pg.'
p4160
aS'500-507'
p4161
asS'file3.txt,line.no:37'
p4162
(lp4163
S'accurate'
p4164
aS'view'
p4165
aS'on'
p4166
aS'their'
p4167
aS'present'
p4168
aS'location.'
p4169
aS'Not'
p4170
aS'only'
p4171
aS'that,'
p4172
aS'it'
p4173
aS'also'
p4174
aS'assists'
p4175
aS'them'
p4176
aS'in'
p4177
aS'searching'
p4178
aS'for'
p4179
aS'the'
p4180
asS'file3.txt,line.no:36'
p4181
(lp4182
S'Position'
p4183
aS'Satellite'
p4184
aS'that'
p4185
aS'aids'
p4186
aS'travelers,'
p4187
aS'tourists,'
p4188
aS'adventurers'
p4189
aS'and'
p4190
aS'navigators'
p4191
aS'on'
p4192
aS'getting'
p4193
aS'the'
p4194
aS'most'
p4195
asS'file4.txt,line.no:49'
p4196
(lp4197
S'the'
p4198
aS'system'
p4199
aS'first.'
p4200
aS'The'
p4201
aS'application'
p4202
aS'will'
p4203
aS'offer'
p4204
ag187
aS'web'
p4205
aS'interface'
p4206
aS'to'
p4207
aS'enter'
p4208
aS'the'
p4209
aS'following'
p4210
asS'file4.txt,line.no:48'
p4211
(lp4212
S'Creation'
p4213
aS'of'
p4214
aS'users.'
p4215
aS'Any'
p4216
aS'user'
p4217
aS'who'
p4218
aS'wants'
p4219
aS'to'
p4220
aS'be'
p4221
aS'followed'
p4222
aS'needs'
p4223
aS'to'
p4224
aS'be'
p4225
aS'register'
p4226
aS'in'
p4227
asS'file4.txt,line.no:45'
p4228
(lp4229
S'with'
p4230
aS'the'
p4231
aS'user'
p4232
aS'Id'
p4233
aS'1.'
p4234
aS'It'
p4235
aS'can'
p4236
aS'do'
p4237
aS'exactly'
p4238
aS'what'
p4239
ag187
aS'standard'
p4240
aS'user'
p4241
aS'can'
p4242
aS'do'
p4243
aS'but'
p4244
aS'has'
p4245
aS'special'
p4246
asS'file4.txt,line.no:44'
p4247
(lp4248
S'Within'
p4249
aS'the'
p4250
ag489
aS'actors,'
p4251
aS'the'
p4252
aS'manager'
p4253
aS'has'
p4254
ag187
aS'special'
p4255
aS'role'
p4256
aS'and'
p4257
aS'is'
p4258
aS'automatically'
p4259
aS'created'
p4260
asS'file4.txt,line.no:47'
p4261
(lp4262
S'The'
p4263
aS'application'
p4264
aS'will'
p4265
aS'allow'
p4266
aS'to'
p4267
aS'do:'
p4268
asS'file4.txt,line.no:46'
p4269
(lp4270
S'rights'
p4271
aS'that'
p4272
aS'the'
p4273
aS'others'
p4274
aS'don\xe2\x80\x99t'
p4275
aS'have.'
p4276
asS'file4.txt,line.no:41'
p4277
(lp4278
S'5application.'
p4279
aS'We'
p4280
aS'will'
p4281
aS'see'
p4282
aS'in'
p4283
aS'the'
p4284
aS'architecture'
p4285
aS'what'
p4286
aS'is'
p4287
aS'done'
p4288
aS'where'
p4289
aS'(mobile'
p4290
aS'vs'
p4291
asS'file4.txt,line.no:40'
p4292
(lp4293
S'application).'
p4294
aS'The'
p4295
aS'use'
p4296
aS'case'
p4297
aS'Send'
p4298
ag187
aS'position'
p4299
aS'is'
p4300
aS'only'
p4301
aS'available'
p4302
aS'from'
p4303
aS'the'
p4304
aS'mobile'
p4305
asS'file4.txt,line.no:43'
p4306
(lp4307
S'now'
p4308
aS'described'
p4309
aS'formally.'
p4310
asS'file4.txt,line.no:42'
p4311
(lp4312
S'server'
p4313
aS'application).use'
p4314
aS'cases'
p4315
aS'described'
p4316
aS'in'
p4317
aS'figure'
p4318
aS'2.'
p4319
aS'All'
p4320
aS'use'
p4321
aS'cases'
p4322
aS'are'
p4323
asS'file3.txt,line.no:86'
p4324
(lp4325
S'bus'
p4326
aS'came'
p4327
aS'to'
p4328
aS'the'
p4329
aS'nearest'
p4330
aS'stop.'
p4331
asS'file3.txt,line.no:87'
p4332
(lp4333
S'When'
p4334
aS'the'
p4335
aS'application'
p4336
aS'is'
p4337
aS'launched,'
p4338
aS'the'
p4339
aS'home'
p4340
aS'Activity'
p4341
aS'fetches'
p4342
aS'the'
p4343
aS'routes'
p4344
aS'from'
p4345
aS'the'
p4346
aS'server'
p4347
asS'file4.txt,line.no:4'
p4348
(lp4349
S'the'
p4350
aS'project'
p4351
aS'is'
p4352
aS'presented'
p4353
aS'without'
p4354
aS'explicit'
p4355
aS'specifications'
p4356
aS'of'
p4357
aS'EJB'
p4358
aS'2.1.'
p4359
aS'If'
p4360
aS'any'
p4361
aS'doubt'
p4362
asS'file4.txt,line.no:5'
p4363
(lp4364
S'on'
p4365
aS'J2EE'
p4366
aS'technology,'
p4367
aS'refer'
p4368
aS'to'
p4369
aS'[9,'
p4370
aS'2].'
p4371
asS'file4.txt,line.no:6'
p4372
(lp4373
S'Security'
p4374
aS'is'
p4375
aS'very'
p4376
aS'important'
p4377
aS'in'
p4378
aS'some'
p4379
aS'activities.'
p4380
aS'Freeride,'
p4381
aS'mountain'
p4382
aS'walking'
p4383
aS'or'
p4384
asS'file4.txt,line.no:7'
p4385
(lp4386
S'climbing,'
p4387
aS'paragliding'
p4388
aS'are'
p4389
aS'those'
p4390
aS'where'
p4391
aS'accidents'
p4392
aS'can'
p4393
aS'be'
p4394
aS'serious'
p4395
aS'or'
p4396
aS'fatal.'
p4397
aS'Having'
p4398
asS'file4.txt,line.no:1'
p4399
(lp4400
S'Midlet:'
p4401
aS'Send'
p4402
aS'position'
p4403
aS'and'
p4404
aS'server'
p4405
aS'response'
p4406
aS'.'
p4407
ag4407
asS'file4.txt,line.no:2'
p4408
(lp4409
S'30Note'
p4410
aS'of'
p4411
aS'the'
p4412
aS'author:'
p4413
aS'Before'
p4414
aS'starting'
p4415
aS'the'
p4416
aS'study'
p4417
aS'of'
p4418
aS'this'
p4419
aS'report'
p4420
aS'the'
p4421
aS'reader'
p4422
aS'must'
p4423
asS'file4.txt,line.no:3'
p4424
(lp4425
S'have'
p4426
ag187
aS'good'
p4427
aS'understanding'
p4428
aS'of'
p4429
aS'the'
p4430
aS'J2EE'
p4431
aS'and'
p4432
aS'EJB'
p4433
aS'technologies.'
p4434
aS'The'
p4435
aS'concept'
p4436
aS'of'
p4437
asS'file4.txt,line.no:8'
p4438
(lp4439
S'the'
p4440
aS'possibility'
p4441
aS'to'
p4442
aS'follow'
p4443
aS'physically'
p4444
aS'the'
p4445
aS'position'
p4446
aS'of'
p4447
ag187
aS'person'
p4448
aS'on'
p4449
aS'regular'
p4450
aS'basis'
p4451
aS'can'
p4452
asS'file4.txt,line.no:9'
p4453
(lp4454
S'be'
p4455
aS'comfortable'
p4456
aS'for'
p4457
aS'family,'
p4458
aS'relatives'
p4459
aS'or'
p4460
aS'others.'
p4461
asS'file3.txt,line.no:117'
p4462
(lp4463
S'using'
p4464
aS'respective'
p4465
aS'test'
p4466
aS'procedures.'
p4467
aS'Each'
p4468
aS'component'
p4469
aS'is'
p4470
aS'tested'
p4471
aS'individually'
p4472
aS'based'
p4473
aS'on'
p4474
aS'their'
p4475
aS'needs.'
p4476
asS'file3.txt,line.no:116'
p4477
(lp4478
S'There'
p4479
aS'exist'
p4480
ag187
aS'number'
p4481
aS'of'
p4482
aS'components'
p4483
aS'in'
p4484
aS'every'
p4485
aS'sub-system.'
p4486
aS'Every'
p4487
aS'component'
p4488
aS'is'
p4489
aS'tested'
p4490
asS'file3.txt,line.no:115'
p4491
(lp4492
S'A.'
p4493
aS'Unit'
p4494
aS'Testing'
p4495
asS'file3.txt,line.no:114'
p4496
(lp4497
S'o'
p4498
aS'System'
p4499
aS'Testing'
p4500
asS'file3.txt,line.no:113'
p4501
(lp4502
g4498
aS'Integration'
p4503
aS'Testing'
p4504
asS'file3.txt,line.no:112'
p4505
(lp4506
g4498
aS'Unit'
p4507
aS'Testing'
p4508
asS'file3.txt,line.no:111'
p4509
(lp4510
S'The'
p4511
aS'sequence'
p4512
aS'of'
p4513
aS'testing'
p4514
aS'activities'
p4515
aS'performed'
p4516
aS'for'
p4517
aS'the'
p4518
aS'tracking'
p4519
aS'system'
p4520
aS'is'
p4521
aS'as'
p4522
aS'below:'
p4523
asS'file3.txt,line.no:110'
p4524
(lp4525
S'which'
p4526
aS'in'
p4527
aS'turn'
p4528
aS'are'
p4529
aS'composed'
p4530
aS'of'
p4531
aS'procedures'
p4532
aS'and'
p4533
aS'functions.'
p4534
asS'file3.txt,line.no:119'
p4535
(lp4536
S'B.'
p4537
aS'Integration'
p4538
aS'Testing'
p4539
asS'file3.txt,line.no:118'
p4540
(lp4541
S'Unit'
p4542
aS'test'
p4543
aS'focuses'
p4544
aS'verification'
p4545
aS'effort'
p4546
aS'on'
p4547
aS'the'
p4548
aS'smallest'
p4549
aS'unit'
p4550
aS'of'
p4551
aS'the'
p4552
aS'software'
p4553
aS'design'
p4554
aS'component.'
p4555
asS'file5.txt,line.no:1'
p4556
(lp4557
S'my'
p4558
aS'name'
p4559
aS'is'
p4560
aS'saurabh'
p4561
aS'bazari.'
p4562
asS'file5.txt,line.no:2'
p4563
(lp4564
S'me'
p4565
aS'lab'
p4566
aS'partner'
p4567
aS'is'
p4568
aS'samyak'
p4569
aS'and'
p4570
aS'shreyanshi'
p4571
asS'file1.txt,line.no:1'
p4572
(lp4573
S'www.ijecs.in'
p4574
asS'file1.txt,line.no:2'
p4575
(lp4576
S'International'
p4577
aS'Journal'
p4578
aS'Of'
p4579
aS'Engineering'
p4580
aS'And'
p4581
aS'Computer'
p4582
aS'Science'
p4583
aS'ISSN:'
p4584
aS'2319-7242'
p4585
asS'file3.txt,line.no:91'
p4586
(lp4587
S'If'
p4588
aS'the'
p4589
aS'client'
p4590
aS'selects'
p4591
aS'\xe2\x80\x9cShow'
p4592
aS'Map\xe2\x80\x9d'
p4593
aS'then'
p4594
aS'the'
p4595
aS'location'
p4596
aS'of'
p4597
aS'the'
p4598
aS'bus'
p4599
aS'on'
p4600
aS'the'
p4601
aS'map'
p4602
aS'will'
p4603
aS'be'
p4604
aS'displayed.'
p4605
aS'The'
p4606
asS'file2.txt,line.no:118'
p4607
(lp4608
S'4.1'
p4609
aS'Domain'
p4610
aS'Modelling'
p4611
asS'file2.txt,line.no:119'
p4612
(lp4613
S'4.1.1'
p4614
aS'Entity'
p4615
aS'Objects'
p4616
asS'file2.txt,line.no:116'
p4617
(lp4618
S'or'
p4619
aS'incompatible'
p4620
aS'and'
p4621
aS'prompts'
p4622
aS'to'
p4623
aS'enter'
p4624
aS'the'
p4625
aS'correct'
p4626
aS'details'
p4627
asS'file2.txt,line.no:117'
p4628
(lp4629
S'94'
p4630
aS'Object'
p4631
aS'Oriented'
p4632
aS'Model'
p4633
asS'file2.txt,line.no:114'
p4634
(lp4635
S'Scenario'
p4636
aS'2:'
p4637
aS'At'
p4638
aS'step'
p4639
ag1077
aS'of'
p4640
aS'mainline'
p4641
aS'sequence:'
p4642
asS'file2.txt,line.no:115'
p4643
(lp4644
S'4.'
p4645
aS'System'
p4646
ag133
aS'Displays'
p4647
aS'an'
p4648
aS'error'
p4649
aS'message'
p4650
aS'that'
p4651
aS'the'
p4652
aS'particular'
p4653
aS'class'
p4654
aS'details'
p4655
aS'are'
p4656
aS'incomplete'
p4657
asS'file2.txt,line.no:112'
p4658
(lp4659
S'3.'
p4660
aS'User'
p4661
ag133
aS'Enters'
p4662
aS'the'
p4663
aS'required'
p4664
aS'details'
p4665
aS'of'
p4666
aS'the'
p4667
aS'needed'
p4668
aS'class.'
p4669
asS'file2.txt,line.no:113'
p4670
(lp4671
S'4.'
p4672
aS'System'
p4673
ag133
aS'Displays'
p4674
aS'the'
p4675
aS'attention'
p4676
aS'statistics'
p4677
aS'of'
p4678
aS'the'
p4679
aS'session'
p4680
aS'for'
p4681
aS'the'
p4682
aS'specified'
p4683
aS'class.'
p4684
asS'file2.txt,line.no:110'
p4685
(lp4686
S'2.'
p4687
aS'System'
p4688
ag133
aS'Displays'
p4689
ag187
aS'prompt'
p4690
aS'to'
p4691
aS'enter'
p4692
aS'the'
p4693
aS'course'
p4694
aS'details'
p4695
aS'like'
p4696
aS'the'
p4697
aS'date'
p4698
aS'and'
p4699
aS'course'
p4700
asS'file2.txt,line.no:111'
p4701
(lp4702
S'name.'
p4703
asS'file2.txt,line.no:233'
p4704
(lp4705
S'Description:'
p4706
aS'Listens'
p4707
aS'to'
p4708
aS'the'
p4709
aS'sensor'
p4710
aS'Data'
p4711
aS'[9]'
p4712
asS'file2.txt,line.no:232'
p4713
(lp4714
S'4.3.5'
p4715
aS'SensorEventListener'
p4716
asS'file2.txt,line.no:231'
p4717
(lp4718
S'c)'
p4719
aS'Orientation'
p4720
aS'(X'
p4721
aS'45\xc2\xb0,'
p4722
aS'Y'
p4723
aS'0\xc2\xb0,'
p4724
aS'Z'
p4725
aS'0\xc2\xb0)'
p4726
asS'file2.txt,line.no:230'
p4727
(lp4728
S'b)'
p4729
aS'Shaking'
p4730
aS'f'
p4731
aS'requency'
p4732
aS'<='
p4733
aS'2/min'
p4734
asS'file2.txt,line.no:237'
p4735
(lp4736
S'4.3.6'
p4737
aS'Socket'
p4738
ag133
aS'Server'
p4739
asS'file2.txt,line.no:236'
p4740
(lp4741
S'DESC:'
p4742
aS'Called'
p4743
aS'when'
p4744
aS'there'
p4745
aS'is'
p4746
ag187
aS'new'
p4747
aS'sensor'
p4748
aS'event.'
p4749
aS'[9]'
p4750
asS'file2.txt,line.no:235'
p4751
(lp4752
S'1.'
p4753
aS'public'
p4754
aS'void'
p4755
aS'onSensorChanged(SensorEvent'
p4756
aS'event)'
p4757
asS'file2.txt,line.no:234'
p4758
(lp4759
S'Methods'
p4760
asS'file3.txt,line.no:93'
p4761
(lp4762
S'Figure'
p4763
aS'5:'
p4764
aS'Client'
p4765
aS'Login'
p4766
aS'Page'
p4767
asS'file3.txt,line.no:92'
p4768
(lp4769
S'below'
p4770
aS'figure'
p4771
ag2994
aS'shows'
p4772
aS'the'
p4773
aS'client'
p4774
aS'login'
p4775
aS'page.'
p4776
asS'file2.txt,line.no:239'
p4777
(lp4778
S'Socket'
p4779
aS'uses'
p4780
aS'an'
p4781
aS'underlying'
p4782
aS'Client'
p4783
aS'to'
p4784
aS'communicate'
p4785
aS'which'
p4786
aS'is'
p4787
aS'the'
p4788
aS'student'
p4789
aS'in'
p4790
aS'this'
p4791
aS'case'
p4792
aS'[8]'
p4793
asS'file2.txt,line.no:238'
p4794
(lp4795
S'Description:'
p4796
ag78
aS'Socket'
p4797
aS'is'
p4798
aS'the'
p4799
aS'fundamental'
p4800
aS'class'
p4801
aS'for'
p4802
aS'interacting'
p4803
aS'with'
p4804
aS'browser'
p4805
aS'clients.'
p4806
ag78
asS'file3.txt,line.no:97'
p4807
(lp4808
S'The'
p4809
aS'below'
p4810
aS'figure'
p4811
aS'6'
p4812
aS'shows'
p4813
aS'the'
p4814
aS'flow'
p4815
aS'of'
p4816
aS'actions'
p4817
aS'of'
p4818
aS'driver.'
p4819
asS'file3.txt,line.no:96'
p4820
(lp4821
S'C.'
p4822
aS'Driver'
p4823
asS'file3.txt,line.no:95'
p4824
(lp4825
S'504G.'
p4826
aS'Jemilda'
p4827
aS'et'
p4828
aS'al,'
p4829
aS'International'
p4830
aS'Journal'
p4831
aS'of'
p4832
aS'Computer'
p4833
aS'Science'
p4834
aS'and'
p4835
aS'Mobile'
p4836
aS'Computing,'
p4837
aS'Vol.4'
p4838
aS'Issue.3,'
p4839
aS'March-'
p4840
aS'2015,'
p4841
aS'pg.'
p4842
aS'500-507'
p4843
asS'file3.txt,line.no:94'
p4844
(lp4845
S'\xc2\xa9'
p4846
aS'2015,'
p4847
aS'IJCSMC'
p4848
aS'All'
p4849
aS'Rights'
p4850
aS'Reserved'
p4851
asS'file3.txt,line.no:68'
p4852
(lp4853
S'layer,'
p4854
aS'including'
p4855
aS'the'
p4856
aS'window'
p4857
aS'manager'
p4858
aS'and'
p4859
aS'location'
p4860
aS'manager,'
p4861
aS'content'
p4862
aS'providers,'
p4863
aS'telephony,'
p4864
asS'file3.txt,line.no:69'
p4865
(lp4866
S'and'
p4867
aS'sensors.'
p4868
asS'file2.txt,line.no:8'
p4869
(lp4870
S'2.4.1'
p4871
aS'User'
p4872
aS'Interfaces'
p4873
asS'file2.txt,line.no:9'
p4874
(lp4875
S'The'
p4876
aS'user'
p4877
aS'interface'
p4878
aS'will'
p4879
aS'allow'
p4880
aS'the'
p4881
aS'instructor'
p4882
aS'and'
p4883
aS'students'
p4884
aS'to'
p4885
aS'establish'
p4886
ag187
aS'socket'
p4887
aS'connection'
p4888
asS'file2.txt,line.no:2'
p4889
(lp4890
S'\xe2\x80\xa2'
p4891
aS'Orientation'
p4892
aS'(X'
p4893
aS'45\xc2\xb0,'
p4894
ag4723
aS'0\xc2\xb0,'
p4895
ag4725
aS'0\xc2\xb0)'
p4896
asS'file2.txt,line.no:3'
p4897
(lp4898
S'In'
p4899
aS'scenario'
p4900
aS'of'
p4901
ag187
aS'change'
p4902
aS'in'
p4903
aS'attention,'
p4904
aS'professor'
p4905
aS'is'
p4906
aS'notified'
p4907
aS'by'
p4908
ag187
aS'socket'
p4909
aS'emit'
p4910
aS'call'
p4911
aS'and'
p4912
aS'this'
p4913
asS'file2.txt,line.no:1'
p4914
(lp4915
S'SOFTWARE'
p4916
aS'DESIGN'
p4917
asS'file2.txt,line.no:6'
p4918
(lp4919
S'32'
p4920
aS'Design'
p4921
aS'Overview'
p4922
asS'file2.txt,line.no:7'
p4923
(lp4924
S'2.4'
p4925
aS'System'
p4926
aS'Interfaces'
p4927
aS'and'
p4928
aS'Implementing'
p4929
aS'Technologies'
p4930
asS'file2.txt,line.no:4'
p4931
(lp4932
S'event'
p4933
aS'is'
p4934
aS'recorded'
p4935
aS'in'
p4936
aS'the'
p4937
aS'database'
p4938
aS'with'
p4939
aS'the'
p4940
aS'session'
p4941
aS'details'
p4942
aS'which'
p4943
aS'can'
p4944
aS'later'
p4945
aS'be'
p4946
aS'accessed'
p4947
aS'by'
p4948
asS'file2.txt,line.no:5'
p4949
(lp4950
S'both'
p4951
aS'the'
p4952
aS'professor'
p4953
aS'and'
p4954
aS'student'
p4955
aS'after'
p4956
aS'logging'
p4957
aS'into'
p4958
aS'the'
p4959
aS'system'
p4960
aS'portal.'
p4961
asS'file3.txt,line.no:66'
p4962
(lp4963
S'documentation.'
p4964
aS'The'
p4965
aS'architecture'
p4966
aS'of'
p4967
aS'Android'
p4968
aS'is'
p4969
aS'shown'
p4970
aS'in'
p4971
aS'Figure'
p4972
aS'1.'
p4973
aS'[4]'
p4974
aS'[5]'
p4975
asS'file3.txt,line.no:67'
p4976
(lp4977
S'An'
p4978
aS'application'
p4979
aS'framework'
p4980
aS'that'
p4981
aS'agnostically'
p4982
aS'exposes'
p4983
aS'system'
p4984
aS'services'
p4985
aS'to'
p4986
aS'the'
p4987
aS'application'
p4988
asS'file3.txt,line.no:148'
p4989
(lp4990
S'[2]'
p4991
aS'Jindan'
p4992
aS'Zhu,1'
p4993
aS'Kyu-Han'
p4994
aS'Kim,2'
p4995
aS'Prasant'
p4996
aS'Mohapatra,1'
p4997
aS'and'
p4998
aS'Paul'
p4999
aS'Congdon2'
p5000
aS'\xe2\x80\x9cAn'
p5001
aS'Adaptive'
p5002
asS'file3.txt,line.no:149'
p5003
(lp5004
S'Privacy-Preserving'
p5005
aS'Scheme'
p5006
aS'for'
p5007
aS'Location'
p5008
aS'Tracking'
p5009
aS'of'
p5010
ag187
aS'Mobile'
p5011
aS'User\xe2\x80\x9d'
p5012
aS'2013'
p5013
aS'IEEE'
p5014
asS'file3.txt,line.no:144'
p5015
(lp5016
S'REFERENCES'
p5017
asS'file3.txt,line.no:145'
p5018
(lp5019
S'[1]'
p5020
aS'A.'
p5021
aS'Thiagarajan,'
p5022
aS'L.'
p5023
aS'S.'
p5024
aS'Ravindranath,'
p5025
aS'H.'
p5026
aS'Balakrishnan,'
p5027
aS'S.'
p5028
aS'Madden,'
p5029
aS'and'
p5030
aS'L.'
p5031
aS'Girod,'
p5032
asS'file3.txt,line.no:146'
p5033
(lp5034
S'\xe2\x80\x9cAccurate,'
p5035
aS'Low-Energy'
p5036
aS'Trajectory'
p5037
aS'Mapping'
p5038
aS'for'
p5039
aS'Mobile'
p5040
aS'Devices,\xe2\x80\x9d'
p5041
aS'in'
p5042
aS'8th'
p5043
aS'USENIX'
p5044
aS'NSDI,'
p5045
asS'file3.txt,line.no:147'
p5046
(lp5047
S'Boston,'
p5048
aS'MA,'
p5049
aS'March'
p5050
aS'2011.'
p5051
asS'file3.txt,line.no:140'
p5052
(lp5053
S'how'
p5054
aS'much'
p5055
aS'time'
p5056
aS'the'
p5057
aS'bus'
p5058
aS'takes'
p5059
aS'to'
p5060
aS'reach'
p5061
ag187
aS'particular'
p5062
aS'stop'
p5063
aS'and'
p5064
aS'also'
p5065
aS'to'
p5066
aS'see'
p5067
aS'the'
p5068
aS'location'
p5069
aS'of'
p5070
aS'the'
p5071
aS'bus'
p5072
aS'on'
p5073
asS'file3.txt,line.no:141'
p5074
(lp5075
S'the'
p5076
aS'Google'
p5077
aS'Map.'
p5078
aS'They'
p5079
aS'all'
p5080
aS'are'
p5081
aS'displayed'
p5082
aS'on'
p5083
aS'Figure'
p5084
aS'8.'
p5085
asS'file3.txt,line.no:142'
p5086
(lp5087
S'We'
p5088
aS'have'
p5089
aS'also'
p5090
aS'designed'
p5091
ag187
aS'web'
p5092
aS'portal'
p5093
aS'for'
p5094
aS'the'
p5095
aS'admin'
p5096
aS'to'
p5097
aS'manage'
p5098
aS'the'
p5099
aS'bus'
p5100
aS'routes'
p5101
aS'and'
p5102
aS'the'
p5103
aS'stops'
p5104
asS'file3.txt,line.no:143'
p5105
(lp5106
S'they'
p5107
aS'cover.'
p5108
as.