(dp0
S'0975-9646'
p1
(dp2
S'file1.txt,page.no8'
p3
I1
ssS'dynamic'
p4
(dp5
S'file4.txt,page.no28'
p6
I1
sS'file3.txt,page.no1'
p7
I1
sS'file1.txt,page.no2'
p8
I1
ssS'precondition'
p9
(dp10
S'file2.txt,page.no30'
p11
I1
sS'file2.txt,page.no29'
p12
I2
sS'file2.txt,page.no28'
p13
I1
ssS'four'
p14
(dp15
S'file4.txt,page.no15'
p16
I1
ssS'credentials'
p17
(dp18
S'file1.txt,page.no5'
p19
I3
sS'file1.txt,page.no4'
p20
I1
sg13
I1
ssS'guwahati'
p21
(dp22
S'file2.txt,page.no1'
p23
I1
ssS'saved'
p24
(dp25
S'file4.txt,page.no25'
p26
I1
sS'file4.txt,page.no18'
p27
I1
sS'file4.txt,page.no17'
p28
I1
sS'file4.txt,page.no23'
p29
I1
sS'file4.txt,page.no22'
p30
I2
ssS'(which'
p31
(dp32
g26
I1
sS'file4.txt,page.no27'
p33
I1
ssS'relationships'
p34
(dp35
S'file2.txt,page.no31'
p36
I1
ssS'21revision'
p37
(dp38
S'file2.txt,page.no23'
p39
I1
ssS'u3'
p40
(dp41
g12
I1
sS'file2.txt,page.no6'
p42
I1
ssS'calculate'
p43
(dp44
g27
I1
ssS'(for'
p45
(dp46
g27
I1
sS'file4.txt,page.no9'
p47
I1
ssS'tween'
p48
(dp49
S'file4.txt,page.no14'
p50
I1
sS'file4.txt,page.no29'
p51
I1
ssS'345'
p52
(dp53
g27
I1
sS'file4.txt,page.no1'
p54
I1
sg16
I1
ssS'346'
p55
(dp56
g54
I1
sS'file4.txt,page.no20'
p57
I1
ssS'347'
p58
(dp59
g54
I1
ssS'341'
p60
(dp61
g54
I1
sg50
I1
ssS'342'
p62
(dp63
g54
I1
sg50
I1
ssS'under'
p64
(dp65
g47
I1
sg26
I1
sS'file4.txt,page.no11'
p66
I1
sS'file1.txt,page.no7'
p67
I1
sg29
I2
sg30
I2
sS'file4.txt,page.no16'
p68
I1
sS'file4.txt,page.no12'
p69
I3
ssS'assumption'
p70
(dp71
S'file2.txt,page.no27'
p72
I1
ssS'348'
p73
(dp74
g54
I1
sS'file4.txt,page.no21'
p75
I1
ssS'349'
p76
(dp77
g54
I1
sg75
I1
ssS'carried'
p78
(dp79
g72
I1
sg7
I1
ssS'updated'
p80
(dp81
g19
I1
sS'file1.txt,page.no1'
p82
I1
sg8
I1
ssS'void'
p83
(dp84
g68
I1
sg36
I2
sS'file2.txt,page.no32'
p85
I5
sS'file2.txt,page.no33'
p86
I2
sS'file2.txt,page.no34'
p87
I3
sS'file2.txt,page.no35'
p88
I2
ssS'connects'
p89
(dp90
g88
I1
ssS'started\xe2\x80\x9d'
p91
(dp92
g68
I1
ssS'east)'
p93
(dp94
g27
I1
ssS'handling'
p95
(dp96
S'file4.txt,page.no30'
p97
I1
ssS'every'
p98
(dp99
g47
I3
sg75
I1
sS'file3.txt,page.no7'
p100
I2
sS'file4.txt,page.no24'
p101
I1
sS'file4.txt,page.no26'
p102
I1
sg82
I1
sg8
I3
sg19
I1
ssS'updates'
p103
(dp104
g88
I2
ssS'servlet'
p105
(dp106
g57
I1
sg68
I2
sg28
I5
ssS'basics'
p107
(dp108
S'file4.txt,page.no31'
p109
I1
ssS'open-source'
p110
(dp111
S'file3.txt,page.no3'
p112
I3
ssS'[9]'
p113
(dp114
g67
I1
sg8
I1
sg109
I1
sg86
I1
sg87
I3
sS'file2.txt,page.no37'
p115
I1
ssS'solution'
p116
(dp117
g47
I1
ssS'straints'
p118
(dp119
S'file2.txt,page.no24'
p120
I1
ssS'earth\xe2\x80\x9d'
p121
(dp122
g28
I1
ssS'294'
p123
(dp124
S'file4.txt,page.no13'
p125
I1
ssS'phones'
p126
(dp127
g100
I1
sg82
I3
sS'file1.txt,page.no6'
p128
I2
sg112
I1
sS'file3.txt,page.no2'
p129
I2
sS'file1.txt,page.no3'
p130
I1
sg72
I1
sS'file2.txt,page.no26'
p131
I1
ssS'estimates'
p132
(dp133
g82
I1
ssS'homeactivity'
p134
(dp135
S'file3.txt,page.no6'
p136
I1
ssS'across'
p137
(dp138
S'file3.txt,page.no4'
p139
I1
sg131
I1
ssS'street'
p140
(dp141
S'file4.txt,page.no10'
p142
I1
sS'file4.txt,page.no19'
p143
I1
ssS'monson-haefel'
p144
(dp145
g109
I1
ssS'mandatory)'
p146
(dp147
g66
I1
ssS'implemented'
p148
(dp149
g50
I1
sg129
I1
sg75
I4
sg6
I1
sg16
I1
ssS'even'
p150
(dp151
g13
I2
sg72
I1
sg8
I1
ssS'established'
p152
(dp153
g85
I1
ssS'httpsstackoverflowcom'
p154
(dp155
g115
I1
ssS'incompatible'
p156
(dp157
g11
I1
ssS'specification'
p158
(dp159
g102
I1
sS'file4.txt,page.no6'
p160
I1
sS'file2.txt,page.no36'
p161
I1
ssS'selected'
p162
(dp163
g26
I2
ssS'trackerejbwebappservlets'
p164
(dp165
g30
I1
ssS'mysql'
p166
(dp167
g72
I1
ssS'sensordata'
p168
(dp169
g11
I1
sS'file2.txt,page.no10'
p170
I1
sg86
I2
ssS'null)'
p171
(dp172
g143
I3
sg57
I2
ssS'above'
p173
(dp174
g47
I1
sg66
I1
sg102
I1
sg75
I1
sg125
I1
sg72
I1
ssS'new'
p175
(dp176
g47
I2
sg3
I1
sg26
I2
sg101
I1
sS'file3.txt,page.no5'
p177
I2
sg102
I1
sg112
I1
sg16
I1
sg68
I1
sg7
I1
sg66
I2
sg87
I1
sg88
I1
ssS'increasing'
p178
(dp179
g112
I1
ssS'ever'
p180
(dp181
g7
I1
ssS'gyroscope'
p182
(dp183
g86
I1
sg72
I1
sg131
I1
sS'file2.txt,page.no25'
p184
I1
sg120
I1
ssS'(figure'
p185
(dp186
g142
I1
sg102
I1
sg75
I1
sg16
I1
sg68
I1
sg28
I2
ssS'pictorially'
p187
(dp188
g36
I1
ssS'login\xe2\x80\x9d'
p189
(dp190
g33
I1
ssS'10)'
p191
(dp192
g75
I1
ssS'machine)'
p193
(dp194
g28
I1
ssS'never'
p195
(dp196
g112
I1
ssS'here'
p197
(dp198
g128
I1
sg6
I1
sg33
I1
sg102
I1
sg68
I1
sg8
I1
ssS'phone)'
p199
(dp200
g66
I1
sg125
I1
sg50
I1
ssS'studio'
p201
(dp202
g33
I1
ssS'evaluates'
p203
(dp204
g12
I1
ssS'active'
p205
(dp206
g26
I1
sg128
I1
ssS'101'
p207
(dp208
g50
I1
ssS'107'
p209
(dp210
g125
I1
ssS'104'
p211
(dp212
g36
I1
sg109
I1
ssS'forum'
p213
(dp214
S'file1.txt,page.no9'
p215
I1
sg115
I1
ssS'roshnijambhulkar2@gmailcom'
p216
(dp217
g82
I1
ssS'study'
p218
(dp219
S'file4.txt,page.no8'
p220
I1
ssS'changed'
p221
(dp222
g86
I1
ssS'reports'
p223
(dp224
g11
I1
sg42
I1
ssS'pooling'
p225
(dp226
g72
I1
ssS'databasename'
p227
(dp228
g29
I1
ssS'krishnan'
p229
(dp230
g3
I1
sg7
I1
ssS'servicelocatorexceptionjava'
p231
(dp232
g30
I1
ssS'changes'
p233
(dp234
g39
I1
sg87
I1
sg131
I1
ssS'(track_id)'
p235
(dp236
g57
I1
ssS'appropriately'
p237
(dp238
g87
I1
ssS'activityhtml'
p239
(dp240
g115
I1
ssS'visible'
p241
(dp242
g19
I1
ssS'iilist'
p243
(dp244
S'file2.txt,page.no20'
p245
I1
ssS'total'
p246
(dp247
g11
I1
ssS'sneha'
p248
(dp249
g67
I1
ssS'unit'
p250
(dp251
g100
I3
sg136
I1
ssS'files)'
p252
(dp253
g29
I1
ssS'344'
p254
(dp255
g54
I1
sg16
I1
ssS'wi-fi'
p256
(dp257
g130
I1
ssS'would'
p258
(dp259
g67
I2
ssS'addremoteposition()'
p260
(dp261
g68
I1
ssS'call'
p262
(dp263
g131
I1
sg16
I1
sg28
I1
ssS'type'
p264
(dp265
g27
I1
sg6
I1
ssS'relay'
p266
(dp267
g47
I1
ssS'successful'
p268
(dp269
g19
I1
sg102
I1
ssS'remark'
p270
(dp271
g28
I1
ssS'343'
p272
(dp273
g54
I1
sg50
I1
ssS'toolkit'
p274
(dp275
g109
I1
ssS'phone'
p276
(dp277
g143
I1
sg47
I3
sg51
I1
sg6
I1
sg142
I2
sg66
I1
sg33
I1
sg125
I2
sg75
I2
sg16
I1
sg7
I4
sg8
I1
sg97
I2
sg215
I1
sg129
I1
sg72
I1
sg139
I1
ssS'real-time'
p278
(dp279
g82
I1
sg8
I1
ssS'90'
p280
(dp281
g161
I1
ssS'ward'
p282
(dp283
g128
I1
ssS'hold'
p284
(dp285
g136
I1
ssS'94'
p286
(dp287
g11
I1
ssS'must'
p288
(dp289
g27
I2
sg220
I1
sg6
I1
sg26
I3
sg101
I2
sg69
I1
sg128
I1
sg29
I1
sg30
I2
sg66
I5
sg28
I1
sg87
I1
sg33
I2
sg161
I2
ssS'kumar'
p290
(dp291
g23
I1
sg3
I1
ssS'join'
p292
(dp293
g12
I2
sg245
I1
sg42
I1
sg161
I1
ssS'room'
p294
(dp295
g97
I1
ssS'rights'
p296
(dp297
S'file3.txt,page.no8'
p298
I1
sg142
I1
sg101
I1
sg177
I2
sg139
I1
sg112
I1
sg129
I1
sg100
I1
sg136
I1
ssS'560230'
p299
(dp300
g28
I1
ssS'setup'
p301
(dp302
g26
I1
sg101
I1
sg33
I1
sg102
I1
sg29
I1
ssS'work'
p303
(dp304
g33
I1
sg102
I1
sg129
I1
sg97
I2
sg86
I1
sg72
I1
ssS'eclipse'
p305
(dp306
g101
I1
sg125
I1
ssS'pg500'
p307
(dp308
g7
I1
ssS'install'
p309
(dp310
g29
I1
ssS'mr'
p311
(dp312
g67
I1
ssS'example'
p313
(dp314
g27
I1
sg72
I1
sg47
I1
sg112
I1
sg68
I1
ssS'jindan'
p315
(dp316
g129
I1
sg298
I1
ssS'user\xe2\x80\x9fs'
p317
(dp318
g8
I1
ssS'give'
p319
(dp320
g66
I1
sg50
I1
sg7
I1
sg184
I2
sg161
I2
sg120
I1
ssS'india'
p321
(dp322
g82
I2
sg7
I2
ssS'facade'
p323
(dp324
g68
I1
ssS'want'
p325
(dp326
g177
I1
sg129
I1
sg7
I2
ssS'feasible'
p327
(dp328
g7
I1
ssS'association'
p329
(dp330
g16
I1
ssS'end'
p331
(dp332
g16
I1
ssS'initiate'
p333
(dp334
g13
I2
sg42
I1
sg161
I1
sg245
I1
ssS'provide'
p335
(dp336
g66
I1
sg128
I1
sg82
I1
sg16
I1
sg8
I1
ssS'android\xe2\x80\x9d'
p337
(dp338
g3
I1
ssS'feature'
p339
(dp340
g128
I1
ssS'machine'
p341
(dp342
g102
I1
sg82
I1
sg29
I1
sg30
I2
ssS'sensoreventlistener'
p343
(dp344
g11
I1
sg170
I1
sg86
I1
sg87
I1
ssS'gajra'
p345
(dp346
g3
I1
ssS'varchar(24)'
p347
(dp348
g143
I4
ssS'answer'
p349
(dp350
g57
I1
ssS'tracker_person'
p351
(dp352
g27
I1
sg143
I1
sg57
I1
ssS'finalise'
p353
(dp354
g6
I1
ssS'printwriter'
p355
(dp356
g68
I1
ssS'description'
p357
(dp358
g27
I1
sg125
I1
sg51
I1
sg142
I1
sg50
I5
sg54
I5
sg160
I1
sg57
I2
sg16
I1
sg20
I2
sg36
I1
sg85
I1
sg86
I2
sg87
I2
sg88
I2
sg120
I1
ssS'httpsdeveloperandroidcomreference'
p359
(dp360
g115
I1
ssS'after'
p361
(dp362
g26
I1
sg100
I1
sg177
I1
sg19
I1
sg131
I2
ssS'demanding'
p363
(dp364
g7
I1
ssS'diagram'
p365
(dp366
g170
I1
sg139
I2
sg142
I1
sg20
I1
sg177
I2
sS'file2.txt,page.no19'
p367
I2
sS'file4.txt,page.no7'
p368
I2
sg68
I1
sg16
I1
sg19
I2
sg13
I1
sg11
I1
sg245
I8
sg161
I11
ssS'primekeyentitybeanjava'
p369
(dp370
g30
I1
ssS'types'
p371
(dp372
g101
I1
ssS'poveda'
p373
(dp374
g97
I1
sg125
I1
sg51
I3
ssS'effective'
p375
(dp376
g160
I1
sg51
I1
sg112
I1
ssS'complexity'
p377
(dp378
g50
I1
ssS'maintain'
p379
(dp380
g72
I1
ssS'algorithms'
p381
(dp382
g129
I1
ssS'enter'
p383
(dp384
g136
I1
sg142
I1
sg101
I1
sg177
I4
sg50
I1
sg29
I1
sg19
I2
sg12
I1
sg13
I5
sg20
I1
sg11
I2
sg161
I1
ssS'acknowledges'
p385
(dp386
g12
I1
ssS'order'
p387
(dp388
g66
I1
sg16
I1
sg57
I1
sg29
I1
sg6
I1
ssS'interpretation'
p389
(dp390
g112
I1
ssS'over'
p391
(dp392
g33
I1
ssS'satisfied'
p393
(dp394
g87
I1
ssS'pascal'
p395
(dp396
g97
I1
sg54
I1
sg51
I3
ssS'saving'
p397
(dp398
g33
I1
ssS'before'
p399
(dp400
g27
I1
sg220
I1
sg19
I1
sg20
I1
sg33
I1
sg129
I1
sg29
I1
sg131
I1
ssS'[8]'
p401
(dp402
g87
I2
sg109
I1
sg215
I1
sg88
I3
sg115
I1
ssS'midlets'
p403
(dp404
g26
I1
sg33
I1
sg75
I2
sg368
I2
sg57
I3
sg30
I1
ssS'highlights'
p405
(dp406
g139
I1
ssS'(pointbase'
p407
(dp408
g102
I1
ssS'edge'
p409
(dp410
g139
I1
ssS'destroyed'
p411
(dp412
g85
I1
ssS'varchar(8)'
p413
(dp414
g143
I2
ssS'easier'
p415
(dp416
g7
I1
ssS'then'
p417
(dp418
g47
I1
sg6
I1
sg26
I2
sg66
I2
sg177
I5
sg131
I1
sg16
I1
sg8
I2
sg19
I1
sg136
I1
sg129
I1
sg28
I1
sg69
I3
ssS'them'
p419
(dp420
g47
I2
sg6
I1
sg26
I1
sg66
I1
sg50
I2
sg129
I1
sg8
I1
sg19
I1
sg136
I1
sg72
I1
sg131
I1
ssS'cse'
p421
(dp422
g7
I2
ssS'combination'
p423
(dp424
g85
I1
sg13
I1
ssS'modification'
p425
(dp426
g66
I1
ssS'they'
p427
(dp428
g298
I2
sg100
I1
sg136
I1
sg128
I4
sg82
I1
sg129
I1
sg7
I1
sg19
I3
sg72
I1
sg131
I2
ssS'bank'
p429
(dp430
g129
I1
ssS'tainer'
p431
(dp432
g28
I1
ssS'represents'
p433
(dp434
g27
I1
sg177
I1
ssS'drawtrack'
p435
(dp436
g28
I1
ssS'notified'
p437
(dp438
g131
I1
ssS'startconnection(string'
p439
(dp440
g36
I1
ssS'backgrounds'
p441
(dp442
g220
I1
sg54
I1
ssS'l'
p443
(dp444
g298
I2
ssS'attentionflagchanged'
p445
(dp446
g86
I1
ssS'proceeding'
p447
(dp448
g131
I1
ssS'component'
p449
(dp450
g100
I3
sg16
I1
ssS'each'
p451
(dp452
g27
I2
sg100
I1
sg16
I3
sg161
I1
ssS'feeds'
p453
(dp454
g130
I1
ssS'side'
p455
(dp456
g102
I2
sg66
I1
sg47
I1
sg50
I3
sg184
I1
ssS'notifies'
p457
(dp458
g12
I1
sg88
I2
ssS'gprs'
p459
(dp460
g6
I1
ssS'schemes'
p461
(dp462
g129
I1
ssS'(ijarcet)'
p463
(dp464
g67
I1
sg3
I1
ssS'joined'
p465
(dp466
g12
I1
ssS'sinha'
p467
(dp468
g19
I1
sg215
I1
sg128
I1
sg82
I1
sg20
I1
ssS'used'
p469
(dp470
g27
I1
sg100
I3
sg75
I1
sg33
I1
sg125
I4
sg82
I3
sg16
I1
sg29
I1
sg8
I1
sg68
I1
sg7
I1
sg136
I1
sg129
I2
sg28
I1
sg72
I5
sg112
I1
ssS'aids'
p471
(dp472
g129
I1
ssS'xp'
p473
(dp474
g125
I1
ssS'0\xc2\xb0'
p475
(dp476
g87
I1
sg131
I1
ssS'(a)'
p477
(dp478
g97
I1
sg51
I3
ssS'network'
p479
(dp480
g20
I1
sg72
I1
ssS'driving'
p481
(dp482
g19
I1
ssS'sms'
p483
(dp484
g6
I4
sg67
I1
sg139
I1
sg75
I1
sg130
I1
sg8
I2
ssS'content'
p485
(dp486
g139
I1
ssS'swapnil'
p487
(dp488
g67
I1
ssS'\xe2\x80\x9ccollege'
p489
(dp490
g3
I1
ssS'wgs'
p491
(dp492
g6
I1
ssS'reader'
p493
(dp494
g220
I1
sg50
I1
sg57
I1
sg184
I1
ssS'got'
p495
(dp496
g112
I1
ssS'written'
p497
(dp498
g72
I1
sg184
I1
ssS'free'
p499
(dp500
g33
I1
sg125
I1
sg112
I1
ssS'standard'
p501
(dp502
g26
I2
sg142
I1
sg69
I1
sg16
I1
sg30
I1
ssS'244'
p503
(dp504
g23
I1
sg72
I1
ssS'[accessed'
p505
(dp506
g67
I1
ssS'241'
p507
(dp508
g23
I1
sg131
I1
ssS'243'
p509
(dp510
g23
I1
sg72
I1
ssS'242'
p511
(dp512
g23
I1
sg72
I1
ssS'getpersonid()'
p513
(dp514
g16
I1
ssS'sensors'
p515
(dp516
g72
I2
sg139
I1
sg12
I4
sg13
I1
sg120
I1
sg85
I1
sg86
I2
sg87
I1
sg131
I2
sg184
I2
sg115
I1
ssS'"+'
p517
(dp518
g28
I1
ssS'logging'
p519
(dp520
g131
I1
ssS'client-server'
p521
(dp522
g125
I1
sg82
I1
sg7
I1
ssS'created'
p523
(dp524
g142
I1
sg101
I1
sg69
I1
sg112
I1
sg16
I1
sg66
I1
sg36
I1
sg33
I1
ssS'starts'
p525
(dp526
g102
I1
ssS'privacy'
p527
(dp528
g129
I4
ssS'correctness'
p529
(dp530
g136
I1
ssS'2278'
p531
(dp532
g3
I1
ssS'map-matching'
p533
(dp534
g129
I1
ssS'sahu'
p535
(dp536
g82
I1
ssS'leaps'
p537
(dp538
g7
I1
ssS'wwwijecsin'
p539
(dp540
g82
I1
ssS'user'
p541
(dp542
g6
I1
sg26
I7
sg101
I13
sg33
I3
sg102
I1
sg57
I1
sg29
I1
sg47
I2
sg19
I1
sg368
I1
sg11
I3
sg36
I2
sg142
I3
sg66
I15
sg69
I5
sg50
I1
sg16
I1
sg23
I1
sg298
I1
sg139
I1
sg112
I1
sg129
I4
sg7
I1
sg13
I2
sg131
I2
sg184
I1
ssS'already'
p543
(dp544
g102
I1
sg47
I1
sg131
I1
ssS'features'
p545
(dp546
g128
I1
sg130
I3
sg139
I2
ssS'primary'
p547
(dp548
g143
I4
sg50
I2
sg57
I2
sg16
I1
ssS'mounika'
p549
(dp550
g3
I1
ssS'175'
p551
(dp552
g161
I1
ssS'electronic'
p553
(dp554
g184
I1
ssS'conventions'
p555
(dp556
g23
I1
sg120
I1
ssS'service'
p557
(dp558
g19
I1
sg128
I1
sg129
I1
sg68
I1
sg368
I1
sg16
I1
ssS'rejects'
p559
(dp560
g12
I1
ssS'tor'
p561
(dp562
g161
I1
ssS'top'
p563
(dp564
g131
I1
ssS'stack'
p565
(dp566
g115
I1
ssS'needed'
p567
(dp568
g11
I1
sg125
I1
sg112
I2
sg57
I1
sg16
I1
ssS'ton'
p569
(dp570
g57
I1
ssS'listed'
p571
(dp572
g75
I1
ssS'john'
p573
(dp574
g97
I1
ssS'beans)'
p575
(dp576
g50
I1
ssS'listen'
p577
(dp578
g131
I1
ssS'tool'
p579
(dp580
g125
I1
sg30
I1
ssS'tokens'
p581
(dp582
g36
I2
ssS'distance'
p583
(dp584
g72
I1
sg87
I1
sg131
I1
sg184
I1
ssS'roles'
p585
(dp586
g75
I1
sg6
I1
ssS'heshe'
p587
(dp588
g101
I2
sg69
I1
sg47
I1
ssS'tourists'
p589
(dp590
g129
I1
ssS'project'
p591
(dp592
g6
I3
sg26
I1
sg101
I2
sg33
I3
sg102
I1
sg75
I3
sg29
I1
sg220
I1
sg47
I2
sg67
I2
sg54
I1
sg160
I1
sg130
I1
sg8
I1
sg69
I1
sg125
I1
sg28
I1
sg97
I2
sg23
I1
sg100
I1
sg112
I1
sg129
I3
sg184
I1
ssS'binds'
p593
(dp594
g136
I1
sg177
I1
ssS'socketonconnecteventlistener'
p595
(dp596
g87
I1
ssS'classes'
p597
(dp598
g28
I1
sg368
I1
sg29
I1
sg16
I1
ssS'19)'
p599
(dp600
g102
I1
ssS'tion'
p601
(dp602
g66
I1
ssS'enables'
p603
(dp604
g82
I1
ssS'html'
p605
(dp606
g16
I1
ssS'enhancement'
p607
(dp608
g128
I1
ssS'better'
p609
(dp610
g136
I2
sg7
I1
ssS'boston'
p611
(dp612
g298
I1
ssS'ming'
p613
(dp614
g109
I1
ssS'punjabi'
p615
(dp616
g67
I1
ssS'increment'
p617
(dp618
g16
I1
ssS'overlays'
p619
(dp620
g131
I1
ssS'relatively'
p621
(dp622
g102
I1
ssS'estimated'
p623
(dp624
g128
I1
ssS'-'
p625
(dp626
g27
I1
sg125
I2
sg69
I2
sg54
I2
sg75
I1
sg57
I1
sg7
I1
sg368
I5
sg97
I1
sg109
I1
sg36
I1
sg85
I1
sg28
I2
sg87
I1
sg115
I2
ssS'track_id'
p627
(dp628
g143
I1
sg57
I1
ssS'oriented'
p629
(dp630
g170
I1
sg11
I1
sg36
I1
sg85
I1
sg86
I1
sg87
I1
sg88
I2
ssS'client'
p631
(dp632
g51
I2
sg6
I1
sg26
I2
sg101
I3
sg33
I2
sg102
I2
sg47
I1
sS'file4.txt,page.no2'
p633
I1
sg368
I4
sg11
I1
sg87
I3
sg88
I1
sg115
I1
sg142
I1
sg66
I3
sg50
I2
sg16
I1
sg68
I1
sg177
I12
sg139
I1
sg7
I1
sg184
I1
ssS'onconnectioneventlistener()'
p634
(dp635
g87
I1
ssS'person_id'
p636
(dp637
g143
I1
sg57
I2
ssS'effectiveness'
p638
(dp639
g129
I1
ssS'rider'
p640
(dp641
g47
I1
ssS'blue'
p642
(dp643
g130
I1
ssS'shall'
p644
(dp645
g131
I1
sg184
I1
sg120
I2
ssS'object'
p646
(dp647
g170
I1
sg11
I1
sg36
I4
sg85
I2
sg86
I1
sg87
I2
sg88
I2
ssS'y'
p648
(dp649
g87
I1
sg131
I1
ssS'regular'
p650
(dp651
g220
I1
ssS'usage)'
p652
(dp653
g33
I1
ssS'outprintln("<kml'
p654
(dp655
g28
I1
ssS'doi'
p656
(dp657
g82
I1
ssS'consumers'
p658
(dp659
g7
I1
ssS'professor'
p660
(dp661
g131
I4
sg12
I8
sg13
I5
sg11
I4
sg85
I1
sg87
I2
sg88
I1
ssS'flow'
p662
(dp663
g19
I5
sg20
I1
sg177
I4
ssS'points'
p664
(dp665
g26
I2
sg27
I5
sg28
I2
ssS'principle'
p666
(dp667
g68
I1
ssS'enterprise'
p668
(dp669
g97
I1
ssS'gpsgsmgprs'
p670
(dp671
g215
I1
ssS'incomplete'
p672
(dp673
g11
I1
ssS'khairnar'
p674
(dp675
g67
I1
ssS'syntax'
p676
(dp677
g27
I1
ssS'radio'
p678
(dp679
g47
I1
sg129
I1
ssS'solutions'
p680
(dp681
g100
I1
ssS'sub-system'
p682
(dp683
g100
I1
ssS'keywords'
p684
(dp685
g82
I1
sg7
I1
ssS'earth'
p686
(dp687
g27
I3
sg51
I1
sg6
I1
sg26
I1
sg101
I1
sg69
I1
sg125
I1
sg28
I1
sg97
I2
ssS'availability'
p688
(dp689
g72
I1
ssS'socket()'
p690
(dp691
g87
I1
ssS'iosr'
p692
(dp693
g67
I1
ssS'layout'
p694
(dp695
g130
I1
ssS'proposed'
p696
(dp697
g100
I1
sg129
I1
sg130
I2
sg131
I1
ssS'implementation'
p698
(dp699
g51
I10
sg6
I1
sg100
I1
sg54
I1
sg75
I3
sg129
I1
sg8
I1
sg97
I2
sg215
I1
sS'file2.txt,page.no2'
p700
I1
sg72
I1
ssS'menu'
p701
(dp702
g33
I1
sg368
I1
ssS'guidance'
p703
(dp704
g67
I1
ssS'node-mysql'
p705
(dp706
g72
I1
ssS'httpsdeveloperandroidcomreferenceandroidapp'
p707
(dp708
g115
I1
ssS'geologist'
p709
(dp710
g47
I1
ssS'ravindranath'
p711
(dp712
g298
I1
ssS'integrate'
p713
(dp714
g139
I1
sg75
I1
ssS'560000'
p715
(dp716
g27
I1
ssS'do'
p717
(dp718
g142
I4
sg66
I1
sg69
I1
sg160
I1
sg16
I1
sg29
I1
sg100
I1
sg36
I1
sg33
I1
ssS'establishes'
p719
(dp720
g85
I1
sg87
I1
ssS'vyanktesh'
p721
(dp722
g67
I1
ssS'no20281-20284'
p723
(dp724
g19
I1
sg20
I1
sg128
I1
sg215
I1
ssS'2min'
p725
(dp726
g87
I1
sg131
I1
ssS'report'
p727
(dp728
g11
I2
sg100
I1
sg220
I1
sg54
I1
sg29
I1
ssS'reconstruct'
p729
(dp730
g129
I1
ssS'(v30)'
p731
(dp732
g125
I1
ssS'bruegger'
p733
(dp734
g97
I1
sg54
I1
sg51
I3
ssS'runs'
p735
(dp736
g82
I1
ssS'bar'
p737
(dp738
g177
I1
ssS'17'
p739
(dp740
g39
I1
sg33
I1
sg367
I1
sg368
I1
ssS'countries'
p741
(dp742
g47
I1
ssS'fields'
p743
(dp744
g27
I1
sg66
I2
sg16
I1
ssS'sunil'
p745
(dp746
g67
I1
ssS'public'
p747
(dp748
g47
I1
sg128
I1
sg68
I1
sg8
I1
sg36
I3
sg85
I3
sg86
I5
sg87
I4
sg88
I12
ssS'men-'
p749
(dp750
g161
I1
ssS'bad'
p751
(dp752
g102
I1
ssS'411'
p753
(dp754
g11
I1
sg170
I1
ssS'412'
p755
(dp756
g11
I1
sg170
I1
sg47
I1
ssS'413'
p757
(dp758
g11
I1
sg170
I1
ssS'adherence'
p759
(dp760
g102
I1
sg160
I1
ssS'ponents'
p761
(dp762
g50
I1
ssS'automatic'
p763
(dp764
g47
I1
sg6
I2
ssS'emtac'
p765
(dp766
g125
I1
ssS'reference'
p767
(dp768
g101
I1
sg36
I3
sg120
I1
sg87
I1
sg161
I1
sg115
I3
ssS'testing'
p769
(dp770
g100
I7
sg136
I4
sg112
I1
ssS'(servlets)'
p771
(dp772
g51
I1
ssS'(communication'
p773
(dp774
g125
I1
ssS'result'
p775
(dp776
g112
I1
ssS'mahmoud'
p777
(dp778
g97
I3
ssS'45\xc2\xb0'
p779
(dp780
g87
I1
sg131
I1
ssS'03'
p781
(dp782
g67
I1
ssS'capacity'
p783
(dp784
g102
I1
ssS'appealing'
p785
(dp786
g130
I1
ssS'trackerejbwebappapplets'
p787
(dp788
g30
I1
ssS'protected'
p789
(dp790
g36
I1
ssS'drawn'
p791
(dp792
g26
I1
sg27
I3
sg69
I3
ssS'approach'
p793
(dp794
g7
I1
ssS'we'
p795
(dp796
g27
I2
sg72
I3
sg47
I1
sg100
I1
sg298
I1
sg102
I3
sg101
I1
sg67
I1
sg128
I1
sg50
I3
sg57
I2
sg68
I1
sg16
I3
sg142
I1
sg13
I1
sg7
I1
sg125
I2
sg19
I1
sg129
I4
sg112
I8
sg33
I3
ssS'wanted'
p797
(dp798
g33
I1
sg112
I1
ssS'ktoolbar'
p799
(dp800
g26
I1
ssS'however'
p801
(dp802
g129
I1
ssS'(09)'
p803
(dp804
g23
I1
ssS'consists'
p805
(dp806
g131
I1
ssS'accessed'
p807
(dp808
g131
I1
ssS'tracker_primekey'
p809
(dp810
g57
I1
sg16
I1
ssS'packages'
p811
(dp812
g75
I2
ssS'improve'
p813
(dp814
g112
I1
ssS'received'
p815
(dp816
g82
I1
ssS'(b)'
p817
(dp818
g97
I1
sg51
I3
ssS'country'
p819
(dp820
g47
I1
ssS'eclipse-project'
p821
(dp822
g101
I1
ssS'20283doi'
p823
(dp824
g128
I1
ssS'receives'
p825
(dp826
g11
I1
sg101
I1
sg12
I1
sg68
I2
sg66
I1
ssS'receiver'
p827
(dp828
g8
I2
ssS'login'
p829
(dp830
g20
I1
sg136
I3
sg26
I1
sg101
I1
sg177
I4
sg368
I1
sg19
I3
sg13
I3
sg42
I1
sg66
I1
sg245
I1
sg33
I2
sg161
I1
ssS'asked'
p831
(dp832
g19
I1
ssS'gps'
p833
(dp834
g47
I8
sg51
I2
sg3
I1
sg26
I1
sg75
I4
sg67
I1
sg54
I1
sg82
I1
sg368
I2
sg7
I2
sg8
I6
sg97
I3
sg50
I1
sg125
I3
sg66
I2
sg129
I1
sg28
I1
sg33
I3
ssS'outprintln("<?xml'
p835
(dp836
g28
I1
ssS'2nd'
p837
(dp838
g23
I1
sg97
I2
ssS'privacy-preserving'
p839
(dp840
g129
I2
sg298
I1
ssS'250'
p841
(dp842
g97
I1
ssS'trust'
p843
(dp844
g28
I1
ssS'conference'
p845
(dp846
g298
I1
ssS'asks'
p847
(dp848
g101
I1
sg85
I1
ssS'basis'
p849
(dp850
g220
I1
ssS'\xe2\x80\x9dwhere'
p851
(dp852
g47
I2
ssS'three'
p853
(dp854
g20
I1
sg139
I1
ssS'been'
p855
(dp856
g26
I1
sg67
I1
sg75
I2
sg16
I1
sg129
I1
sg19
I1
sg97
I1
sg13
I1
sg11
I1
sg33
I1
sg12
I1
ssS'ejbs'
p857
(dp858
g28
I1
ssS'eprintstacktrace()'
p859
(dp860
g68
I2
ssS'trigger'
p861
(dp862
g86
I1
sg87
I1
ssS'privilege'
p863
(dp864
g19
I1
sg128
I1
ssS'entered'
p865
(dp866
g101
I1
sg13
I1
ssS'sonekar'
p867
(dp868
g67
I1
sg82
I1
ssS'trine'
p869
(dp870
g125
I1
ssS'website'
p871
(dp872
g136
I1
ssS'life'
p873
(dp874
g7
I2
ssS'20282doi'
p875
(dp876
g19
I1
ssS'icontents'
p877
(dp878
g367
I1
ssS'catch'
p879
(dp880
g33
I1
sg68
I2
ssS'qusay'
p881
(dp882
g97
I3
ssS'exception'
p883
(dp884
g33
I2
ssS'has'
p885
(dp886
g26
I2
sg101
I1
sg33
I1
sg75
I1
sg57
I1
sg47
I2
sg19
I1
sg128
I1
sg82
I1
sg130
I1
sg11
I1
sg142
I2
sg66
I1
sg16
I2
sg68
I1
sg97
I1
sg100
I1
sg136
I1
sg177
I5
sg7
I1
sg12
I4
sg13
I2
sg184
I1
ssS'23figure'
p887
(dp888
g26
I1
ssS'n'
p889
(dp890
g67
I1
ssS'viii'
p891
(dp892
g100
I1
ssS'jacsi'
p893
(dp894
g7
I2
ssS'k'
p895
(dp896
g3
I1
ssS'launched'
p897
(dp898
g26
I1
sg136
I1
sg177
I1
sg28
I2
ssS'nodejs'
p899
(dp900
g120
I1
sg72
I2
sg184
I1
sg115
I1
ssS'mms)'
p901
(dp902
g130
I1
ssS'tions'
p903
(dp904
g131
I1
ssS'it'
p905
(dp906
g26
I1
sg101
I2
sg33
I4
sg102
I3
sg75
I1
sg57
I1
sg29
I1
sg47
I3
sg19
I1
sg20
I1
sg67
I1
sg82
I2
sg130
I2
sg8
I3
sg36
I2
sg85
I1
sg86
I1
sg87
I1
sg27
I2
sg142
I1
sg66
I2
sg69
I1
sg16
I2
sg68
I2
sg28
I3
sg100
I3
sg136
I3
sg177
I2
sg139
I1
sg112
I2
sg129
I2
sg7
I4
sg12
I1
sg13
I1
sg72
I1
sg184
I2
sg120
I1
ssS'iv'
p907
(dp908
g39
I1
sg139
I1
ssS'ii'
p909
(dp910
g129
I1
ssS'io'
p911
(dp912
g85
I1
ssS'in'
p913
(dp914
g6
I5
sg26
I2
sg101
I8
sg33
I7
sg102
I2
sg75
I2
sg57
I6
sg29
I6
sg30
I2
sg220
I1
sg47
I3
sg3
I2
sg19
I6
sg20
I5
sg67
I1
sg128
I1
sg82
I4
sg11
I1
sg36
I2
sg87
I1
sg88
I1
sg161
I2
sg27
I8
sg142
I4
sg66
I6
sg69
I6
sg125
I2
sg50
I4
sg16
I7
sg68
I3
sg28
I8
sg97
I2
sg298
I1
sg100
I6
sg136
I1
sg177
I1
sg139
I2
sg112
I3
sg129
I5
sg7
I3
sg12
I1
sg13
I3
sg72
I4
sg131
I7
sg184
I5
ssS'vendor'
p915
(dp916
g16
I1
ssS'ie'
p917
(dp918
g13
I1
sg161
I1
ssS'id'
p919
(dp920
g143
I4
sg136
I1
sg26
I3
sg101
I2
sg69
I5
sg128
I1
sg57
I2
sg16
I1
sg142
I1
sg66
I4
sg33
I1
ssS'if'
p921
(dp922
g27
I1
sg20
I1
sg220
I1
sg136
I2
sg72
I1
sg26
I1
sg101
I2
sg177
I3
sg68
I2
sg100
I1
sg13
I2
sg66
I1
sg86
I1
sg87
I1
sg69
I3
ssS'agarwal'
p923
(dp924
g23
I1
ssS'containing'
p925
(dp926
g36
I2
sg85
I1
ssS'adversaries'
p927
(dp928
g129
I1
ssS'make'
p929
(dp930
g128
I1
sg13
I1
sg139
I1
ssS'potentially'
p931
(dp932
g129
I1
ssS'program-'
p933
(dp934
g109
I1
ssS'several'
p935
(dp936
g112
I1
sg102
I1
sg75
I1
sg129
I1
ssS'gaurav'
p937
(dp938
g3
I1
ssS'satellite'
p939
(dp940
g129
I1
ssS'eclipse-projectwtk22-apps'
p941
(dp942
g30
I1
ssS'wgs84'
p943
(dp944
g27
I2
sg28
I1
ssS'kumbhar'
p945
(dp946
g67
I1
ssS'505g'
p947
(dp948
g136
I1
ssS'kit'
p949
(dp950
g125
I1
sg112
I2
sg30
I1
ssS'topo'
p951
(dp952
g26
I1
sg69
I1
sg368
I1
sg33
I1
sg28
I1
ssS'tracker_address'
p953
(dp954
g143
I1
ssS'portal'
p955
(dp956
g72
I1
sg131
I1
sg184
I1
sg298
I1
ssS'tion)'
p957
(dp958
g101
I1
ssS'opportunity'
p959
(dp960
g139
I1
ssS'con-'
p961
(dp962
g120
I1
sg28
I1
ssS'kept'
p963
(dp964
g67
I1
sg8
I1
ssS'scenario'
p965
(dp966
g11
I2
sg12
I5
sg13
I5
sg131
I1
ssS'min'
p967
(dp968
g28
I1
ssS'uploading'
p969
(dp970
g136
I1
sg298
I1
ssS'contact'
p971
(dp972
g20
I1
sg82
I1
sg130
I1
ssS'telephone'
p973
(dp974
g7
I1
ssS'girma'
p975
(dp976
g215
I1
ssS'33'
p977
(dp978
g12
I1
sg54
I1
sg42
I1
sg125
I1
ssS'left'
p979
(dp980
g112
I1
ssS'just'
p981
(dp982
g86
I1
ssS'appli-'
p983
(dp984
g33
I1
ssS'proposes'
p985
(dp986
g66
I1
sg47
I2
sg82
I1
sg7
I1
ssS'identify'
p987
(dp988
g66
I1
ssS'victim'
p989
(dp990
g47
I1
ssS'integer'
p991
(dp992
g143
I10
sg57
I7
ssS'yet'
p993
(dp994
g100
I1
sg101
I1
sg66
I1
ssS'previous'
p995
(dp996
g26
I1
sg11
I1
sg69
I1
ssS'enters'
p997
(dp998
g11
I1
sg20
I1
sg12
I2
sg19
I2
ssS'j2se'
p999
(dp1000
g125
I1
ssS'traker'
p1001
(dp1002
g47
I1
sg368
I1
ssS'\xe2\x80\x9can'
p1003
(dp1004
g3
I1
sg298
I1
ssS'had'
p1005
(dp1006
g102
I4
sg128
I1
sg112
I1
sg129
I1
ssS'brainstorming'
p1007
(dp1008
g112
I1
ssS'board'
p1009
(dp1010
g47
I1
sg128
I1
sg8
I1
ssS'easy'
p1011
(dp1012
g129
I1
sg130
I1
ssS'\xe2\x80\x9cdynamic'
p1013
(dp1014
g67
I1
ssS'save'
p1015
(dp1016
g69
I1
sg47
I1
sg33
I1
sg8
I1
ssS'alur'
p1017
(dp1018
g97
I1
ssS'usable'
p1019
(dp1020
g33
I1
ssS'advances'
p1021
(dp1022
g129
I1
ssS'professional'
p1023
(dp1024
g33
I1
ssS'possible'
p1025
(dp1026
g33
I1
sg67
I1
sg160
I1
sg6
I3
ssS'background'
p1027
(dp1028
g23
I1
sg131
I1
ssS'unique'
p1029
(dp1030
g19
I1
sg66
I1
sg128
I1
sg50
I1
sg16
I1
ssS'advanced'
p1031
(dp1032
g67
I1
sg3
I1
ssS'amol'
p1033
(dp1034
g3
I2
ssS'55'
p1035
(dp1036
g245
I1
sg161
I1
ssS'54'
p1037
(dp1038
g245
I1
sg161
I1
ssS'services(sms'
p1039
(dp1040
g130
I1
ssS'51'
p1041
(dp1042
g20
I1
sg102
I1
sg160
I1
sg161
I1
sg245
I1
ssS'50'
p1043
(dp1044
g102
I1
ssS'53'
p1045
(dp1046
g102
I1
sg160
I1
sg245
I1
sg161
I1
sg13
I1
ssS'52'
p1047
(dp1048
g125
I1
sg20
I1
sg102
I1
sg160
I1
sg245
I1
sg161
I1
ssS'specific'
p1049
(dp1050
g26
I1
ssS'\xe2\x80\x9dsecure'
p1051
(dp1052
g33
I1
ssS'disconnects'
p1053
(dp1054
g88
I1
ssS'httpwwwandroidincom'
p1055
(dp1056
g298
I1
ssS'person_fk'
p1057
(dp1058
g143
I1
sg57
I1
ssS'entreprise'
p1059
(dp1060
g109
I1
sg69
I1
sg125
I1
sg29
I1
ssS'nsdi'
p1061
(dp1062
g298
I1
ssS'right'
p1063
(dp1064
g69
I1
ssS'instructorprofessor'
p1065
(dp1066
g131
I1
sg120
I1
ssS'people'
p1067
(dp1068
g47
I3
sg82
I1
ssS'sends'
p1069
(dp1070
g11
I1
sg12
I1
sg86
I1
sg68
I2
sg8
I1
ssS'manual'
p1071
(dp1072
g102
I1
sg8
I1
ssS'meghana'
p1073
(dp1074
g67
I1
ssS'man-'
p1075
(dp1076
g102
I1
ssS'gyroscopic'
p1077
(dp1078
g72
I1
ssS'\xe2\x80\x9d1\xe2\x80\x9d'
p1079
(dp1080
g101
I1
ssS'tutorial'
p1081
(dp1082
g633
I1
sg101
I1
sg97
I1
ssS'attendees'
p1083
(dp1084
g72
I1
ssS'tracked'
p1085
(dp1086
g69
I1
sg7
I1
ssS'for'
p1087
(dp1088
g51
I2
sg6
I1
sg101
I4
sg33
I4
sg102
I2
sg75
I1
sg57
I1
sg220
I1
sg47
I9
sg3
I2
sg19
I5
sg20
I4
sg67
I4
sg128
I1
sg82
I5
sg368
I1
sg130
I4
sg8
I4
sg11
I1
sg85
I1
sg87
I3
sg161
I1
sg142
I2
sg66
I2
sg125
I2
sg50
I1
sg16
I3
sg28
I1
sg97
I2
sg23
I1
sg298
I6
sg136
I3
sg177
I4
sg139
I4
sg112
I6
sg129
I7
sg7
I4
sg12
I2
sg39
I1
sg72
I6
sg131
I2
sg184
I1
sg120
I5
ssS'collect'
p1089
(dp1090
g33
I1
ssS'notification'
p1091
(dp1092
g177
I1
ssS'fox'
p1093
(dp1094
g125
I1
ssS'tracker'
p1095
(dp1096
g54
I1
sg50
I1
sg368
I1
sg29
I1
sg28
I1
sg8
I1
ssS'\xe2\x80\x9drefresh'
p1097
(dp1098
g69
I1
ssS'midlet'
p1099
(dp1100
g102
I1
sg51
I3
sg6
I2
sg26
I1
sg101
I1
sg33
I1
sg54
I1
sg50
I2
sg57
I2
sg68
I1
sg368
I3
sg633
I1
sg97
I1
sg125
I1
ssS'unstable'
p1101
(dp1102
g102
I2
ssS'core'
p1103
(dp1104
g97
I1
ssS'mantur'
p1105
(dp1106
g67
I1
ssS'binded'
p1107
(dp1108
g177
I1
ssS'deleted'
p1109
(dp1110
g69
I1
ssS'survase'
p1111
(dp1112
g67
I1
ssS'losing'
p1113
(dp1114
g161
I1
ssS'properties'
p1115
(dp1116
g29
I1
ssS'condi-'
p1117
(dp1118
g131
I1
ssS'accepts'
p1119
(dp1120
g12
I1
sg47
I1
ssS'o'
p1121
(dp1122
g100
I2
sg136
I1
ssS'(gps'
p1123
(dp1124
g26
I1
ssS'congdon2'
p1125
(dp1126
g298
I1
ssS'ensure'
p1127
(dp1128
g131
I1
ssS'span'
p1129
(dp1130
g72
I1
ssS'j2me'
p1131
(dp1132
g125
I1
sg57
I1
ssS'maharashtra'
p1133
(dp1134
g82
I2
ssS'automatically'
p1135
(dp1136
g142
I1
sg131
I1
ssS'destination'
p1137
(dp1138
g7
I1
sg8
I1
ssS'facility'
p1139
(dp1140
g130
I1
ssS'low-cost'
p1141
(dp1142
g67
I1
ssS'[online]'
p1143
(dp1144
g67
I1
ssS'locator'
p1145
(dp1146
g16
I1
sg67
I1
sg368
I1
sg68
I1
sg8
I1
ssS'mastud'
p1147
(dp1148
g67
I1
ssS'explain'
p1149
(dp1150
g27
I1
sg125
I1
sg28
I1
ssS'raises'
p1151
(dp1152
g33
I1
ssS'fruitful'
p1153
(dp1154
g130
I1
ssS'often'
p1155
(dp1156
g47
I1
ssS'east'
p1157
(dp1158
g27
I1
sg143
I1
sg69
I1
sg28
I1
sg66
I1
ssS'jdbc'
p1159
(dp1160
g29
I1
ssS'deshpande'
p1161
(dp1162
g3
I1
ssS'undiscovered'
p1163
(dp1164
g100
I1
ssS'altitude'
p1165
(dp1166
g101
I1
sg69
I1
sg143
I1
ssS'500-507'
p1167
(dp1168
g100
I1
sg136
I1
sg177
I2
sg139
I1
sg112
I1
sg129
I1
sg7
I1
ssS'authorized'
p1169
(dp1170
g19
I1
sg20
I1
ssS'way'
p1171
(dp1172
g72
I1
sg184
I1
ssS'(c)'
p1173
(dp1174
g51
I2
ssS'was'
p1175
(dp1176
g6
I1
sg33
I1
sg112
I1
sg129
I2
sg7
I1
sg67
I1
ssS'version)'
p1177
(dp1178
g102
I1
ssS'head'
p1179
(dp1180
g82
I1
ssS'medium'
p1181
(dp1182
g27
I1
ssS'form'
p1183
(dp1184
g19
I1
sg72
I1
sg82
I1
sg28
I2
ssS'offer'
p1185
(dp1186
g142
I1
sg100
I1
ssS'becoming'
p1187
(dp1188
g82
I1
ssS'differences'
p1189
(dp1190
g26
I1
ssS'back'
p1191
(dp1192
g33
I1
ssS'wireless'
p1193
(dp1194
g109
I1
sg97
I1
sg125
I1
sg72
I1
sg30
I1
ssS'map)'
p1195
(dp1196
g27
I1
ssS'positionentitybeanjava'
p1197
(dp1198
g75
I1
ssS'227'
p1199
(dp1200
g161
I1
ssS'true'
p1201
(dp1202
g86
I1
sg139
I1
ssS'[5'
p1203
(dp1204
g57
I1
ssS'[9'
p1205
(dp1206
g220
I1
sg16
I1
ssS'jboss'
p1207
(dp1208
g33
I1
ssS'attached'
p1209
(dp1210
g8
I1
ssS'maximum'
p1211
(dp1212
g27
I1
ssS'devices'
p1213
(dp1214
g47
I1
sg125
I1
sg112
I2
sg130
I1
sg13
I1
sg36
I2
sg85
I1
sg72
I4
sg131
I5
sg184
I3
ssS'monitored'
p1215
(dp1216
g120
I1
ssS'(cf'
p1217
(dp1218
g27
I1
ssS'emit'
p1219
(dp1220
g72
I1
sg131
I1
ssS'delete'
p1221
(dp1222
g26
I3
sg101
I1
sg69
I3
sg102
I1
ssS'150'
p1223
(dp1224
g125
I2
ssS'154'
p1225
(dp1226
g88
I1
ssS'25cm(approx)'
p1227
(dp1228
g87
I1
sg131
I1
ssS'computing'
p1229
(dp1230
g139
I1
sg3
I1
sg100
I1
sg136
I1
sg177
I2
sg54
I1
sg112
I1
sg129
I1
sg7
I2
ssS'504g'
p1231
(dp1232
g177
I1
ssS'request'
p1233
(dp1234
g26
I1
sg33
I1
sg75
I1
sg57
I3
sg68
I2
sg12
I1
ssS'abstract'
p1235
(dp1236
g82
I1
sg6
I1
sg7
I1
ssS'disclosing'
p1237
(dp1238
g129
I1
ssS'(35)'
p1239
(dp1240
g23
I1
ssS'exist'
p1241
(dp1242
g100
I1
sg47
I1
ssS'tooth'
p1243
(dp1244
g130
I1
ssS'trip'
p1245
(dp1246
g47
I1
ssS'requency'
p1247
(dp1248
g87
I1
sg131
I1
ssS'no'
p1249
(dp1250
g33
I2
sg69
I1
sg139
I1
sg82
I2
sg6
I1
ssS'things(wf-iot)'
p1251
(dp1252
g215
I1
ssS'when'
p1253
(dp1254
g72
I3
sg136
I1
sg6
I1
sg26
I2
sg66
I1
sg177
I3
sg33
I3
sg8
I1
sg19
I3
sg12
I1
sg20
I2
sg36
I1
sg85
I2
sg86
I1
sg87
I1
sg88
I3
ssS'role'
p1255
(dp1256
g142
I1
ssS'test'
p1257
(dp1258
g100
I5
sg102
I1
sg112
I1
sg125
I1
ssS'\xe2\x80\x9creal'
p1259
(dp1260
g67
I1
sg3
I1
ssS'developers'
p1261
(dp1262
g298
I1
ssS'io-client-java'
p1263
(dp1264
g115
I1
ssS'node'
p1265
(dp1266
g120
I1
ssS'audiovideo'
p1267
(dp1268
g139
I1
ssS'models'
p1269
(dp1270
g129
I1
sg120
I1
ssS'update'
p1271
(dp1272
g20
I2
sg72
I1
sg161
I1
ssS'(views)'
p1273
(dp1274
g85
I1
ssS'intent'
p1275
(dp1276
g100
I1
ssS'sql'
p1277
(dp1278
g27
I1
sg125
I1
ssS'authorities'
p1279
(dp1280
g136
I1
ssS'o\xe2\x80\x99reilly'
p1281
(dp1282
g97
I1
sg109
I1
ssS'wirelessly'
p1283
(dp1284
g129
I1
ssS'described\xe2\x80\x9d'
p1285
(dp1286
g57
I1
ssS'scholar'
p1287
(dp1288
g7
I1
ssS'assume'
p1289
(dp1290
g72
I2
sg13
I1
sg50
I1
ssS'modules'
p1291
(dp1292
g139
I1
sg75
I2
sg136
I1
sg54
I2
sg50
I4
sg368
I1
sg20
I2
ssS'daily'
p1293
(dp1294
g100
I1
sg129
I1
sg7
I1
ssS'(mobile'
p1295
(dp1296
g142
I1
sg66
I1
ssS'time'
p1297
(dp1298
g143
I4
sg47
I1
sg6
I1
sg298
I1
sg19
I2
sg101
I1
sg67
I1
sg128
I1
sg82
I4
sg16
I2
sg7
I1
sg8
I7
sg131
I2
sg184
I1
sg66
I1
sg28
I1
sg112
I1
sg69
I3
sg161
I2
sg3
I1
ssS'rotationmatrix[16]'
p1299
(dp1300
g86
I1
ssS'serious'
p1301
(dp1302
g220
I1
sg102
I2
ssS'precise'
p1303
(dp1304
g13
I1
ssS'concept'
p1305
(dp1306
g102
I2
sg220
I1
sg47
I2
ssS'managed'
p1307
(dp1308
g136
I1
sg33
I1
ssS'rom'
p1309
(dp1310
g29
I1
ssS'indicating'
p1311
(dp1312
g33
I1
ssS'focus'
p1313
(dp1314
g129
I1
sg130
I1
sg8
I1
ssS'leads'
p1315
(dp1316
g129
I1
ssS'manager'
p1317
(dp1318
g26
I3
sg101
I3
sg69
I4
sg139
I2
sg112
I1
sg131
I1
sg142
I1
sg87
I1
sg72
I1
ssS'manages'
p1319
(dp1320
g36
I1
sg86
I1
sg16
I1
ssS'invokeservlet'
p1321
(dp1322
g57
I1
ssS'displaying'
p1323
(dp1324
g112
I1
ssS'clarification'
p1325
(dp1326
g112
I1
ssS'19figure'
p1327
(dp1328
g75
I1
ssS'april'
p1329
(dp1330
g23
I1
sg3
I1
ssS'environment'
p1331
(dp1332
g139
I1
sg298
I1
sg102
I1
sg129
I1
sg131
I1
sg184
I1
ssS'finally'
p1333
(dp1334
g50
I1
sg16
I1
sg28
I1
ssS'jvm'
p1335
(dp1336
g82
I1
ssS'pace'
p1337
(dp1338
g161
I1
ssS'map\xe2\x80\x9d'
p1339
(dp1340
g177
I1
sg3
I1
ssS'screen'
p1341
(dp1342
g19
I2
sg20
I1
sg130
I1
ssS'smartphone'
p1343
(dp1344
g82
I1
ssS'string'
p1345
(dp1346
g27
I1
sg68
I2
sg85
I2
sg86
I2
sg87
I1
sg88
I10
ssS'two-way'
p1347
(dp1348
g184
I1
ssS'addname()'
p1349
(dp1350
g57
I1
ssS'e)'
p1351
(dp1352
g68
I2
ssS'7delete'
p1353
(dp1354
g69
I1
ssS'20284'
p1355
(dp1356
g215
I1
ssS'exact'
p1357
(dp1358
g136
I1
sg47
I1
sg82
I1
sg130
I1
ssS'tracker_track'
p1359
(dp1360
g143
I2
ssS'minute'
p1361
(dp1362
g13
I1
ssS'level'
p1363
(dp1364
g26
I1
sg129
I1
ssS'version=\\"10\\"'
p1365
(dp1366
g28
I1
ssS'encoding=\\"utf-8\\"?>"'
p1367
(dp1368
g28
I1
ssS'doesn\xe2\x80\x9ft'
p1369
(dp1370
g67
I1
ssS'team'
p1371
(dp1372
g160
I1
sg51
I2
sg6
I1
sg120
I1
ssS'joshi'
p1373
(dp1374
g67
I1
ssS'trackerejbperson'
p1375
(dp1376
g75
I1
ssS'500g'
p1377
(dp1378
g129
I1
ssS'slower'
p1379
(dp1380
g112
I1
ssS'30(c)'
p1381
(dp1382
g51
I1
ssS'(gsm'
p1383
(dp1384
g130
I1
ssS'stands'
p1385
(dp1386
g50
I1
ssS'current'
p1387
(dp1388
g26
I2
sg112
I1
sg177
I1
sg82
I1
sg7
I1
sg8
I2
sg19
I1
sg69
I4
sg161
I1
ssS'international'
p1389
(dp1390
g112
I1
sg3
I6
sg298
I1
sg100
I1
sg136
I1
sg177
I2
sg139
I1
sg82
I1
sg129
I1
sg7
I2
sg67
I2
ssS'domain1'
p1391
(dp1392
g29
I2
ssS'user\xe2\x80\x99s'
p1393
(dp1394
g633
I1
sg69
I5
sg109
I1
sg129
I3
sg30
I1
ssS'filled'
p1395
(dp1396
g29
I1
ssS'supporting'
p1397
(dp1398
g100
I1
sg120
I1
ssS'girod'
p1399
(dp1400
g298
I1
ssS'rbkrishna22@gmailcom'
p1401
(dp1402
g7
I1
ssS'learn'
p1403
(dp1404
g115
I1
ssS'sig-'
p1405
(dp1406
g47
I1
ssS'understanding'
p1407
(dp1408
g220
I1
ssS'311'
p1409
(dp1410
g125
I1
ssS'congestion'
p1411
(dp1412
g82
I1
ssS're'
p1413
(dp1414
g12
I1
ssS'along'
p1415
(dp1416
g130
I1
sg36
I1
sg85
I1
sg72
I1
sg131
I1
sg120
I1
ssS'change'
p1417
(dp1418
g101
I2
sg131
I1
sg6
I1
sg88
I1
ssS'wait'
p1419
(dp1420
g82
I1
sg57
I1
ssS'box'
p1421
(dp1422
g139
I1
ssS'sending'
p1423
(dp1424
g19
I1
sg66
I1
sg102
I1
sg51
I1
ssS'attentionflag'
p1425
(dp1426
g86
I1
ssS'\xe2\x80\x9ddatabase'
p1427
(dp1428
g16
I1
ssS'commonly'
p1429
(dp1430
g82
I1
ssS'xxxyyy'
p1431
(dp1432
g28
I1
ssS'438'
p1433
(dp1434
g367
I1
sg88
I1
ssS'436'
p1435
(dp1436
g367
I1
sg87
I1
ssS'437'
p1437
(dp1438
g367
I1
sg88
I1
ssS'434'
p1439
(dp1440
g170
I1
sg86
I1
ssS'435'
p1441
(dp1442
g170
I1
sg87
I1
ssS'432'
p1443
(dp1444
g26
I1
sg633
I1
sg170
I1
sg85
I1
ssS'433'
p1445
(dp1446
g170
I1
sg86
I1
ssS'431'
p1447
(dp1448
g633
I1
sg36
I1
sg170
I1
ssS'useful'
p1449
(dp1450
g112
I1
sg8
I1
ssS'extra'
p1451
(dp1452
g112
I1
sg82
I1
ssS'licensing'
p1453
(dp1454
g139
I1
ssS'operational'
p1455
(dp1456
g69
I1
sg54
I1
ssS'market'
p1457
(dp1458
g47
I1
sg7
I1
ssS'hotels'
p1459
(dp1460
g129
I1
ssS'manini'
p1461
(dp1462
g67
I1
ssS'handled'
p1463
(dp1464
g131
I1
ssS'working'
p1465
(dp1466
g67
I1
sg8
I1
ssS'positive'
p1467
(dp1468
g72
I1
ssS'time-table'
p1469
(dp1470
g8
I1
ssS'\xe2\x80\x9cmobile'
p1471
(dp1472
g3
I1
ssS'by'
p1473
(dp1474
g51
I1
sg26
I1
sg101
I1
sg102
I1
sg47
I1
sg20
I1
sg128
I1
sg82
I2
sg130
I2
sg8
I1
sg36
I1
sg85
I4
sg87
I4
sg88
I4
sg27
I3
sg125
I2
sg50
I1
sg16
I1
sg28
I1
sg97
I2
sg23
I2
sg100
I1
sg112
I1
sg129
I1
sg12
I3
sg72
I3
sg131
I4
sg184
I2
sg120
I1
ssS'scenarios'
p1475
(dp1476
g72
I1
ssS'live'
p1477
(dp1478
g130
I1
ssS'handler'
p1479
(dp1480
g36
I1
sg85
I1
ssS'memory'
p1481
(dp1482
g102
I1
sg112
I1
ssS'scope'
p1483
(dp1484
g23
I1
sg184
I1
sg136
I1
ssS're-looked'
p1485
(dp1486
g6
I1
ssS'msc'
p1487
(dp1488
g54
I1
ssS'diagrams'
p1489
(dp1490
g161
I1
sg120
I2
ssS'sharing'
p1491
(dp1492
g129
I1
ssS'sessions'
p1493
(dp1494
g11
I1
ssS'tracker_pk'
p1495
(dp1496
g143
I1
ssS'(using'
p1497
(dp1498
g51
I2
sg75
I1
ssS'everywhere'
p1499
(dp1500
g100
I1
ssS'cases'
p1501
(dp1502
g142
I6
sg54
I1
sg12
I1
sg13
I3
sg161
I1
sg11
I1
sg72
I1
sg42
I1
ssS'effort'
p1503
(dp1504
g100
I1
ssS'dlet'
p1505
(dp1506
g57
I1
ssS'graphic'
p1507
(dp1508
g27
I2
sg6
I1
ssS'+"<latitude>")'
p1509
(dp1510
g27
I1
ssS'indicates'
p1511
(dp1512
g13
I1
ssS'car'
p1513
(dp1514
g47
I1
ssS'originally'
p1515
(dp1516
g7
I1
ssS'overloaded'
p1517
(dp1518
g8
I1
ssS'soul'
p1519
(dp1520
g128
I1
ssS'longitude'
p1521
(dp1522
g27
I1
sg19
I1
sg82
I1
ssS'tracker_address(id)'
p1523
(dp1524
g143
I1
ssS'values'
p1525
(dp1526
g12
I1
sg86
I1
sg50
I1
sg13
I1
ssS'can'
p1527
(dp1528
g26
I4
sg101
I1
sg33
I1
sg30
I1
sg220
I2
sg47
I1
sg128
I5
sg130
I1
sg8
I1
sg36
I1
sg87
I1
sg161
I1
sg142
I4
sg66
I3
sg69
I3
sg28
I1
sg100
I5
sg136
I3
sg177
I7
sg129
I1
sg7
I1
sg72
I1
sg131
I2
ssS'5810'
p1529
(dp1530
g82
I1
ssS'making'
p1531
(dp1532
g100
I1
ssS'arrive'
p1533
(dp1534
g19
I1
sg82
I1
sg8
I1
ssS'(d)'
p1535
(dp1536
g51
I1
ssS'150000'
p1537
(dp1538
g27
I1
ssS'nearest'
p1539
(dp1540
g177
I1
sg129
I1
ssS'relaying'
p1541
(dp1542
g131
I1
ssS'figure'
p1543
(dp1544
g136
I2
sg47
I1
sg19
I7
sg100
I1
sg298
I1
sg26
I1
sg101
I2
sg177
I8
sg128
I1
sg75
I2
sg57
I3
sg16
I4
sg142
I2
sg13
I2
sg50
I4
sg20
I2
sg36
I1
sg112
I1
sg161
I6
sg139
I3
ssS'application)'
p1545
(dp1546
g142
I2
ssS'sample'
p1547
(dp1548
g27
I1
sg29
I1
ssS'ondisconnecteventlistener()'
p1549
(dp1550
g85
I1
sg88
I1
ssS'servicelocatorsunremotejava'
p1551
(dp1552
g30
I1
ssS'performed'
p1553
(dp1554
g136
I1
ssS'234'
p1555
(dp1556
g7
I1
ssS'listens'
p1557
(dp1558
g87
I1
ssS'students\xe2\x80\x99'
p1559
(dp1560
g36
I1
sg72
I1
sg131
I2
sg184
I2
ssS'requirements'
p1561
(dp1562
g367
I3
sg142
I1
sg69
I1
sg54
I2
sg112
I2
sg13
I1
sg161
I3
ssS'divided'
p1563
(dp1564
g75
I1
ssS'1'
p1565
(dp1566
g51
I2
sg26
I2
sg101
I1
sg29
I3
sg160
I1
sg220
I1
sg47
I2
sg20
I2
sg54
I1
sg82
I4
sg11
I5
sg36
I2
sg85
I2
sg86
I3
sg87
I3
sg88
I2
sg142
I2
sg66
I4
sg69
I1
sg125
I2
sg50
I1
sg16
I1
sg23
I5
sg139
I1
sg112
I1
sg7
I3
sg12
I6
sg13
I4
sg39
I1
ssS'pure'
p1567
(dp1568
g102
I1
ssS'beans'
p1569
(dp1570
g50
I3
sg125
I1
sg51
I2
sg16
I2
sg68
I1
ssS'parameter'
p1571
(dp1572
g69
I1
sg28
I1
ssS'map'
p1573
(dp1574
g27
I4
sg47
I2
sg6
I3
sg298
I1
sg26
I1
sg101
I2
sg177
I2
sg139
I1
sg368
I2
sg28
I2
sg100
I1
sg136
I1
sg33
I1
ssS'product'
p1575
(dp1576
g72
I1
sg82
I1
sg130
I1
ssS'explorer'
p1577
(dp1578
g125
I1
ssS'+"<longitude>")'
p1579
(dp1580
g27
I1
ssS'information'
p1581
(dp1582
g3
I1
sg19
I1
sg20
I2
sg177
I1
sg128
I3
sg82
I1
sg129
I2
sg7
I2
sg8
I2
sg13
I2
sg161
I1
sg120
I1
ssS'may'
p1583
(dp1584
g72
I1
sg298
I1
sg82
I1
sg8
I2
ssS'sno'
p1585
(dp1586
g39
I1
ssS'sp2'
p1587
(dp1588
g125
I1
ssS'needs'
p1589
(dp1590
g142
I1
sg20
I1
sg125
I1
sg16
I1
sg100
I1
sg86
I1
ssS'applications'
p1591
(dp1592
g47
I4
sg298
I1
sg100
I3
sg102
I1
sg112
I4
sg129
I2
sg29
I2
sg7
I1
sg130
I1
sg72
I1
sg139
I2
ssS'4th'
p1593
(dp1594
g109
I1
ssS'designed'
p1595
(dp1596
g100
I1
sg298
I2
sg8
I1
ssS'messaging'
p1597
(dp1598
g130
I1
ssS'geo-positioning'
p1599
(dp1600
g47
I1
ssS'such'
p1601
(dp1602
g33
I1
sg6
I1
sg129
I2
ssS'data'
p1603
(dp1604
g72
I1
sg139
I3
sg142
I1
sg66
I2
sg367
I1
sg57
I1
sg68
I2
sg131
I1
sg12
I2
sg184
I1
sg11
I1
sg36
I1
sg85
I1
sg86
I3
sg87
I1
sg88
I4
sg161
I1
ssS'classroom'
p1605
(dp1606
g72
I1
sg131
I1
sg184
I1
ssS'johnson'
p1607
(dp1608
g3
I1
sg7
I1
ssS'whenever'
p1609
(dp1610
g131
I1
ssS'explicit'
p1611
(dp1612
g220
I1
ssS'pictorial'
p1613
(dp1614
g13
I1
ssS'android\xe2\x80\x9f'
p1615
(dp1616
g67
I1
ssS'switch'
p1617
(dp1618
g47
I1
sg6
I2
ssS'so'
p1619
(dp1620
g102
I1
sg82
I1
sg161
I1
ssS'sm'
p1621
(dp1622
g86
I1
ssS'ejbcre-'
p1623
(dp1624
g16
I1
ssS'sd'
p1625
(dp1626
g86
I1
ssS'freeride'
p1627
(dp1628
g220
I1
sg47
I1
ssS'noteworthy'
p1629
(dp1630
g139
I1
ssS'displayed'
p1631
(dp1632
g177
I3
sg298
I1
ssS'entity'
p1633
(dp1634
g27
I1
sg170
I1
sg367
I1
sg51
I2
sg6
I2
sg102
I1
sg54
I1
sg50
I6
sg368
I1
sg68
I1
sg16
I4
sg11
I1
sg245
I1
sg161
I3
ssS'professors'
p1635
(dp1636
g72
I1
ssS'course'
p1637
(dp1638
g11
I2
sg101
I1
sg54
I1
sg88
I2
sg13
I1
ssS'still'
p1639
(dp1640
g100
I1
sg20
I1
sg33
I1
sg139
I1
sg16
I1
ssS'ieee'
p1641
(dp1642
g215
I1
sg298
I1
ssS'gps\xe2\x80\x9d'
p1643
(dp1644
g67
I1
sg3
I2
ssS'group'
p1645
(dp1646
g125
I1
ssS'monitor'
p1647
(dp1648
g170
I1
sg245
I1
sg184
I1
sg12
I5
sg42
I1
sg23
I1
sg11
I1
sg36
I2
sg86
I1
sg131
I2
sg161
I1
sg120
I1
ssS'menus'
p1649
(dp1650
g26
I1
ssS'selves'
p1651
(dp1652
g131
I1
ssS'presence'
p1653
(dp1654
g72
I1
ssS'coordinates'
p1655
(dp1656
g27
I1
sg47
I1
sg101
I1
sg69
I2
sg75
I1
sg28
I3
sg66
I4
ssS'platform'
p1657
(dp1658
g125
I3
sg112
I1
sg130
I1
sg7
I1
sg139
I1
ssS'window'
p1659
(dp1660
g27
I1
sg36
I1
sg139
I1
ssS'offers'
p1661
(dp1662
g26
I1
sg102
I1
ssS'6creation'
p1663
(dp1664
g66
I1
ssS'main'
p1665
(dp1666
g170
I1
sg101
I1
sg33
I2
sg125
I1
sg82
I1
sg368
I1
sg130
I1
sg8
I1
sg50
I2
sg11
I1
sg36
I1
sg85
I1
ssS'sensoreventlisteneronsensorchanged(sensorevent'
p1667
(dp1668
g87
I1
ssS'934'
p1669
(dp1670
g125
I1
ssS'float'
p1671
(dp1672
g86
I3
ssS'views'
p1673
(dp1674
g36
I1
sg85
I1
ssS'introduce'
p1675
(dp1676
g184
I1
ssS'records'
p1677
(dp1678
S'file2.txt,page.no21'
p1679
I1
sg6
I1
sg161
I1
sg88
I1
ssS'not'
p1680
(dp1681
g101
I1
sg33
I4
sg102
I1
sg75
I4
sg57
I6
sg47
I2
sg20
I1
sg67
I1
sg8
I1
sg161
I1
sg27
I1
sg143
I18
sg66
I3
sg69
I2
sg125
I1
sg16
I1
sg28
I2
sg100
I1
sg129
I1
sg12
I1
sg13
I1
sg72
I3
sg131
I1
ssS'now'
p1682
(dp1683
g142
I1
sg33
I1
sg50
I1
sg129
I1
sg57
I1
sg8
I1
ssS'(v3007xx)'
p1684
(dp1685
g125
I1
ssS'developments'
p1686
(dp1687
g129
I1
ssS'execute'
p1688
(dp1689
g29
I1
ssS'name'
p1690
(dp1691
g11
I1
sg142
I2
sg88
I2
sg20
I1
ssS'page1057-1061'
p1692
(dp1693
g67
I1
sg3
I1
ssS'lies'
p1694
(dp1695
g139
I1
ssS'establishing'
p1696
(dp1697
g72
I1
ssS'possibilities'
p1698
(dp1699
g66
I1
sg112
I1
sg29
I1
ssS'realise'
p1700
(dp1701
g75
I1
ssS'h'
p1702
(dp1703
g97
I3
sg298
I1
ssS'crupi'
p1704
(dp1705
g97
I1
ssS'entirely'
p1706
(dp1707
g97
I1
ssS'individually'
p1708
(dp1709
g100
I1
sg161
I1
ssS'domain'
p1710
(dp1711
g11
I1
sg100
I1
sg170
I1
sg29
I1
ssS'retrieve'
p1712
(dp1713
g139
I1
sg298
I1
ssS'scheme'
p1714
(dp1715
g129
I1
sg298
I1
ssS'2005q1'
p1716
(dp1717
g125
I1
ssS'unlock'
p1718
(dp1719
g102
I1
ssS'year'
p1720
(dp1721
g82
I1
ssS'et'
p1722
(dp1723
g100
I1
sg136
I1
sg177
I2
sg139
I1
sg112
I1
sg129
I3
sg7
I1
ssS'mapping'
p1724
(dp1725
g298
I1
ssS'summary'
p1726
(dp1727
g131
I1
sg161
I1
ssS'shown'
p1728
(dp1729
g26
I1
sg50
I2
sg139
I1
sg112
I1
sg57
I2
sg68
I1
ssS'accomplish'
p1730
(dp1731
g19
I1
ssS'container'
p1732
(dp1733
g54
I2
sg102
I1
sg50
I5
sg368
I2
sg28
I2
sg16
I4
ssS'ejbtrackerear'
p1734
(dp1735
g29
I5
ssS'furthermore'
p1736
(dp1737
g128
I1
ssS'ejb'
p1738
(dp1739
g27
I1
sg220
I2
sg102
I1
sg101
I1
sg54
I1
sg50
I3
sg368
I2
sg16
I2
sg125
I1
sg28
I2
ssS'rameter'
p1740
(dp1741
g27
I1
ssS'contained'
p1742
(dp1743
g27
I1
sg50
I1
ssS'internet'
p1744
(dp1745
g47
I1
sg215
I1
sg19
I1
sg69
I2
sg125
I2
sg129
I1
sg8
I1
sg33
I1
ssS'receiving'
p1746
(dp1747
g128
I1
ssS'sensor'
p1748
(dp1749
g72
I3
sg131
I3
sg12
I2
sg36
I1
sg86
I4
sg87
I3
sg88
I1
sg184
I3
sg120
I1
ssS'correct'
p1750
(dp1751
g11
I1
sg29
I1
ssS'shows'
p1752
(dp1753
g142
I1
sg101
I1
sg177
I4
sg50
I1
sg16
I1
sg19
I3
sg12
I2
sg13
I1
sg136
I1
sg36
I1
sg69
I1
sg161
I1
ssS'fribourg'
p1754
(dp1755
g54
I1
ssS'\xe2\x80\x9cstop\xe2\x80\x9d'
p1756
(dp1757
g136
I1
ssS'possibility'
p1758
(dp1759
g220
I1
sg47
I1
ssS'quite'
p1760
(dp1761
g102
I1
sg16
I1
ssS'recordings'
p1762
(dp1763
g86
I2
ssS'dependencies'
p1764
(dp1765
g700
I1
sg72
I1
ssS'18347'
p1766
(dp1767
g57
I1
ssS'besides'
p1768
(dp1769
g82
I1
ssS'\xef\x82\xb7'
p1770
(dp1771
g139
I8
sg20
I2
sg128
I2
sg112
I4
sg130
I7
sg136
I4
ssS'monitor5'
p1772
(dp1773
g161
I1
ssS'care'
p1774
(dp1775
g36
I1
ssS'wtk22-appsmobiltracker'
p1776
(dp1777
g30
I1
ssS'language'
p1778
(dp1779
g125
I1
ssS'avdhut'
p1780
(dp1781
g67
I1
ssS'jdbcpointbaseserverlocalhost9092sample'
p1782
(dp1783
g29
I1
ssS'programming'
p1784
(dp1785
g109
I1
sg112
I1
ssS'thing'
p1786
(dp1787
g36
I1
ssS'postnewposition'
p1788
(dp1789
g68
I1
ssS'place'
p1790
(dp1791
g184
I1
ssS'u4'
p1792
(dp1793
g12
I1
sg42
I1
ssS'routes'
p1794
(dp1795
g298
I1
sg136
I2
sg177
I2
sg128
I1
sg82
I1
sg7
I1
sg8
I1
ssS'ture'
p1796
(dp1797
g57
I1
ssS'support'
p1798
(dp1799
g139
I1
sg130
I1
ssS'first'
p1800
(dp1801
g27
I1
sg142
I2
sg101
I2
sg33
I1
sg30
I1
sg66
I2
sg36
I1
sg28
I1
sg120
I1
ssS'fetched'
p1802
(dp1803
g177
I2
ssS'kernel'
p1804
(dp1805
g112
I1
ssS'faculty'
p1806
(dp1807
g7
I1
ssS'but-'
p1808
(dp1809
g57
I1
ssS'one'
p1810
(dp1811
g47
I1
sg298
I1
sg26
I3
sg66
I1
sg69
I4
sg102
I1
sg16
I1
sg7
I1
sg100
I2
sg12
I1
sg72
I1
sg184
I1
ssS'fetches'
p1812
(dp1813
g136
I1
sg177
I1
sg85
I1
ssS'fast'
p1814
(dp1815
g161
I1
ssS'directly'
p1816
(dp1817
g16
I1
ssS'carry'
p1818
(dp1819
g100
I1
ssS'impossible'
p1820
(dp1821
g16
I1
ssS'message'
p1822
(dp1823
g69
I1
sg177
I1
sg128
I1
sg12
I5
sg13
I1
sg11
I2
sg86
I2
sg72
I1
sg88
I2
sg161
I1
ssS'open'
p1824
(dp1825
g26
I1
sg33
I1
sg102
I1
sg82
I1
sg129
I1
sg29
I1
sg100
I1
sg7
I1
sg130
I2
ssS'salunkeshrinivas'
p1826
(dp1827
g67
I1
ssS'city'
p1828
(dp1829
g142
I1
sg143
I1
sg47
I1
ssS'given'
p1830
(dp1831
g27
I2
sg19
I1
sg66
I1
sg128
I1
sg16
I1
sg29
I1
sg28
I2
sg12
I1
sg130
I1
sg129
I1
sg161
I1
ssS'sensorssensors_overviewhtml'
p1832
(dp1833
g115
I1
ssS'2320-088x'
p1834
(dp1835
g3
I1
ssS'2320\xe2\x80\x93088x'
p1836
(dp1837
g7
I1
ssS'sub-systems'
p1838
(dp1839
g136
I1
ssS'indicate'
p1840
(dp1841
g47
I1
ssS'returns'
p1842
(dp1843
g13
I1
ssS'2'
p1844
(dp1845
g54
I1
sg51
I2
sg6
I1
sg26
I2
sg101
I2
sg57
I1
sg29
I4
sg160
I1
sg47
I1
sg215
I1
sg3
I1
sg19
I1
sg20
I3
sg128
I1
sg82
I4
sg8
I1
sg11
I6
sg36
I2
sg85
I2
sg86
I2
sg87
I3
sg88
I2
sg142
I5
sg66
I4
sg69
I2
sg125
I2
sg50
I2
sg16
I1
sg23
I1
sg139
I2
sg7
I2
sg12
I4
sg13
I4
sg39
I1
ssS'31references'
p1846
(dp1847
g97
I1
ssS'gives'
p1848
(dp1849
g47
I1
sg136
I2
sg69
I1
sg139
I1
sg7
I1
sg72
I1
ssS'\xe2\x80\x9dnot'
p1850
(dp1851
g57
I1
ssS'anup'
p1852
(dp1853
g23
I1
ssS'that'
p1854
(dp1855
g26
I1
sg101
I1
sg33
I3
sg102
I1
sg75
I2
sg57
I1
sg29
I1
sg19
I1
sg20
I1
sg128
I2
sg82
I1
sg130
I1
sg11
I1
sg36
I2
sg85
I1
sg86
I1
sg161
I1
sg142
I1
sg50
I1
sg16
I1
sg28
I1
sg100
I3
sg136
I1
sg177
I1
sg139
I2
sg112
I4
sg129
I8
sg7
I2
sg12
I1
sg72
I4
sg131
I1
sg184
I4
ssS'continuous'
p1856
(dp1857
g129
I1
ssS'accurately'
p1858
(dp1859
g129
I1
ssS'viewing'
p1860
(dp1861
g11
I1
ssS'coordinate\xe2\x80\x99s'
p1862
(dp1863
g27
I1
ssS'copy'
p1864
(dp1865
g29
I1
ssS'than'
p1866
(dp1867
g26
I1
sg66
I1
sg7
I1
ssS'specify'
p1868
(dp1869
g29
I1
ssS'11'
p1870
(dp1871
g220
I1
sg367
I1
sg3
I1
sg633
I2
sg160
I1
sg54
I1
sg75
I2
sg23
I1
sg184
I1
sg120
I2
ssS'10'
p1872
(dp1873
g220
I1
sg633
I3
sg75
I1
sS'file2.txt,page.no18'
p1874
I3
sg367
I5
sg160
I1
sg142
I1
sg120
I1
ssS'13'
p1875
(dp1876
g220
I1
sg367
I2
sg26
I1
sg54
I1
sg368
I1
sg142
I1
sg23
I1
sg184
I1
ssS'12'
p1877
(dp1878
g220
I1
sg54
I1
sg101
I2
sg367
I2
sg368
I1
sg23
I2
sg161
I1
sg120
I1
ssS'15'
p1879
(dp1880
g220
I1
sg102
I1
sg368
I1
sg30
I1
ssS'14'
p1881
(dp1882
g26
I1
sg220
I1
sg367
I2
sg97
I1
sg368
I1
ssS'structure)'
p1883
(dp1884
g30
I1
ssS'16'
p1885
(dp1886
g220
I1
sg633
I1
sg33
I1
sg368
I1
sg245
I1
sg88
I1
ssS'19'
p1887
(dp1888
g633
I2
sg39
I1
sg220
I1
sg6
I1
sg368
I1
ssS'18'
p1889
(dp1890
g220
I1
sg6
I1
sg26
I1
sg368
I1
sg633
I1
sg39
I1
ssS'require'
p1891
(dp1892
g67
I1
sg129
I1
ssS'applet'
p1893
(dp1894
g27
I2
sg33
I1
sg28
I5
ssS'future'
p1895
(dp1896
g100
I3
sg75
I1
sg69
I1
sg128
I2
sg160
I1
sg66
I1
sg33
I1
ssS'were'
p1897
(dp1898
g102
I3
sg112
I2
sg125
I2
ssS'1)'
p1899
(dp1900
g101
I1
sg20
I1
ssS'com-'
p1901
(dp1902
g50
I1
ssS'browser'
p1903
(dp1904
g101
I1
sg177
I1
sg50
I1
sg368
I1
sg130
I1
sg28
I1
sg87
I1
ssS'and'
p1905
(dp1906
g128
I8
sg51
I10
sg6
I4
sg26
I5
sg101
I7
sg33
I10
sg102
I7
sg75
I5
sg57
I2
sg29
I9
sg30
I2
sg220
I2
sg47
I10
sg215
I2
sg3
I6
sg633
I1
sg20
I3
sg67
I4
sg54
I4
sg82
I7
sg368
I3
sg130
I6
sg8
I8
sg11
I3
sg36
I6
sg85
I9
sg86
I1
sg87
I4
sg88
I4
sg161
I4
sg27
I10
sg142
I1
sg66
I6
sg69
I5
sg125
I7
sg50
I10
sg16
I3
sg68
I3
sg28
I4
sg97
I8
sg109
I1
sg23
I2
sg700
I2
sg298
I8
sg100
I4
sg136
I12
sg177
I9
sg139
I7
sg112
I10
sg129
I9
sg7
I12
sg19
I5
sg12
I11
sg13
I6
sg72
I6
sg131
I10
sg184
I10
sg120
I3
ssS'sai'
p1907
(dp1908
g3
I1
ssS'documentation'
p1909
(dp1910
g112
I1
sg29
I2
sg115
I2
ssS'wwwijcsmccom'
p1911
(dp1912
g7
I1
ssS'dynamically'
p1913
(dp1914
g6
I1
ssS'locations'
p1915
(dp1916
g633
I1
sg29
I1
sg8
I1
ssS'postnewpositionjava'
p1917
(dp1918
g30
I1
ssS'ant'
p1919
(dp1920
g125
I1
ssS'say'
p1921
(dp1922
g177
I1
ssS'wtk22-apps'
p1923
(dp1924
g101
I1
ssS'any'
p1925
(dp1926
g220
I1
sg102
I1
sg142
I1
sg66
I2
sg67
I1
sg128
I2
sg8
I1
sg100
I1
sg69
I1
sg177
I1
ssS'mobiltracker'
p1927
(dp1928
g26
I1
ssS'recreated'
p1929
(dp1930
g102
I1
ssS'efficient'
p1931
(dp1932
g33
I1
ssS'note'
p1933
(dp1934
g57
I1
sg16
I1
ssS'take'
p1935
(dp1936
g136
I1
ssS'online'
p1937
(dp1938
g184
I1
sg7
I2
ssS'performance'
p1939
(dp1940
g367
I1
sg72
I1
sg128
I1
sg161
I1
ssS'(e)'
p1941
(dp1942
g51
I1
ssS'begin'
p1943
(dp1944
g26
I1
ssS'sure'
p1945
(dp1946
g128
I1
ssS'trace'
p1947
(dp1948
g129
I1
ssS'normal'
p1949
(dp1950
g101
I1
ssS'track'
p1951
(dp1952
g27
I2
sg136
I1
sg51
I2
sg6
I2
sg26
I16
sg101
I5
sg69
I11
sg128
I3
sg57
I1
sg7
I1
sg368
I2
sg142
I2
sg16
I1
sg100
I1
sg66
I8
sg28
I7
sg33
I2
ssS'syndication)'
p1953
(dp1954
g130
I1
ssS'decreasing'
p1955
(dp1956
g50
I1
ssS'bodoff'
p1957
(dp1958
g97
I1
ssS'remarks'
p1959
(dp1960
g39
I2
ssS'pages'
p1961
(dp1962
g6
I1
ssS'loginentitybeanjava'
p1963
(dp1964
g75
I1
ssS'latex'
p1965
(dp1966
g115
I1
ssS'especially'
p1967
(dp1968
g75
I1
ssS'fills'
p1969
(dp1970
g85
I1
ssS'average'
p1971
(dp1972
g20
I1
ssS'later'
p1973
(dp1974
g101
I1
sg131
I1
sg130
I1
ssS'(ex'
p1975
(dp1976
g27
I1
sg28
I1
ssS'vaishali'
p1977
(dp1978
g67
I1
ssS'(both'
p1979
(dp1980
g11
I1
sg13
I1
ssS'(59)'
p1981
(dp1982
g23
I1
ssS'understandable'
p1983
(dp1984
g161
I1
ssS'enabled'
p1985
(dp1986
g19
I1
ssS'walking'
p1987
(dp1988
g220
I1
ssS'trackmanagementstartremotetrack(data)'
p1989
(dp1990
g68
I1
ssS'in-out)'
p1991
(dp1992
g6
I1
ssS'show'
p1993
(dp1994
g26
I1
ssS'b05)'
p1995
(dp1996
g125
I1
ssS'kwon'
p1997
(dp1998
g215
I1
ssS'bmtc'
p1999
(dp2000
g100
I1
ssS'506g'
p2001
(dp2002
g100
I1
ssS'\xe2\x80\x9cget'
p2003
(dp2004
g177
I1
ssS'drawings'
p2005
(dp2006
g69
I1
ssS'349)'
p2007
(dp2008
g27
I1
ssS'xml'
p2009
(dp2010
g27
I1
ssS'specifically'
p2011
(dp2012
g112
I1
sg16
I1
ssS'ratio'
p2013
(dp2014
g27
I1
ssS'20281-20284'
p2015
(dp2016
g82
I1
ssS'25figure'
p2017
(dp2018
g102
I1
ssS'enough'
p2019
(dp2020
g102
I2
sg72
I2
sg161
I1
ssS'30note'
p2021
(dp2022
g220
I1
ssS'only'
p2023
(dp2024
g125
I1
sg100
I1
sg26
I2
sg20
I1
sg33
I3
sg102
I1
sg75
I2
sg57
I1
sg129
I1
sg142
I1
sg136
I1
ssS'going'
p2025
(dp2026
g27
I1
sg67
I1
sg8
I1
ssS'equipped'
p2027
(dp2028
g47
I1
sg129
I1
ssS'get'
p2029
(dp2030
g47
I2
sg26
I1
sg66
I1
sg128
I4
sg82
I1
sg8
I1
sg19
I1
sg28
I2
sg131
I1
ssS'ijcsmc'
p2031
(dp2032
g298
I1
sg100
I1
sg136
I1
sg177
I2
sg139
I1
sg112
I1
sg129
I1
sg7
I1
ssS'tracker_position'
p2033
(dp2034
g143
I2
ssS'builtxml'
p2035
(dp2036
g29
I1
ssS'prabhavathi'
p2037
(dp2038
g3
I1
ssS'cannot'
p2039
(dp2040
g7
I1
sg8
I1
ssS'neither'
p2041
(dp2042
g19
I1
ssS'24figure'
p2043
(dp2044
g26
I1
ssS'regarding'
p2045
(dp2046
g8
I1
ssS'covering'
p2047
(dp2048
g27
I1
ssS'jaerock'
p2049
(dp2050
g215
I1
ssS'kshirsagar'
p2051
(dp2052
g67
I1
ssS'requesting'
p2053
(dp2054
g97
I1
sg51
I1
sg12
I1
ssS'end_time'
p2055
(dp2056
g143
I1
ssS'2417'
p2057
(dp2058
g39
I1
ssS'where'
p2059
(dp2060
g220
I1
sg128
I1
sg142
I1
sg136
I1
sg33
I2
sg102
I1
sg50
I2
sg8
I1
sg125
I2
sg72
I1
sg184
I1
ssS'inside'
p2061
(dp2062
g131
I1
ssS'jemildajeba@yahoocom'
p2063
(dp2064
g7
I1
ssS'arrival'
p2065
(dp2066
g128
I1
sg8
I1
ssS'physically'
p2067
(dp2068
g220
I1
ssS'satti'
p2069
(dp2070
g23
I1
ssS'connections'
p2071
(dp2072
g36
I1
sg131
I1
ssS'login)'
p2073
(dp2074
g85
I1
ssS'college'
p2075
(dp2076
g3
I2
sg100
I2
sg136
I1
sg128
I5
sg82
I5
sg7
I3
sg130
I2
ssS'trace-based'
p2077
(dp2078
g129
I1
ssS'javabeans'
p2079
(dp2080
g69
I1
sg109
I1
ssS'(httplocalhost4848adminguitopframeset)'
p2081
(dp2082
g29
I1
ssS'nalling'
p2083
(dp2084
g47
I1
ssS'managing'
p2085
(dp2086
g128
I1
sg50
I1
sg16
I1
ssS'review'
p2087
(dp2088
g129
I1
sg184
I1
ssS'mon-'
p2089
(dp2090
g184
I1
ssS'sites'
p2091
(dp2092
g47
I1
ssS'whereabouts'
p2093
(dp2094
g136
I1
ssS'3'
p2095
(dp2096
g82
I3
sg29
I2
sg47
I1
sg3
I4
sg19
I1
sg20
I1
sg67
I3
sg54
I1
sg160
I1
sg368
I1
sg8
I1
sg11
I3
sg36
I1
sg85
I2
sg86
I2
sg88
I3
sg142
I3
sg69
I1
sg125
I1
sg50
I6
sg68
I1
sg42
I5
sg177
I2
sg7
I3
sg12
I3
sg13
I3
sg39
I1
sg184
I1
ssS'between'
p2097
(dp2098
g47
I1
sg6
I2
sg50
I1
sg33
I1
sg54
I1
sg75
I4
sg368
I1
sg16
I1
sg97
I1
sg125
I1
sg36
I2
sg85
I1
sg131
I3
sg87
I1
sg72
I2
sg184
I2
ssS'reading'
p2099
(dp2100
g86
I3
ssS'checks'
p2101
(dp2102
g12
I2
sg87
I1
ssS'startnewtrack'
p2103
(dp2104
g68
I1
ssS'affordable'
p2105
(dp2106
g82
I1
ssS'outprint(res)'
p2107
(dp2108
g68
I1
ssS'connection)'
p2109
(dp2110
g36
I1
ssS'jd'
p2111
(dp2112
g82
I2
ssS'article'
p2113
(dp2114
g7
I1
ssS'13figure'
p2115
(dp2116
g28
I1
ssS'onconnecteventlistener()'
p2117
(dp2118
g85
I1
ssS'pixels'
p2119
(dp2120
g27
I1
ssS'personentitybeanjava'
p2121
(dp2122
g75
I1
ssS'z'
p2123
(dp2124
g87
I1
sg131
I1
ssS'installation'
p2125
(dp2126
g633
I1
sg30
I1
ssS'many'
p2127
(dp2128
g102
I2
sg129
I1
sg130
I1
ssS'region'
p2129
(dp2130
g27
I1
ssS'according'
p2131
(dp2132
g27
I1
sg6
I1
ssS'enabling'
p2133
(dp2134
g139
I1
sg161
I1
ssS's'
p2135
(dp2136
g97
I1
sg3
I1
sg298
I2
ssS'e-issn'
p2137
(dp2138
g67
I1
ssS'mane'
p2139
(dp2140
g67
I1
ssS'address_id'
p2141
(dp2142
g143
I1
sg57
I1
ssS'overview'
p2143
(dp2144
g23
I1
sg72
I1
sg131
I1
sg184
I3
ssS'period'
p2145
(dp2146
g33
I1
ssS'innovations'
p2147
(dp2148
g3
I1
ssS'61'
p2149
(dp2150
g33
I1
sg367
I1
sg160
I1
sg161
I3
sg245
I1
ssS'62'
p2151
(dp2152
g160
I1
sg6
I1
ssS'63'
p2153
(dp2154
g13
I1
ssS'associated'
p2155
(dp2156
g129
I1
ssS'userid_pk'
p2157
(dp2158
g57
I1
ssS'jf'
p2159
(dp2160
g298
I1
ssS'specializing'
p2161
(dp2162
g184
I1
ssS'kyu-han'
p2163
(dp2164
g298
I1
ssS'bolaj'
p2165
(dp2166
g67
I1
ssS'accelerometer'
p2167
(dp2168
g86
I1
sg72
I2
sg131
I1
sg184
I1
sg120
I1
ssS'edits'
p2169
(dp2170
g39
I1
ssS'position_id'
p2171
(dp2172
g57
I1
ssS'29figure'
p2173
(dp2174
g6
I1
ssS'startconsolebat'
p2175
(dp2176
g29
I1
ssS'507'
p2177
(dp2178
g7
I1
sg298
I1
ssS'prototype'
p2179
(dp2180
g33
I2
sg75
I1
ssS'crawford'
p2181
(dp2182
g97
I1
ssS'wants'
p2183
(dp2184
g142
I1
ssS'motivations'
p2185
(dp2186
g220
I1
sg54
I1
ssS'enable'
p2187
(dp2188
g161
I1
ssS'instantiated'
p2189
(dp2190
g85
I1
ssS'sectors'
p2191
(dp2192
g7
I1
ssS'shanthini'
p2193
(dp2194
g3
I1
ssS'readings'
p2195
(dp2196
g131
I1
ssS'goran'
p2197
(dp2198
g298
I1
ssS'external'
p2199
(dp2200
g67
I1
sg102
I1
sg184
I1
sg8
I1
ssS'declaration'
p2201
(dp2202
g120
I1
ssS'encapsulation'
p2203
(dp2204
g86
I1
sg88
I2
ssS'attentive'
p2205
(dp2206
g12
I1
ssS'tamil'
p2207
(dp2208
g7
I2
ssS'those'
p2209
(dp2210
g220
I1
sg47
I1
sg129
I1
sg8
I1
ssS'instantiates'
p2211
(dp2212
g36
I2
sg87
I1
sg131
I1
ssS'case'
p2213
(dp2214
g6
I1
sg142
I3
sg66
I1
sg112
I1
sg368
I1
sg100
I1
sg13
I2
sg20
I1
sg245
I1
sg87
I1
sg131
I1
sg120
I1
ssS'170000'
p2215
(dp2216
g27
I1
ssS'ad-'
p2217
(dp2218
g13
I1
ssS'disconnected'
p2219
(dp2220
g88
I1
ssS'(same'
p2221
(dp2222
g28
I1
ssS'these'
p2223
(dp2224
g100
I3
sg125
I1
ssS'single'
p2225
(dp2226
g36
I1
ssS'compile'
p2227
(dp2228
g33
I1
ssS'ongoing'
p2229
(dp2230
g131
I1
ssS'httpjavasuncomj2ee14downloadhtmlsdk'
p2231
(dp2232
g29
I1
ssS'situation'
p2233
(dp2234
g75
I1
ssS'proximitydata'
p2235
(dp2236
g86
I1
ssS'23references'
p2237
(dp2238
g161
I1
ssS'orientation'
p2239
(dp2240
g72
I2
sg87
I1
sg131
I1
sg184
I1
ssS'chhaya'
p2241
(dp2242
g3
I1
ssS'saylee'
p2243
(dp2244
g3
I1
ssS'trackmanagementremove()'
p2245
(dp2246
g68
I1
ssS'telephony'
p2247
(dp2248
g139
I2
ssS'converts'
p2249
(dp2250
g28
I1
ssS'jemilda'
p2251
(dp2252
g3
I1
sg100
I1
sg136
I1
sg177
I2
sg139
I1
sg112
I1
sg129
I1
sg7
I2
ssS'trackdrawingclientjava'
p2253
(dp2254
g30
I1
ssS'technology'
p2255
(dp2256
g220
I1
sg215
I1
sg3
I3
sg50
I1
sg69
I1
sg82
I2
sg7
I3
sg67
I2
sg184
I1
ssS'different'
p2257
(dp2258
g47
I3
sg6
I1
sg142
I1
sg101
I2
sg69
I1
sg125
I1
sg75
I1
sg368
I1
sg16
I2
sg50
I2
sg129
I1
sg112
I1
ssS'develop'
p2259
(dp2260
g112
I1
sg75
I1
sg6
I1
ssS'tihanagalinacgrbac'
p2261
(dp2262
g298
I1
ssS'author'
p2263
(dp2264
g220
I1
sg97
I1
ssS'media'
p2265
(dp2266
g139
I1
sg112
I1
sg130
I1
ssS'servlets'
p2267
(dp2268
g27
I2
sg54
I1
sg50
I1
sg16
I5
sg28
I1
sg368
I3
sg97
I1
sg30
I1
ssS'userid_fk'
p2269
(dp2270
g57
I1
ssS'flight\xe2\x80\x99s'
p2271
(dp2272
g47
I1
ssS'check'
p2273
(dp2274
g29
I1
sg298
I1
ssS'authentication'
p2275
(dp2276
g177
I1
sg130
I1
sg161
I1
ssS'verifies'
p2277
(dp2278
g36
I1
sg85
I1
ssS'(address_id)'
p2279
(dp2280
g143
I1
ssS'otto'
p2281
(dp2282
g97
I1
sg125
I1
sg51
I3
ssS'2]'
p2283
(dp2284
g220
I1
ssS'pai'
p2285
(dp2286
g125
I1
ssS'document'
p2287
(dp2288
g23
I2
sg97
I1
sg102
I1
sg184
I1
sg120
I3
ssS'dated'
p2289
(dp2290
g161
I1
ssS'status'
p2291
(dp2292
g86
I1
sg54
I1
sg75
I1
ssS'messages'
p2293
(dp2294
g19
I1
sg139
I1
ssS'closest'
p2295
(dp2296
g47
I1
ssS'driver'
p2297
(dp2298
g139
I1
sg298
I1
sg19
I6
sg136
I7
sg177
I4
sg128
I1
sg82
I1
sg130
I2
sg20
I4
ssS'running'
p2299
(dp2300
g36
I1
sg184
I2
sg29
I1
ssS'(directory'
p2301
(dp2302
g29
I1
ssS'climbing'
p2303
(dp2304
g220
I1
ssS'refreshed'
p2305
(dp2306
g69
I1
ssS'location-based'
p2307
(dp2308
g129
I1
ssS'implements'
p2309
(dp2310
g86
I1
ssS'tracking'
p2311
(dp2312
g47
I1
sg215
I1
sg3
I3
sg298
I1
sg26
I1
sg136
I1
sg67
I3
sg128
I1
sg82
I4
sg129
I3
sg7
I1
sg8
I1
sg100
I1
sg102
I1
ssS'poveda)'
p2313
(dp2314
g75
I1
ssS'event)'
p2315
(dp2316
g87
I2
ssS'(source'
p2317
(dp2318
g97
I1
ssS'severe'
p2319
(dp2320
g102
I1
ssS'without'
p2321
(dp2322
g220
I1
sg102
I1
sg67
I1
sg28
I1
sg8
I1
ssS'components'
p2323
(dp2324
g100
I2
sg54
I1
sg50
I2
sg184
I1
sg125
I1
ssS'trains'
p2325
(dp2326
g128
I1
ssS'coordinate'
p2327
(dp2328
g6
I2
ssS'model'
p2329
(dp2330
g170
I1
sg11
I1
sg36
I1
sg85
I1
sg86
I1
sg87
I1
sg88
I2
ssS'pa-'
p2331
(dp2332
g27
I1
ssS'consisted'
p2333
(dp2334
g8
I1
ssS'216'
p2335
(dp2336
g161
I1
ssS'(x'
p2337
(dp2338
g87
I1
sg131
I1
ssS'being'
p2339
(dp2340
g82
I1
sg28
I1
ssS'actions'
p2341
(dp2342
g177
I2
sg86
I1
ssS'0){'
p2343
(dp2344
g68
I1
ssS'speed'
p2345
(dp2346
g20
I1
ssS'socket(string)'
p2347
(dp2348
g85
I1
ssS'gps-tracker'
p2349
(dp2350
g101
I1
ssS'generator'
p2351
(dp2352
g23
I1
sg120
I1
ssS'system\xe2\x80\x9d'
p2353
(dp2354
g67
I1
ssS'lets'
p2355
(dp2356
g86
I1
ssS'4'
p2357
(dp2358
g170
I1
sg82
I3
sg30
I1
sg220
I1
sg3
I3
sg633
I1
sg54
I2
sg160
I1
sg130
I1
sg11
I3
sg36
I1
sg86
I2
sg88
I3
sg142
I1
sg66
I1
sg69
I1
sg125
I1
sg50
I2
sg16
I1
sg68
I1
sg42
I7
sg177
I2
sg7
I3
sg19
I1
sg12
I3
sg13
I8
ssS'ginning'
p2359
(dp2360
g102
I1
ssS'real'
p2361
(dp2362
g47
I1
sg6
I1
sg69
I2
sg82
I2
sg8
I2
sg184
I1
sg131
I2
sg33
I4
sg161
I1
ssS'early'
p2363
(dp2364
g19
I1
sg82
I1
ssS'person_pk'
p2365
(dp2366
g143
I1
ssS'grid'
p2367
(dp2368
g27
I1
sg6
I1
sg28
I1
ssS'using'
p2369
(dp2370
g6
I1
sg26
I1
sg75
I1
sg57
I1
sg215
I1
sg3
I4
sg19
I1
sg20
I1
sg67
I3
sg368
I2
sg8
I3
sg27
I2
sg66
I2
sg69
I1
sg16
I1
sg68
I1
sg28
I2
sg100
I1
sg136
I2
sg139
I1
sg129
I1
sg7
I1
sg72
I3
sg184
I1
sg120
I1
ssS'accepted'
p2371
(dp2372
g12
I1
ssS'[10]'
p2373
(dp2374
g67
I1
ssS'exploit'
p2375
(dp2376
g72
I1
ssS'server'
p2377
(dp2378
g51
I2
sg6
I3
sg26
I3
sg101
I2
sg33
I2
sg367
I1
sg75
I2
sg29
I4
sg30
I3
sg47
I1
sg19
I1
sg20
I1
sg128
I1
sg368
I1
sg8
I3
sg11
I1
sg36
I3
sg85
I2
sg87
I3
sg115
I1
sg102
I5
sg142
I1
sg66
I3
sg69
I2
sg125
I4
sg50
I2
sg16
I1
sg28
I1
sg298
I1
sg136
I2
sg177
I2
sg13
I1
sg131
I3
sg184
I2
sg120
I1
ssS'2395'
p2379
(dp2380
g67
I1
ssS'manal'
p2381
(dp2382
g3
I1
ssS'always'
p2383
(dp2384
g72
I1
sg7
I3
ssS'output'
p2385
(dp2386
g36
I2
sg85
I2
sg86
I1
ssS'struc-'
p2387
(dp2388
g57
I1
ssS'[1]'
p2389
(dp2390
g298
I1
sg67
I1
sg16
I1
sg8
I1
sg97
I1
sg129
I1
sg72
I1
sg161
I1
ssS'topologic'
p2391
(dp2392
g47
I1
ssS'satisfactory'
p2393
(dp2394
g75
I1
ssS'mcgraw-hill'
p2395
(dp2396
g298
I1
ssS'exposes'
p2397
(dp2398
g112
I1
ssS'specified'
p2399
(dp2400
g11
I1
ssS'(j2ee'
p2401
(dp2402
g30
I1
ssS'matching'
p2403
(dp2404
g129
I1
ssS'provided'
p2405
(dp2406
g139
I1
sg19
I3
sg20
I1
sg128
I1
sg8
I1
sg125
I1
ssS'authenticate'
p2407
(dp2408
g33
I1
ssS'gunjal'
p2409
(dp2410
g67
I1
ssS'kml'
p2411
(dp2412
g27
I1
sg97
I1
sg28
I1
ssS'recorded'
p2413
(dp2414
g11
I1
sg66
I1
sg131
I1
ssS'extensively'
p2415
(dp2416
g129
I1
ssS'stops'
p2417
(dp2418
g298
I1
sg20
I1
sg177
I2
sg128
I1
sg82
I1
sg130
I1
sg8
I2
sg136
I1
ssS'provides'
p2419
(dp2420
g26
I1
sg139
I1
sg112
I1
sg130
I4
sg8
I1
ssS'staffs'
p2421
(dp2422
g20
I1
sg130
I2
ssS'httpssocketiodocsserver-api'
p2423
(dp2424
g115
I1
ssS'refer'
p2425
(dp2426
g220
I1
sg57
I1
ssS'measuring'
p2427
(dp2428
g13
I1
sg72
I1
ssS'trackerejbutil'
p2429
(dp2430
g30
I1
ssS'business'
p2431
(dp2432
g50
I2
sg7
I1
ssS'it-enabled'
p2433
(dp2434
g72
I1
sg184
I1
ssS'seconds'
p2435
(dp2436
g102
I1
ssS'14figure'
p2437
(dp2438
g28
I1
ssS'communicate'
p2439
(dp2440
g87
I1
sg7
I1
ssS'alps'
p2441
(dp2442
g129
I1
ssS'(really'
p2443
(dp2444
g130
I1
ssS'501g'
p2445
(dp2446
g112
I1
ssS'refers'
p2447
(dp2448
g184
I1
sg120
I1
ssS'manufacturer'
p2449
(dp2450
g47
I1
ssS'\xe2\x80\x9dtokenized\xe2\x80\x9d'
p2451
(dp2452
g27
I1
ssS'on'
p2453
(dp2454
g6
I1
sg26
I2
sg33
I2
sg102
I4
sg29
I3
sg30
I1
sg220
I2
sg47
I8
sg3
I1
sg67
I1
sg82
I3
sg368
I1
sg8
I2
sg36
I1
sg85
I1
sg161
I2
sg27
I1
sg66
I1
sg69
I3
sg50
I1
sg28
I3
sg298
I3
sg100
I2
sg136
I3
sg177
I1
sg129
I7
sg12
I1
sg72
I2
sg131
I2
sg184
I3
ssS'package'
p2455
(dp2456
g33
I1
ssS'instantaneously'
p2457
(dp2458
g7
I1
ssS'of'
p2459
(dp2460
g54
I6
sg51
I10
sg6
I9
sg26
I6
sg101
I2
sg33
I6
sg102
I8
sg75
I7
sg57
I3
sg29
I1
sg30
I1
sg220
I6
sg47
I12
sg215
I3
sg3
I5
sg19
I9
sg20
I3
sg67
I4
sg128
I12
sg160
I1
sg368
I7
sg130
I4
sg8
I10
sg11
I5
sg36
I3
sg85
I5
sg82
I13
sg88
I4
sg161
I4
sg27
I8
sg142
I2
sg66
I3
sg69
I6
sg125
I3
sg50
I8
sg16
I5
sg68
I2
sg28
I8
sg97
I4
sg23
I1
sg86
I1
sg298
I3
sg100
I9
sg136
I13
sg177
I14
sg139
I7
sg112
I8
sg129
I11
sg7
I10
sg12
I3
sg13
I7
sg245
I1
sg72
I6
sg131
I7
sg184
I6
sg120
I4
ssS'industry'
p2461
(dp2462
g7
I1
ssS'discussed'
p2463
(dp2464
g129
I1
ssS'karan'
p2465
(dp2466
g67
I1
ssS'tremendous'
p2467
(dp2468
g7
I1
ssS'supervised'
p2469
(dp2470
g23
I1
ssS'stand'
p2471
(dp2472
g33
I1
sg72
I1
ssS'trajectory'
p2473
(dp2474
g298
I1
ssS'seokju'
p2475
(dp2476
g215
I1
ssS'os'
p2477
(dp2478
g100
I1
sg125
I1
sg129
I1
ssS'or'
p2479
(dp2480
g220
I3
sg47
I1
sg142
I1
sg75
I1
sg177
I3
sg139
I7
sg82
I1
sg57
I2
sg29
I1
sg8
I1
sg19
I1
sg33
I2
sg13
I2
sg131
I1
sg20
I1
sg11
I1
sg129
I1
sg69
I1
ssS'road'
p2481
(dp2482
g47
I2
sg82
I1
ssS'0\xc2\xb0)'
p2483
(dp2484
g87
I1
sg131
I1
ssS'bhattacharyacontents'
p2485
(dp2486
g23
I1
ssS'(but'
p2487
(dp2488
g66
I1
ssS'communication'
p2489
(dp2490
g51
I1
sg6
I7
sg298
I1
sg75
I6
sg33
I1
sg54
I1
sg50
I1
sg368
I1
sg7
I1
sg97
I2
sg72
I2
sg131
I1
sg184
I1
ssS'tracker_person(id)'
p2491
(dp2492
g143
I1
sg57
I1
ssS'references'
p2493
(dp2494
g143
I2
sg67
I1
sg245
I1
sg57
I3
sg298
I1
ssS'determine'
p2495
(dp2496
g100
I1
sg184
I3
ssS'thiagarajan'
p2497
(dp2498
g298
I1
ssS'nowadays'
p2499
(dp2500
g47
I1
ssS'your'
p2501
(dp2502
g26
I1
ssS'log'
p2503
(dp2504
g19
I3
sg101
I1
sg69
I1
sg128
I1
sg20
I1
sg66
I1
ssS'area'
p2505
(dp2506
g20
I1
sg128
I1
sg72
I1
ssS'position_pk'
p2507
(dp2508
g143
I1
ssS'there'
p2509
(dp2510
g20
I2
sg47
I1
sg142
I1
sg82
I1
sg33
I2
sg50
I1
sg100
I1
sg66
I1
sg87
I1
sg72
I1
ssS'madden'
p2511
(dp2512
g298
I1
ssS'start'
p2513
(dp2514
g19
I1
sg298
I1
sg26
I2
sg136
I1
sg33
I1
sg142
I1
sg36
I1
sg87
I1
ssS'low'
p2515
(dp2516
g102
I1
ssS'lot'
p2517
(dp2518
g47
I2
sg75
I1
sg16
I1
sg130
I1
ssS'teamwork'
p2519
(dp2520
g112
I1
ssS'complete'
p2521
(dp2522
g27
I1
sg57
I1
sg368
I2
sg101
I1
sg16
I1
sg28
I1
sg120
I1
ssS'apis'
p2523
(dp2524
g139
I1
ssS'regard'
p2525
(dp2526
g67
I1
ssS'delayed'
p2527
(dp2528
g82
I1
ssS'jul'
p2529
(dp2530
g298
I1
ssS'sophisticated'
p2531
(dp2532
g13
I1
sg129
I1
ssS'viewtrackjsp'
p2533
(dp2534
g28
I1
ssS'methodologies'
p2535
(dp2536
g139
I1
ssS'technologies'
p2537
(dp2538
g23
I1
sg220
I1
sg125
I1
sg3
I1
sg131
I1
ssS'with'
p2539
(dp2540
g51
I1
sg6
I2
sg26
I2
sg33
I2
sg102
I2
sg75
I1
sg29
I6
sg30
I1
sg47
I2
sg19
I1
sg128
I1
sg160
I1
sg368
I2
sg130
I1
sg8
I1
sg36
I2
sg85
I1
sg87
I1
sg27
I1
sg142
I2
sg66
I1
sg125
I1
sg50
I1
sg16
I3
sg68
I1
sg28
I4
sg97
I2
sg100
I2
sg112
I2
sg129
I2
sg7
I2
sg13
I1
sg72
I3
sg131
I2
sg184
I1
sg120
I1
ssS'outprintln("<description>"+'
p2541
(dp2542
g28
I1
ssS'diagram5'
p2543
(dp2544
g161
I1
ssS'default'
p2545
(dp2546
g29
I1
ssS'varchar(15)'
p2547
(dp2548
g57
I1
ssS'detailed'
p2549
(dp2550
g120
I1
ssS'gone'
p2551
(dp2552
g7
I1
ssS'required'
p2553
(dp2554
g11
I1
sg20
I1
sg13
I2
sg82
I1
sg7
I1
ssS'ioexception'
p2555
(dp2556
g68
I1
ssS'pseudo'
p2557
(dp2558
g27
I1
ssS'describe'
p2559
(dp2560
g27
I2
sg75
I1
sg125
I1
sg50
I1
sg57
I1
sg16
I2
ssS'16table'
p2561
(dp2562
g143
I1
ssS'al'
p2563
(dp2564
g100
I1
sg136
I1
sg177
I2
sg139
I1
sg112
I1
sg129
I3
sg7
I1
ssS'deep'
p2565
(dp2566
g67
I1
ssS'an'
p2567
(dp2568
g6
I2
sg33
I3
sg102
I1
sg47
I1
sg3
I1
sg128
I1
sg82
I1
sg130
I1
sg8
I1
sg11
I1
sg36
I1
sg87
I1
sg69
I1
sg125
I1
sg50
I2
sg298
I1
sg100
I2
sg177
I1
sg139
I1
sg112
I2
sg129
I2
sg7
I4
sg12
I2
sg72
I1
sg131
I1
sg184
I4
ssS'as'
p2569
(dp2570
g26
I3
sg33
I1
sg102
I4
sg47
I3
sg67
I1
sg128
I3
sg82
I1
sg8
I1
sg11
I1
sg27
I4
sg66
I1
sg69
I1
sg50
I1
sg28
I4
sg100
I3
sg136
I1
sg139
I5
sg112
I1
sg129
I4
sg7
I4
sg12
I1
sg13
I1
sg72
I2
sg120
I1
ssS'at'
p2571
(dp2572
g27
I1
sg102
I3
sg51
I1
sg26
I1
sg33
I1
sg128
I1
sg82
I1
sg129
I1
sg7
I1
sg8
I3
sg19
I2
sg12
I4
sg13
I4
sg11
I1
sg30
I1
sg161
I1
ssS'file'
p2573
(dp2574
g125
I1
sg29
I4
sg30
I1
ssS'incorrect'
p2575
(dp2576
g12
I1
sg13
I1
ssS'again'
p2577
(dp2578
g33
I2
sg69
I1
sg57
I1
ssS'completeness'
p2579
(dp2580
g136
I1
ssS'gharge'
p2581
(dp2582
g3
I1
ssS'string)'
p2583
(dp2584
g36
I1
sg85
I1
ssS'drivers'
p2585
(dp2586
g19
I2
ssS'storage'
p2587
(dp2588
g27
I1
sg130
I1
ssS'authenticate(string'
p2589
(dp2590
g85
I1
ssS'orient'
p2591
(dp2592
g131
I1
ssS'field'
p2593
(dp2594
g101
I1
ssS'shanmuga'
p2595
(dp2596
g3
I1
ssS'valid'
p2597
(dp2598
g101
I1
ssS'5'
p2599
(dp2600
g220
I1
sg367
I1
sg19
I1
sg102
I2
sg160
I2
sg177
I2
sg54
I2
sg82
I3
sg16
I1
sg68
I1
sg142
I1
sg12
I3
sg125
I1
sg20
I1
sg69
I1
sg86
I1
sg88
I2
ssS'you'
p2601
(dp2602
g26
I2
ssS'(iosr-'
p2603
(dp2604
g67
I1
ssS'\xe2\x80\x9cstart\xe2\x80\x9d'
p2605
(dp2606
g136
I1
ssS'separate'
p2607
(dp2608
g16
I1
ssS'students'
p2609
(dp2610
g6
I1
sg19
I1
sg20
I2
sg177
I1
sg128
I1
sg82
I5
sg130
I2
sg8
I3
sg184
I2
sg136
I1
sg11
I1
sg85
I1
sg131
I5
sg87
I1
sg72
I4
sg161
I2
sg120
I1
ssS'monitor()'
p2611
(dp2612
g86
I1
ssS'genera-'
p2613
(dp2614
g161
I1
ssS'includes'
p2615
(dp2616
g20
I1
sg16
I1
sg120
I1
ssS'important'
p2617
(dp2618
g220
I1
sg75
I1
sg128
I1
sg82
I1
sg130
I1
sg28
I1
ssS'(mits'
p2619
(dp2620
g101
I1
ssS'package\xe2\x80\x99s'
p2621
(dp2622
g54
I1
sg75
I1
ssS'suresh'
p2623
(dp2624
g67
I1
ssS'2347\xe2\x80\x938586'
p2625
(dp2626
g67
I1
sg3
I1
ssS'calls'
p2627
(dp2628
g27
I1
sg139
I1
sg68
I1
sg28
I1
ssS'wifi'
p2629
(dp2630
g72
I1
sg6
I1
ssS'agnostically'
p2631
(dp2632
g112
I1
ssS'(deg'
p2633
(dp2634
g28
I1
ssS'brestovac'
p2635
(dp2636
g298
I1
ssS'directory'
p2637
(dp2638
g30
I1
ssS'transports'
p2639
(dp2640
g128
I1
ssS'original'
p2641
(dp2642
g39
I1
ssS'represent'
p2643
(dp2644
g142
I1
sg66
I1
sg97
I1
sg16
I1
ssS'all'
p2645
(dp2646
g6
I1
sg26
I1
sg101
I2
sg33
I2
sg102
I1
sg29
I1
sg128
I2
sg82
I1
sg8
I3
sg36
I1
sg85
I1
sg87
I1
sg27
I1
sg142
I1
sg69
I3
sg125
I1
sg298
I2
sg100
I1
sg136
I1
sg177
I2
sg139
I1
sg112
I1
sg129
I1
sg13
I1
ssS'consider'
p2647
(dp2648
g28
I1
ssS'forbidden'
p2649
(dp2650
g72
I1
ssS'drawtrackclass'
p2651
(dp2652
g68
I1
ssS'executing'
p2653
(dp2654
g100
I1
ssS'browsers'
p2655
(dp2656
g125
I1
sg50
I1
ssS'messy'
p2657
(dp2658
g102
I1
ssS'follow'
p2659
(dp2660
g142
I1
sg220
I1
sg6
I1
sg69
I2
ssS'(all'
p2661
(dp2662
g26
I1
ssS'rollno'
p2663
(dp2664
g88
I1
ssS'postnewpositionclass'
p2665
(dp2666
g16
I1
ssS'[11]'
p2667
(dp2668
g67
I1
sg130
I1
ssS'location\xe2\x80\x9d'
p2669
(dp2670
g177
I1
ssS'outprintln("<longitude>"+'
p2671
(dp2672
g27
I1
ssS'to'
p2673
(dp2674
g51
I3
sg6
I6
sg26
I5
sg101
I8
sg33
I10
sg102
I5
sg75
I3
sg57
I4
sg29
I6
sg160
I1
sg220
I2
sg47
I10
sg19
I11
sg20
I4
sg67
I2
sg128
I6
sg82
I5
sg368
I1
sg130
I5
sg8
I9
sg11
I5
sg36
I4
sg85
I1
sg86
I4
sg87
I5
sg161
I6
sg27
I10
sg142
I4
sg66
I6
sg69
I5
sg125
I1
sg50
I2
sg16
I6
sg68
I2
sg28
I7
sg97
I1
sg298
I6
sg100
I8
sg136
I8
sg177
I16
sg139
I4
sg112
I4
sg129
I8
sg7
I5
sg12
I10
sg13
I6
sg72
I7
sg131
I9
sg184
I7
sg120
I3
ssS'program'
p2675
(dp2676
g100
I2
sg33
I1
sg161
I2
ssS'presentation'
p2677
(dp2678
g29
I1
ssS'norm'
p2679
(dp2680
g12
I1
ssS'activities'
p2681
(dp2682
g220
I1
sg47
I1
sg100
I1
sg136
I1
sg33
I1
sg36
I1
ssS'overwhelmed'
p2683
(dp2684
g112
I1
ssS'global'
p2685
(dp2686
g129
I1
ssS'getaddressid'
p2687
(dp2688
g16
I1
ssS'very'
p2689
(dp2690
g220
I1
sg101
I2
sg102
I1
sg82
I1
sg68
I1
sg30
I1
sg112
I1
ssS'util'
p2691
(dp2692
g101
I1
ssS'decide'
p2693
(dp2694
g112
I1
ssS'tiresome'
p2695
(dp2696
g8
I1
ssS'evaluation'
p2697
(dp2698
g102
I2
sg160
I1
ssS'developing'
p2699
(dp2700
g129
I1
sg120
I1
ssS'list'
p2701
(dp2702
g27
I1
sg47
I1
sg6
I2
sg26
I4
sg136
I2
sg177
I2
sg128
I1
sg75
I2
sg368
I1
sg33
I1
sg28
I2
sg23
I1
sg69
I5
sg102
I1
sg139
I1
ssS'avalanche'
p2703
(dp2704
g47
I1
ssS'large'
p2705
(dp2706
g72
I1
sg16
I1
sg184
I1
ssS'small'
p2707
(dp2708
g47
I1
ssS'addressentitybeanjava'
p2709
(dp2710
g75
I1
ssS'portable'
p2711
(dp2712
g47
I2
ssS'kim2'
p2713
(dp2714
g298
I1
ssS'track-'
p2715
(dp2716
g28
I1
ssS'past'
p2717
(dp2718
g11
I2
sg184
I1
sg245
I1
sg42
I1
sg161
I1
ssS'invention'
p2719
(dp2720
g7
I1
ssS'design'
p2721
(dp2722
g128
I1
sg100
I1
sg367
I1
sg184
I3
sg23
I2
sg700
I1
sg72
I2
sg131
I3
sg161
I1
sg120
I1
ssS'displays'
p2723
(dp2724
g11
I3
sg12
I2
sg13
I5
sg8
I1
ssS'further'
p2725
(dp2726
g100
I1
sg72
I1
ssS'gprs)'
p2727
(dp2728
g75
I1
ssS'what'
p2729
(dp2730
g142
I3
sg101
I1
sg102
I1
sg75
I1
sg112
I1
ssS'17foreign'
p2731
(dp2732
g57
I1
ssS'richard'
p2733
(dp2734
g109
I1
ssS'clock'
p2735
(dp2736
g66
I1
ssS'sun'
p2737
(dp2738
g125
I2
sg101
I1
sg102
I2
sg30
I2
sg97
I1
sg109
I1
ssS'section'
p2739
(dp2740
g27
I1
sg16
I1
sg184
I1
ssS'brief'
p2741
(dp2742
g184
I1
ssS'version'
p2743
(dp2744
g33
I3
sg125
I4
sg109
I1
sg23
I1
sg161
I1
sg120
I2
ssS'student\xe2\x80\x99s'
p2745
(dp2746
g82
I1
sg184
I1
ssS'learned'
p2747
(dp2748
g112
I1
sg129
I1
ssS'method'
p2749
(dp2750
g27
I2
sg36
I1
sg57
I1
sg68
I2
sg28
I2
ssS'multinational'
p2751
(dp2752
g184
I1
ssS'full'
p2753
(dp2754
g33
I1
sg47
I1
sg125
I1
sg161
I1
sg139
I1
ssS'address_pk'
p2755
(dp2756
g143
I1
ssS'ma'
p2757
(dp2758
g298
I1
ssS'modify'
p2759
(dp2760
g26
I1
sg66
I1
sg177
I1
ssS'hours'
p2761
(dp2762
g97
I1
ssS'tracks'
p2763
(dp2764
g26
I2
sg101
I1
sg69
I4
sg102
I2
ssS'operating'
p2765
(dp2766
g72
I1
sg112
I3
sg184
I1
sg130
I1
ssS'pradip'
p2767
(dp2768
g67
I1
ssS'november'
p2769
(dp2770
g125
I1
sg3
I1
ssS'search'
p2771
(dp2772
g177
I2
sg47
I2
sg16
I1
sg161
I1
ssS'startnewtrackjava'
p2773
(dp2774
g30
I1
ssS'allows'
p2775
(dp2776
g85
I1
sg129
I2
sg184
I1
ssS'experience'
p2777
(dp2778
g67
I1
sg112
I2
sg130
I1
sg298
I1
ssS'action'
p2779
(dp2780
g142
I1
sg57
I1
ssS'dirappserverpointbasetoolsserveroption'
p2781
(dp2782
g29
I1
ssS'options'
p2783
(dp2784
g26
I1
sg66
I1
sg177
I2
sg13
I1
sg69
I1
ssS'mipro'
p2785
(dp2786
g298
I1
ssS'via'
p2787
(dp2788
g177
I1
sg129
I1
sg8
I1
sg131
I1
sg184
I1
sg67
I1
ssS'followed'
p2789
(dp2790
g142
I1
sg47
I1
sg161
I1
ssS'family'
p2791
(dp2792
g220
I1
ssS'buses'
p2793
(dp2794
g100
I2
sg136
I1
sg128
I2
sg82
I2
sg7
I1
sg8
I2
ssS'vii'
p2795
(dp2796
g100
I1
ssS'glitch'
p2797
(dp2798
g161
I1
ssS'analyzing'
p2799
(dp2800
g100
I1
ssS'tomtom'
p2801
(dp2802
g47
I1
ssS'establish'
p2803
(dp2804
g131
I1
ssS'estimate'
p2805
(dp2806
g7
I1
ssS'select'
p2807
(dp2808
g26
I1
sg136
I2
sg177
I3
sg13
I1
ssS'attendance'
p2809
(dp2810
g161
I1
ssS'takes'
p2811
(dp2812
g36
I1
sg86
I1
sg298
I1
ssS'5(2)'
p2813
(dp2814
g3
I1
ssS'contains'
p2815
(dp2816
g66
I1
sg139
I1
sg50
I2
sg16
I1
sg29
I1
ssS'two'
p2817
(dp2818
g125
I2
sg298
I1
sg26
I2
sg66
I2
sg69
I1
sg102
I1
sg16
I1
sg72
I1
ssS'reference-documentation'
p2819
(dp2820
g101
I1
ssS'6'
p2821
(dp2822
g170
I2
sg128
I2
sg215
I1
sg142
I1
sg160
I2
sg177
I2
sg367
I1
sg82
I1
sg57
I1
sg16
I1
sg54
I2
sg12
I1
sg125
I1
sg20
I1
sg39
I1
sg19
I2
sg28
I1
sg33
I1
ssS'taken'
p2823
(dp2824
g27
I1
sg66
I1
sg100
I1
ssS'under)'
p2825
(dp2826
g28
I1
ssS'(under'
p2827
(dp2828
g29
I1
ssS'authorization'
p2829
(dp2830
g177
I1
ssS'more'
p2831
(dp2832
g47
I1
sg66
I1
sg112
I1
sg57
I2
sg7
I1
sg129
I1
sg82
I4
ssS'person)'
p2833
(dp2834
g47
I1
ssS'knows'
p2835
(dp2836
g50
I1
ssS'initiated'
p2837
(dp2838
g12
I2
sg131
I1
ssS'startatrack'
p2839
(dp2840
g68
I1
ssS'company'
p2841
(dp2842
g184
I1
ssS'stable'
p2843
(dp2844
g102
I1
ssS'vm'
p2845
(dp2846
g125
I1
ssS'tested'
p2847
(dp2848
g100
I2
ssS'flag'
p2849
(dp2850
g86
I1
sg87
I1
sg88
I1
sg131
I1
ssS'basically'
p2851
(dp2852
g102
I1
ssS'particular'
p2853
(dp2854
g298
I1
sg26
I1
sg82
I1
sg19
I1
sg11
I1
sg88
I1
sg161
I1
ssS'known'
p2855
(dp2856
g102
I1
sg160
I1
ssS'socket-client'
p2857
(dp2858
g85
I1
ssS'science'
p2859
(dp2860
g3
I4
sg100
I1
sg136
I1
sg177
I2
sg139
I1
sg82
I3
sg129
I1
sg7
I3
sg112
I1
ssS'socketid'
p2861
(dp2862
g85
I1
sg87
I1
ssS'tracker_track(id)'
p2863
(dp2864
g57
I1
ssS'sent'
p2865
(dp2866
g26
I1
sg69
I1
sg102
I1
ssS'v'
p2867
(dp2868
g67
I2
sg139
I1
sg82
I1
ssS'httpwwwswisstopoch'
p2869
(dp2870
g28
I1
ssS'chheda'
p2871
(dp2872
g3
I1
ssS'prompt'
p2873
(dp2874
g11
I1
sg12
I1
sg13
I2
ssS'(with'
p2875
(dp2876
g16
I1
ssS'tracker_fk'
p2877
(dp2878
g143
I1
ssS'coordinates)'
p2879
(dp2880
g27
I1
ssS'share'
p2881
(dp2882
g115
I1
ssS'mainline'
p2883
(dp2884
g11
I2
sg12
I5
sg13
I5
ssS'cation'
p2885
(dp2886
g33
I1
ssS'minimum'
p2887
(dp2888
g27
I1
ssS'numbers'
p2889
(dp2890
g136
I1
sg7
I1
ssS'dress'
p2891
(dp2892
g13
I1
ssS'huge'
p2893
(dp2894
g47
I1
ssS'respective'
p2895
(dp2896
g100
I1
sg128
I1
sg82
I1
ssS'drawjsp'
p2897
(dp2898
g28
I1
ssS'sec)'
p2899
(dp2900
g28
I1
ssS'varchar(12)'
p2901
(dp2902
g143
I1
ssS'+"<name>")'
p2903
(dp2904
g28
I1
ssS'maps'
p2905
(dp2906
g27
I2
sg47
I3
sg26
I1
sg69
I1
sg82
I3
sg7
I1
sg19
I1
ssS'sangeeth'
p2907
(dp2908
g3
I1
sg7
I1
ssS'pbpublic'
p2909
(dp2910
g29
I2
ssS'acknowledging'
p2911
(dp2912
g12
I1
ssS'ubiquitous'
p2913
(dp2914
g54
I1
ssS'intended'
p2915
(dp2916
g72
I1
sg130
I1
sg7
I1
sg120
I1
ssS'firstname'
p2917
(dp2918
g143
I1
ssS'(explain'
p2919
(dp2920
g28
I1
ssS'connectivity'
p2921
(dp2922
g130
I1
ssS'crashed'
p2923
(dp2924
g102
I1
ssS'coming'
p2925
(dp2926
g33
I1
ssS'outprintln("<lookat>")'
p2927
(dp2928
g28
I1
ssS'response'
p2929
(dp2930
g28
I1
sg6
I1
sg68
I1
sg368
I1
ssS'a'
p2931
(dp2932
g51
I2
sg6
I7
sg26
I12
sg101
I7
sg33
I12
sg102
I7
sg75
I4
sg57
I3
sg30
I1
sg220
I2
sg47
I16
sg3
I1
sg19
I2
sg67
I1
sg128
I4
sg82
I6
sg368
I2
sg130
I2
sg8
I5
sg11
I1
sg36
I5
sg85
I1
sg87
I4
sg88
I3
sg161
I5
sg27
I8
sg142
I6
sg66
I9
sg69
I9
sg125
I1
sg50
I1
sg16
I3
sg68
I2
sg28
I4
sg298
I5
sg100
I6
sg136
I3
sg177
I6
sg139
I3
sg112
I3
sg129
I10
sg7
I5
sg12
I6
sg13
I2
sg72
I5
sg131
I8
sg184
I6
sg120
I2
ssS'cdma'
p2933
(dp2934
g130
I1
ssS'communica-'
p2935
(dp2936
g66
I1
ssS'user_id'
p2937
(dp2938
g143
I1
ssS'register'
p2939
(dp2940
g47
I1
sg142
I1
sg101
I3
sg177
I1
sg66
I2
sg69
I1
ssS'map-'
p2941
(dp2942
g129
I1
ssS'responsibility'
p2943
(dp2944
g131
I1
ssS'fundamental'
p2945
(dp2946
g87
I1
ssS'pay'
p2947
(dp2948
g12
I1
ssS'playing'
p2949
(dp2950
g139
I1
ssS'help'
p2951
(dp2952
g100
I1
sg47
I1
sg128
I1
sg7
I1
ssS'enhances'
p2953
(dp2954
g130
I1
ssS'developed'
p2955
(dp2956
g128
I1
sg6
I1
sg100
I1
sg136
I1
sg69
I1
sg102
I1
sg75
I1
sg57
I1
sg130
I1
sg97
I1
sg112
I1
sg33
I1
sg184
I1
ssS'soon'
p2957
(dp2958
g47
I1
sg128
I1
ssS'installed'
p2959
(dp2960
g8
I2
sg125
I1
sg29
I1
sg30
I2
ssS'paper'
p2961
(dp2962
g128
I1
sg82
I1
sg3
I1
sg7
I2
sg129
I1
ssS'through'
p2963
(dp2964
g69
I2
sg128
I1
sg82
I1
sg184
I1
ssS'same'
p2965
(dp2966
g26
I2
sg66
I2
sg69
I1
sg68
I1
sg28
I1
ssS'installer'
p2967
(dp2968
g101
I1
ssS'its'
p2969
(dp2970
g47
I2
sg26
I1
sg101
I3
sg33
I1
sg128
I1
sg82
I1
sg16
I1
sg7
I1
sg8
I1
sg66
I2
sg28
I1
ssS'developer'
p2971
(dp2972
g102
I1
sg161
I1
ssS'24'
p2973
(dp2974
g23
I1
sg220
I1
sg245
I1
sg131
I1
sg115
I1
ssS'25'
p2975
(dp2976
g633
I1
sg72
I1
sg220
I1
sg160
I3
sg700
I1
ssS'26'
p2977
(dp2978
g72
I1
sg220
I1
sg160
I1
sg700
I1
ssS'27'
p2979
(dp2980
g220
I1
sg160
I2
ssS'20'
p2981
(dp2982
g633
I1
sg39
I1
sg220
I1
sg97
I1
ssS'21'
p2983
(dp2984
g220
I1
sg125
I2
sg633
I2
sg54
I1
sg142
I1
sg23
I1
sg184
I1
ssS'22'
p2985
(dp2986
g125
I1
sg633
I2
sg101
I1
sg367
I2
sg57
I1
sg30
I1
sg23
I1
sg245
I1
sg131
I1
sg184
I1
ssS'23'
p2987
(dp2988
g633
I1
sg23
I1
sg220
I1
sg367
I3
sg131
I1
ssS'12figure'
p2989
(dp2990
g68
I1
ssS'28'
p2991
(dp2992
g220
I1
sg160
I1
ssS'29'
p2993
(dp2994
g220
I1
ssS'actually'
p2995
(dp2996
g100
I1
ssS'late'
p2997
(dp2998
g19
I1
sg82
I1
ssS'jambhulkar'
p2999
(dp3000
g82
I1
ssS'systems'
p3001
(dp3002
g100
I3
sg47
I1
sg129
I1
sg184
I1
sg28
I1
ssS'shilimkar'
p3003
(dp3004
g3
I1
ssS'might'
p3005
(dp3006
g72
I2
ssS'2)'
p3007
(dp3008
g142
I1
sg101
I1
sg19
I1
ssS'good'
p3009
(dp3010
g100
I1
sg220
I1
sg33
I1
ssS'setperson()'
p3011
(dp3012
g16
I1
ssS'propose'
p3013
(dp3014
g26
I1
sg47
I1
sg129
I1
ssS'framework'
p3015
(dp3016
g72
I1
sg112
I1
sg184
I1
ssS'attending'
p3017
(dp3018
g131
I1
ssS'1contents'
p3019
(dp3020
g54
I1
ssS'instructions'
p3021
(dp3022
g69
I1
sg54
I1
ssS'easily'
p3023
(dp3024
g136
I1
sg30
I1
ssS'xdoclet'
p3025
(dp3026
g125
I1
ssS'fully'
p3027
(dp3028
g75
I1
ssS'presented'
p3029
(dp3030
g100
I1
sg220
I1
sg97
I1
ssS'userid'
p3031
(dp3032
g57
I1
ssS'refresh'
p3033
(dp3034
g33
I1
sg28
I1
ssS'2d'
p3035
(dp3036
g69
I2
ssS'micro'
p3037
(dp3038
g69
I1
ssS'token'
p3039
(dp3040
g36
I1
ssS'stopped'
p3041
(dp3042
g136
I1
ssS'uploads'
p3043
(dp3044
g8
I1
ssS'found'
p3045
(dp3046
g112
I1
ssS'iosocket-client'
p3047
(dp3048
g170
I1
sg85
I1
ssS'referred'
p3049
(dp3050
g11
I1
sg13
I1
ssS'shrikant'
p3051
(dp3052
g67
I1
sg82
I1
ssS'everyone'
p3053
(dp3054
g112
I1
ssS'packageshtml'
p3055
(dp3056
g115
I1
ssS'idea'
p3057
(dp3058
g50
I1
sg47
I1
sg75
I1
sg136
I1
ssS'police'
p3059
(dp3060
g129
I1
ssS'connect'
p3061
(dp3062
g87
I1
sg131
I1
ssS'operation'
p3063
(dp3064
g68
I1
ssS'event'
p3065
(dp3066
g131
I2
sg97
I1
sg36
I1
sg85
I2
sg87
I3
sg88
I1
ssS'deals'
p3067
(dp3068
g7
I1
ssS'(2015)'
p3069
(dp3070
g82
I1
ssS'3-tiers'
p3071
(dp3072
g50
I1
ssS'p'
p3073
(dp3074
g3
I1
ssS'onattentioneventlistener(sensordata'
p3075
(dp3076
g88
I1
ssS'since'
p3077
(dp3078
g82
I2
ssS'research'
p3079
(dp3080
g67
I2
sg3
I1
sg7
I1
ssS'7'
p3081
(dp3082
g170
I2
sg128
I2
sg6
I1
sg142
I1
sg136
I2
sg367
I1
sg160
I2
sg57
I1
sg16
I1
sg28
I1
ssS'offline'
p3083
(dp3084
g128
I1
sg7
I1
ssS'illustrate'
p3085
(dp3086
g120
I1
ssS'issue'
p3087
(dp3088
g215
I1
sg3
I4
sg19
I1
sg20
I1
sg67
I3
sg128
I1
sg82
I1
sg7
I1
ssS'(webmail)'
p3089
(dp3090
g161
I1
ssS'ios'
p3091
(dp3092
g100
I1
ssS'reason'
p3093
(dp3094
g39
I1
sg7
I1
ssS'beginning'
p3095
(dp3096
g112
I1
ssS'definition'
p3097
(dp3098
g16
I1
sg120
I1
sg50
I1
sg57
I1
sg6
I1
ssS'malks'
p3099
(dp3100
g97
I1
ssS'launch'
p3101
(dp3102
g27
I1
ssS'computers'
p3103
(dp3104
g130
I1
ssS'positioning'
p3105
(dp3106
g47
I1
ssS'american'
p3107
(dp3108
g184
I1
ssS'[3]'
p3109
(dp3110
g3
I1
sg298
I1
sg16
I1
sg8
I1
sg97
I1
sg184
I1
sg115
I1
ssS'pilots'
p3111
(dp3112
g47
I1
ssS'throws'
p3113
(dp3114
g68
I1
ssS'major'
p3115
(dp3116
g102
I1
sg184
I1
ssS'httplocalhost8080ejbtracker'
p3117
(dp3118
g101
I1
ssS'probability'
p3119
(dp3120
g100
I1
ssS'application-neutral'
p3121
(dp3122
g139
I1
ssS'ever-growing'
p3123
(dp3124
g7
I1
ssS'thereafter'
p3125
(dp3126
g131
I1
ssS'number'
p3127
(dp3128
g136
I3
sg3
I1
sg100
I1
sg101
I1
sg177
I3
sg82
I1
sg130
I2
sg20
I1
ssS'preservation'
p3129
(dp3130
g129
I1
ssS'done'
p3131
(dp3132
g27
I1
sg142
I1
sg66
I1
sg69
I3
sg102
I2
sg68
I1
sg97
I2
sg86
I1
sg72
I1
sg33
I1
ssS'fees'
p3133
(dp3134
g139
I1
sg82
I1
ssS'primekeyentitybean'
p3135
(dp3136
g16
I1
ssS'script'
p3137
(dp3138
g125
I1
ssS'introduction'
p3139
(dp3140
g23
I2
sg82
I1
sg184
I2
sg7
I1
sg120
I1
ssS'interact'
p3141
(dp3142
g36
I1
ssS'least'
p3143
(dp3144
g12
I1
sg102
I1
ssS'points)'
p3145
(dp3146
g26
I1
ssS'station'
p3147
(dp3148
g129
I1
ssS'hundred'
p3149
(dp3150
g47
I1
ssS'doget'
p3151
(dp3152
g68
I1
ssS'store'
p3153
(dp3154
g66
I1
sg50
I1
sg6
I1
ssS'schema'
p3155
(dp3156
g47
I1
sg368
I3
sg28
I2
ssS'(loaded'
p3157
(dp3158
g50
I1
ssS'inter-communication'
p3159
(dp3160
g97
I1
ssS'option'
p3161
(dp3162
g26
I2
sg11
I1
sg177
I1
sg13
I1
ssS'relationship'
p3163
(dp3164
g367
I1
sg161
I3
sg245
I1
ssS'instance)'
p3165
(dp3166
g27
I1
sg47
I1
ssS'mohapatra1'
p3167
(dp3168
g298
I1
ssS'part'
p3169
(dp3170
g125
I1
sg66
I1
sg33
I1
sg102
I1
sg75
I1
sg7
I1
sg97
I2
sg139
I2
ssS'monikazade23@gmailcom'
p3171
(dp3172
g82
I1
ssS'1622017'
p3173
(dp3174
g161
I1
ssS'authors'
p3175
(dp3176
g129
I1
ssS'focusing'
p3177
(dp3178
g47
I1
ssS'503g'
p3179
(dp3180
g177
I1
ssS'kind'
p3181
(dp3182
g47
I2
sg112
I1
ssS'b'
p3183
(dp3184
g100
I1
sg177
I1
sg3
I3
sg7
I1
sg67
I1
ssS'(unacceptable'
p3185
(dp3186
g33
I1
ssS'vocal'
p3187
(dp3188
g47
I1
ssS'recording'
p3189
(dp3190
g139
I1
ssS'stall'
p3191
(dp3192
g29
I1
ssS'supposed'
p3193
(dp3194
g57
I1
sg6
I1
ssS'tewolde'
p3195
(dp3196
g215
I1
ssS'pratibha'
p3197
(dp3198
g67
I2
ssS'feb-2016'
p3199
(dp3200
g67
I1
ssS'navigators'
p3201
(dp3202
g129
I1
ssS'(tracked'
p3203
(dp3204
g47
I1
ssS'20281doi'
p3205
(dp3206
g20
I1
ssS'chandan'
p3207
(dp3208
g23
I1
ssS'null'
p3209
(dp3210
g143
I15
sg57
I4
sg68
I1
ssS'tracker_login(userid)'
p3211
(dp3212
g57
I1
ssS'mountain'
p3213
(dp3214
g220
I1
sg47
I1
ssS'built'
p3215
(dp3216
g136
I1
sg33
I1
sg125
I1
ssS'servletexception'
p3217
(dp3218
g68
I1
ssS'presents'
p3219
(dp3220
g129
I1
ssS'associations)'
p3221
(dp3222
g16
I1
ssS'trackmanagementsessionbeanjava'
p3223
(dp3224
g30
I1
ssS'extracted'
p3225
(dp3226
g29
I1
ssS'ate()'
p3227
(dp3228
g16
I1
ssS'build'
p3229
(dp3230
g125
I1
ssS'finding'
p3231
(dp3232
g100
I2
ssS'(persistence)and'
p3233
(dp3234
g51
I1
ssS'peer-to-peer'
p3235
(dp3236
g139
I1
ssS'dr(mrs)'
p3237
(dp3238
g3
I1
ssS'added'
p3239
(dp3240
g128
I2
ssS'aishwarya'
p3241
(dp3242
g3
I1
ssS'customize'
p3243
(dp3244
g130
I1
ssS'reach'
p3245
(dp3246
g136
I1
sg82
I1
sg7
I1
sg298
I1
ssS'7)'
p3247
(dp3248
g28
I2
ssS'most'
p3249
(dp3250
g128
I1
sg102
I2
sg82
I1
sg129
I1
sg7
I2
sg139
I1
ssS'73'
p3251
(dp3252
g160
I1
sg12
I1
sg51
I1
ssS'72'
p3253
(dp3254
g160
I1
sg367
I1
sg51
I1
sg161
I1
ssS'71'
p3255
(dp3256
g160
I1
sg367
I1
sg51
I1
sg161
I1
ssS'applica-'
p3257
(dp3258
g101
I1
ssS'services'
p3259
(dp3260
g19
I1
sg112
I1
sg184
I1
sg7
I1
ssS'(580-560)800)'
p3261
(dp3262
g27
I1
ssS'(data'
p3263
(dp3264
g68
I1
ssS'won\xe2\x80\x99t'
p3265
(dp3266
g82
I2
ssS'mobile'
p3267
(dp3268
g51
I3
sg6
I2
sg26
I1
sg101
I1
sg33
I1
sg75
I3
sg57
I3
sg30
I1
sg47
I2
sg3
I1
sg19
I1
sg54
I1
sg82
I1
sg368
I3
sg130
I2
sg8
I1
sg36
I1
sg161
I1
sg27
I1
sg142
I2
sg66
I4
sg69
I1
sg125
I3
sg50
I3
sg16
I1
sg68
I1
sg97
I2
sg298
I2
sg100
I1
sg136
I2
sg177
I4
sg139
I2
sg112
I5
sg129
I7
sg7
I7
sg72
I1
sg131
I1
sg184
I1
ssS'clear'
p3269
(dp3270
g161
I2
ssS'cover'
p3271
(dp3272
g298
I1
ssS'dimension'
p3273
(dp3274
g27
I1
ssS'security)'
p3275
(dp3276
g33
I1
ssS'charged'
p3277
(dp3278
g19
I1
ssS'joining'
p3279
(dp3280
g12
I1
ssS'sector'
p3281
(dp3282
g7
I1
ssS'2319-6319'
p3283
(dp3284
g3
I1
ssS'particularly'
p3285
(dp3286
g112
I1
ssS'gps-mobile'
p3287
(dp3288
g6
I1
ssS'didn\xe2\x80\x99t'
p3289
(dp3290
g112
I1
ssS'registers'
p3291
(dp3292
g85
I1
sg87
I1
ssS'relation'
p3293
(dp3294
g50
I1
ssS'find'
p3295
(dp3296
g27
I1
sg47
I1
sg82
I1
ssS'impact'
p3297
(dp3298
g129
I1
ssS'access'
p3299
(dp3300
g27
I1
sg47
I1
sg102
I1
sg101
I1
sg33
I1
sg128
I1
sg368
I2
sg28
I4
sg16
I3
sg125
I1
sg66
I1
sg85
I1
sg86
I1
sg161
I1
ssS'simulating'
p3301
(dp3302
g75
I1
ssS'parameters'
p3303
(dp3304
g27
I1
sg28
I1
ssS'trackerejbtrack'
p3305
(dp3306
g75
I1
ssS'undying'
p3307
(dp3308
g7
I1
ssS'8'
p3309
(dp3310
g27
I1
sg170
I1
sg298
I1
sg100
I1
sg160
I1
sg57
I1
ssS'accurate'
p3311
(dp3312
g129
I2
ssS'his'
p3313
(dp3314
g19
I1
sg67
I1
sg125
I1
sg161
I1
sg13
I1
ssS'permission'
p3315
(dp3316
g85
I1
sg12
I4
sg131
I1
ssS'dependent'
p3317
(dp3318
g112
I1
ssS'cd-'
p3319
(dp3320
g29
I1
ssS'adventurers'
p3321
(dp3322
g129
I1
ssS'express'
p3323
(dp3324
g67
I1
ssS'famous'
p3325
(dp3326
g47
I1
ssS'fastest'
p3327
(dp3328
g7
I1
ssS'relational'
p3329
(dp3330
g72
I1
ssS'during'
p3331
(dp3332
g33
I1
sg47
I1
sg112
I2
sg161
I1
ssS'him'
p3333
(dp3334
g19
I1
sg20
I1
sg67
I2
ssS'21usually'
p3335
(dp3336
g29
I1
ssS'appeal'
p3337
(dp3338
g139
I1
ssS'cought'
p3339
(dp3340
g47
I1
ssS'remove'
p3341
(dp3342
g177
I3
ssS'stored'
p3343
(dp3344
g72
I1
ssS'common'
p3345
(dp3346
g82
I1
ssS'activity'
p3347
(dp3348
g170
I1
sg177
I1
sg129
I1
sg23
I1
sg11
I1
sg36
I5
sg120
I1
sg161
I1
sg115
I1
ssS'switzerland'
p3349
(dp3350
g54
I1
ssS'x'
p3351
(dp3352
g68
I1
ssS'mohit'
p3353
(dp3354
g23
I1
ssS'servicelocatorjava'
p3355
(dp3356
g30
I1
ssS'requestgetparameter("data")'
p3357
(dp3358
g68
I1
ssS'set'
p3359
(dp3360
g16
I1
ssS'art'
p3361
(dp3362
g54
I1
sg47
I1
ssS'creator'
p3363
(dp3364
g33
I1
ssS'wwwsuncom'
p3365
(dp3366
g97
I1
sg109
I1
ssS'28figure'
p3367
(dp3368
g6
I1
ssS'doget(httpservletrequest'
p3369
(dp3370
g68
I1
ssS'collectively'
p3371
(dp3372
g11
I1
sg13
I1
sg184
I1
sg120
I1
ssS'see'
p3373
(dp3374
g142
I1
sg101
I1
sg131
I1
sg68
I1
sg298
I1
ssS'individual'
p3375
(dp3376
g160
I2
sg51
I2
ssS'descriptions'
p3377
(dp3378
g36
I1
sg170
I1
ssS'kiran'
p3379
(dp3380
g3
I1
ssS'sel'
p3381
(dp3382
g86
I1
ssS'2278-1323'
p3383
(dp3384
g67
I1
ssS'response)'
p3385
(dp3386
g68
I1
ssS'threats'
p3387
(dp3388
g129
I2
ssS'don\xe2\x80\x99t'
p3389
(dp3390
g142
I1
ssS'formatted'
p3391
(dp3392
g51
I2
ssS'gettrackid'
p3393
(dp3394
g16
I1
ssS'gosavi'
p3395
(dp3396
g67
I1
ssS'[2]'
p3397
(dp3398
g298
I1
sg67
I1
sg129
I1
sg8
I1
sg97
I1
sg184
I1
sg161
I1
ssS'probably'
p3399
(dp3400
g7
I1
ssS'conditions'
p3401
(dp3402
g102
I1
ssS'corruption'
p3403
(dp3404
g102
I1
ssS'application\xe2\x80\x9d'
p3405
(dp3406
g67
I1
sg215
I1
ssS'available'
p3407
(dp3408
g47
I2
sg26
I2
sg67
I1
sg128
I1
sg29
I2
sg142
I1
sg33
I1
sg13
I1
sg7
I1
sg72
I2
sg69
I3
ssS'creating'
p3409
(dp3410
g36
I1
sg13
I1
sg112
I2
ssS'missing'
p3411
(dp3412
g13
I1
ssS'interfaces'
p3413
(dp3414
g6
I1
sg101
I1
sg33
I1
sg23
I5
sg72
I3
sg131
I2
ssS'attention'
p3415
(dp3416
g245
I2
sg72
I3
sg131
I3
sg12
I3
sg161
I3
sg11
I2
sg184
I2
sg86
I2
sg87
I2
sg88
I2
sg42
I1
ssS'interface'
p3417
(dp3418
g51
I3
sg6
I2
sg26
I1
sg139
I1
sg112
I1
sg16
I1
sg68
I1
sg142
I1
sg131
I1
ssS'setaddress'
p3419
(dp3420
g16
I1
ssS'delivering'
p3421
(dp3422
g184
I1
ssS'goople'
p3423
(dp3424
g27
I1
ssS'httpdeveloperssuncomtechtopicsmobilitymidparticlesevent'
p3425
(dp3426
g97
I2
sg109
I1
ssS'both'
p3427
(dp3428
g184
I1
sg12
I1
sg131
I1
sg7
I1
ssS'c'
p3429
(dp3430
g100
I1
sg177
I1
sg67
I1
ssS'last'
p3431
(dp3432
g142
I1
ssS'tracking\xe2\x80\x9d'
p3433
(dp3434
g3
I1
ssS'foreign'
p3435
(dp3436
g143
I2
sg57
I2
ssS'sensitive'
p3437
(dp3438
g129
I1
ssS'connection'
p3439
(dp3440
g19
I1
sg29
I1
sg8
I1
sg36
I1
sg85
I5
sg86
I1
sg72
I1
sg131
I2
sg161
I2
ssS'context'
p3441
(dp3442
g33
I1
sg184
I1
ssS'pdf'
p3443
(dp3444
g101
I1
sg29
I1
ssS'whole'
p3445
(dp3446
g128
I1
ssS'point'
p3447
(dp3448
g26
I1
sg27
I1
sg85
I1
sg102
I1
sg66
I1
ssS'simple'
p3449
(dp3450
g27
I1
sg47
I2
sg6
I1
sg100
I1
sg101
I1
sg102
I1
sg129
I1
sg68
I1
sg130
I1
ssS'(name'
p3451
(dp3452
g75
I1
ssS'address'
p3453
(dp3454
g36
I3
sg85
I5
sg16
I1
sg12
I4
ssS'manners'
p3455
(dp3456
g69
I1
ssS'lingasangeethgj@gmailcom'
p3457
(dp3458
g7
I1
ssS'simply'
p3459
(dp3460
g16
I1
ssS'likes'
p3461
(dp3462
g128
I1
ssS'linux'
p3463
(dp3464
g112
I1
sg130
I1
ssS'trackerejbwebapp'
p3465
(dp3466
g33
I1
ssS'(remoteexception'
p3467
(dp3468
g68
I1
ssS'oncreate(bundle'
p3469
(dp3470
g36
I1
ssS'(otto'
p3471
(dp3472
g75
I1
ssS'user\xe2\x80\x9d'
p3473
(dp3474
g298
I1
ssS'java'
p3475
(dp3476
g47
I1
sg26
I1
sg101
I1
sg69
I1
sg54
I1
sg82
I1
sg57
I3
sg30
I3
sg97
I1
sg16
I1
sg50
I2
sg125
I5
ssS'enhancements'
p3477
(dp3478
g100
I2
sg128
I1
ssS'march-'
p3479
(dp3480
g100
I1
sg136
I1
sg177
I2
sg139
I1
sg112
I1
sg129
I1
sg7
I1
ssS'create'
p3481
(dp3482
g6
I1
sg26
I2
sg66
I2
sg33
I1
sg139
I1
sg112
I1
sg368
I1
sg130
I1
sg57
I1
ssS'due'
p3483
(dp3484
g102
I1
sg82
I1
ssS'pg'
p3485
(dp3486
g100
I1
sg136
I1
sg177
I2
sg139
I1
sg112
I1
sg129
I1
sg7
I1
ssS'collected'
p3487
(dp3488
g72
I1
ssS'zade'
p3489
(dp3490
g82
I1
ssS'rendering'
p3491
(dp3492
g72
I1
ssS'empty'
p3493
(dp3494
g66
I1
sg13
I1
ssS'partly'
p3495
(dp3496
g97
I1
sg75
I1
ssS'servlets)'
p3497
(dp3498
g50
I1
sg51
I2
ssS'passengers'
p3499
(dp3500
g136
I1
ssS'fire'
p3501
(dp3502
g125
I1
ssS'convert'
p3503
(dp3504
g27
I1
ssS'modelling'
p3505
(dp3506
g11
I1
sg170
I1
ssS'lives'
p3507
(dp3508
g47
I1
ssS'instructor'
p3509
(dp3510
g131
I3
sg184
I5
sg36
I1
sg86
I1
sg72
I2
sg88
I1
sg161
I2
sg120
I1
ssS'(swiss'
p3511
(dp3512
g6
I1
ssS'look'
p3513
(dp3514
g129
I1
ssS'talking'
p3515
(dp3516
g47
I1
ssS'frozen'
p3517
(dp3518
g36
I1
ssS'dimarzio'
p3519
(dp3520
g298
I1
ssS'evaluated'
p3521
(dp3522
g129
I1
ssS'linga'
p3523
(dp3524
g3
I1
sg7
I1
ssS'technical'
p3525
(dp3526
g47
I1
ssS'while'
p3527
(dp3528
g13
I1
ssS'(virtually'
p3529
(dp3530
g27
I1
ssS'error'
p3531
(dp3532
g100
I2
sg69
I1
sg12
I1
sg13
I2
sg11
I1
sg161
I1
ssS'fleet'
p3533
(dp3534
g100
I1
ssS'guide'
p3535
(dp3536
g633
I1
sg67
I1
sg109
I1
sg298
I1
sg30
I1
ssS'low-energy'
p3537
(dp3538
g298
I1
ssS'vol'
p3539
(dp3540
g7
I1
ssS'<='
p3541
(dp3542
g87
I1
sg131
I1
ssS'jpg'
p3543
(dp3544
g27
I2
ssS'encountered'
p3545
(dp3546
g13
I1
ssS'server\xe2\x80\x99s'
p3547
(dp3548
g66
I1
ssS'itself'
p3549
(dp3550
g102
I1
ssS'ready'
p3551
(dp3552
g66
I1
sg47
I1
ssS'aged'
p3553
(dp3554
g102
I1
ssS'itors'
p3555
(dp3556
g184
I1
ssS'belong'
p3557
(dp3558
g100
I1
ssS'windows)'
p3559
(dp3560
g29
I1
ssS'ejbtracker'
p3561
(dp3562
g29
I1
ssS'widely'
p3563
(dp3564
g100
I1
sg82
I2
ssS'15figure'
p3565
(dp3566
g27
I1
ssS'9'
p3567
(dp3568
g633
I3
sg170
I1
sg54
I2
sg160
I1
sg57
I2
ssS'products'
p3569
(dp3570
g184
I1
ssS'composition'
p3571
(dp3572
g160
I1
sg51
I1
ssS'development'
p3573
(dp3574
g139
I2
sg298
I1
sg26
I1
sg33
I1
sg125
I3
sg112
I5
sg129
I1
sg7
I1
sg120
I2
ssS'literature'
p3575
(dp3576
g129
I1
sg8
I1
ssS'roshni'
p3577
(dp3578
g82
I1
ssS'camera'
p3579
(dp3580
g72
I1
ssS'httpsdeveloperandroidcomguidetopics'
p3581
(dp3582
g115
I1
ssS'alert'
p3583
(dp3584
g23
I1
sg177
I1
sg161
I1
sg120
I1
ssS'moment'
p3585
(dp3586
g19
I1
sg82
I1
ssS'uses'
p3587
(dp3588
g72
I1
sg82
I1
sg16
I1
sg8
I1
sg87
I1
sg131
I1
ssS'purpose'
p3589
(dp3590
g23
I1
sg82
I1
sg72
I1
sg120
I2
ssS'necessity'
p3591
(dp3592
g7
I1
ssS'robust'
p3593
(dp3594
g102
I1
ssS'jitesh'
p3595
(dp3596
g3
I1
ssS'deepak'
p3597
(dp3598
g97
I1
ssS'database'
p3599
(dp3600
g27
I3
sg102
I2
sg6
I1
sg66
I1
sg54
I1
sg50
I3
sg29
I3
sg131
I1
sg125
I1
sg85
I1
sg72
I2
sg88
I1
ssS'navigation'
p3601
(dp3602
g47
I1
sg101
I2
sg102
I1
sg129
I1
sg368
I2
sg16
I1
ssS'trackerutil'
p3603
(dp3604
g30
I1
ssS'analysis'
p3605
(dp3606
g51
I6
sg161
I1
ssS'person'
p3607
(dp3608
g220
I1
sg69
I1
sg120
I2
ssS'calibrated'
p3609
(dp3610
g27
I1
ssS'robigrgurina'
p3611
(dp3612
g129
I1
sg298
I1
ssS'swiss'
p3613
(dp3614
g27
I1
sg26
I1
sg69
I1
sg368
I1
sg28
I2
sg33
I1
ssS'traffic'
p3615
(dp3616
g100
I1
sg82
I1
ssS'gsm'
p3617
(dp3618
g139
I1
ssS'distances'
p3619
(dp3620
g129
I1
ssS'mobiltrackerjad'
p3621
(dp3622
g30
I1
ssS'wearable'
p3623
(dp3624
g130
I1
ssS'tables'
p3625
(dp3626
g27
I2
sg50
I2
sg54
I1
sg102
I1
sg29
I1
ssS'(cell'
p3627
(dp3628
g142
I1
ssS'tablet'
p3629
(dp3630
g130
I1
ssS'poojasahu9595@gmailcom'
p3631
(dp3632
g82
I1
ssS'where-and-why'
p3633
(dp3634
g67
I1
ssS'guaranteed'
p3635
(dp3636
g8
I1
ssS'source'
p3637
(dp3638
g75
I1
sg82
I1
sg129
I1
sg7
I1
sg8
I1
sg130
I2
sg30
I1
ssS'parents'
p3639
(dp3640
g128
I1
ssS'location'
p3641
(dp3642
g139
I1
sg298
I4
sg19
I3
sg20
I1
sg177
I3
sg128
I3
sg82
I3
sg129
I7
sg7
I2
sg8
I2
sg130
I2
sg136
I3
sg67
I1
ssS'input'
p3643
(dp3644
g27
I2
sg36
I2
sg85
I2
sg86
I1
sg88
I1
ssS'remaining'
p3645
(dp3646
g33
I1
sg7
I1
ssS'associations'
p3647
(dp3648
g368
I2
sg28
I2
ssS'march'
p3649
(dp3650
g215
I1
sg3
I1
sg298
I1
sg67
I1
sg54
I1
sg7
I1
ssS'emergency'
p3651
(dp3652
g20
I1
ssS'format'
p3653
(dp3654
g27
I6
sg33
I1
sg139
I1
sg28
I2
ssS'showing'
p3655
(dp3656
g12
I1
sg129
I1
ssS'plug-ins'
p3657
(dp3658
g112
I1
ssS'monika'
p3659
(dp3660
g82
I1
ssS'bit'
p3661
(dp3662
g47
I1
ssS'sim-'
p3663
(dp3664
g26
I1
ssS'formal'
p3665
(dp3666
g112
I1
ssS'd'
p3667
(dp3668
g136
I1
ssS'signal'
p3669
(dp3670
g47
I1
ssS'separately'
p3671
(dp3672
g97
I1
ssS'communications'
p3673
(dp3674
g23
I1
sg72
I1
sg3
I1
sg129
I1
ssS'history'
p3675
(dp3676
g39
I1
ssS'indication'
p3677
(dp3678
g47
I1
ssS'popular'
p3679
(dp3680
g82
I2
sg129
I1
ssS'1323'
p3681
(dp3682
g3
I1
ssS'(integer)'
p3683
(dp3684
g66
I1
ssS'google'
p3685
(dp3686
g27
I2
sg19
I1
sg51
I1
sg6
I1
sg298
I1
sg26
I1
sg101
I1
sg69
I1
sg125
I1
sg82
I3
sg130
I1
sg28
I2
sg100
I1
sg97
I2
sg136
I1
sg115
I1
sg120
I1
sg184
I2
sg3
I1
ssS'methods'
p3687
(dp3688
g75
I1
sg57
I2
sg68
I1
sg16
I3
sg36
I1
sg85
I1
sg86
I1
sg87
I2
ssS'creation'
p3689
(dp3690
g142
I1
sg102
I1
sg13
I1
ssS'some'
p3691
(dp3692
g220
I1
sg139
I1
sg102
I1
sg112
I3
sg29
I1
sg13
I1
ssS'b)'
p3693
(dp3694
g87
I1
ssS'(session'
p3695
(dp3696
g50
I1
ssS're-definition'
p3697
(dp3698
g6
I1
ssS'delivered'
p3699
(dp3700
g184
I1
sg97
I1
sg131
I1
sg29
I2
ssS'patwa'
p3701
(dp3702
g3
I1
ssS'scale'
p3703
(dp3704
g16
I1
ssS'personmanagementsessionbeanjava'
p3705
(dp3706
g75
I1
ssS'integration'
p3707
(dp3708
g100
I3
ssS'per'
p3709
(dp3710
g102
I1
ssS'dhumal'
p3711
(dp3712
g3
I1
ssS'getpointslistjava'
p3713
(dp3714
g30
I1
ssS'innovation'
p3715
(dp3716
g7
I1
ssS'prof'
p3717
(dp3718
g39
I2
sg23
I1
sg67
I2
sg82
I1
sg3
I1
ssS'integer)'
p3719
(dp3720
g143
I1
ssS'minimal'
p3721
(dp3722
g161
I1
ssS'cgi'
p3723
(dp3724
g97
I1
ssS'be'
p3725
(dp3726
g6
I5
sg26
I3
sg101
I3
sg33
I1
sg102
I2
sg75
I1
sg29
I3
sg30
I1
sg220
I2
sg47
I3
sg19
I3
sg20
I1
sg128
I3
sg82
I1
sg130
I1
sg8
I4
sg85
I1
sg86
I1
sg87
I1
sg161
I4
sg27
I2
sg142
I3
sg66
I4
sg69
I3
sg16
I1
sg28
I1
sg97
I1
sg100
I5
sg136
I2
sg177
I1
sg129
I1
sg7
I2
sg72
I10
sg131
I4
sg184
I1
sg120
I2
ssS'31317'
p3727
(dp3728
g39
I1
ssS'run'
p3729
(dp3730
g26
I1
sg100
I1
sg47
I1
sg112
I1
sg30
I1
ssS'manali'
p3731
(dp3732
g3
I1
ssS'300'
p3733
(dp3734
g97
I1
ssS'step'
p3735
(dp3736
g11
I1
sg12
I3
sg13
I3
ssS'assists'
p3737
(dp3738
g129
I1
ssS'(zoom'
p3739
(dp3740
g6
I1
ssS'\xe2\x80\x93server'
p3741
(dp3742
g7
I1
ssS'feb'
p3743
(dp3744
g19
I1
sg215
I1
sg128
I1
sg82
I1
sg20
I1
ssS'intense'
p3745
(dp3746
g67
I1
ssS'works'
p3747
(dp3748
g160
I1
sg33
I1
sg125
I1
sg82
I1
sg136
I1
ssS'anything'
p3749
(dp3750
g139
I1
ssS'constraint'
p3751
(dp3752
g143
I7
sg57
I4
ssS'simulation'
p3753
(dp3754
g129
I1
ssS'range'
p3755
(dp3756
g27
I2
sg6
I1
ssS'involving'
p3757
(dp3758
g47
I1
ssS'extensions'
p3759
(dp3760
g33
I1
sg160
I1
sg6
I1
ssS'jsp'
p3761
(dp3762
g28
I1
ssS'block'
p3763
(dp3764
g139
I2
ssS'tioned'
p3765
(dp3766
g161
I1
ssS'disclosure'
p3767
(dp3768
g129
I1
ssS'into'
p3769
(dp3770
g27
I2
sg47
I1
sg19
I2
sg75
I2
sg128
I1
sg50
I1
sg28
I1
sg12
I1
sg20
I1
sg131
I2
sg112
I1
sg184
I1
ssS'within'
p3771
(dp3772
g142
I1
sg66
I1
sg6
I1
sg129
I1
ssS'appropriate'
p3773
(dp3774
g33
I1
sg86
I1
sg6
I1
ssS'primarily'
p3775
(dp3776
g120
I1
ssS'statistics'
p3777
(dp3778
g11
I1
sg131
I1
sg161
I1
ssS'computer'
p3779
(dp3780
g112
I1
sg3
I4
sg100
I1
sg136
I1
sg177
I2
sg139
I1
sg82
I3
sg129
I1
sg7
I3
sg67
I2
ssS'u5'
p3781
(dp3782
g11
I1
sg42
I1
ssS'\xe2\x80\x9dattention\xe2\x80\x9d'
p3783
(dp3784
g88
I1
ssS'sequence'
p3785
(dp3786
g136
I1
sg367
I1
sg12
I5
sg13
I4
sg11
I2
sg245
I5
sg161
I8
sg120
I1
ssS'u1'
p3787
(dp3788
g13
I1
sg42
I1
ssS'long'
p3789
(dp3790
g66
I1
sg33
I2
sg136
I1
sg8
I1
ssS'u2'
p3791
(dp3792
g13
I1
sg42
I1
ssS'trackdrawingjava'
p3793
(dp3794
g30
I1
ssS'(button'
p3795
(dp3796
g36
I1
sg85
I1
ssS'translate'
p3797
(dp3798
g27
I1
ssS'files'
p3799
(dp3800
g633
I1
sg101
I1
sg27
I1
sg75
I1
sg29
I2
ssS'himself'
p3801
(dp3802
g33
I1
ssS'registered'
p3803
(dp3804
g66
I1
sg130
I1
sg8
I1
ssS'properly'
p3805
(dp3806
g33
I1
ssS'link'
p3807
(dp3808
g66
I1
sg47
I1
ssS'authority'
p3809
(dp3810
g20
I1
ssS'professer'
p3811
(dp3812
g367
I1
sg88
I1
ssS'\xe2\x80\x9csurvey'
p3813
(dp3814
g3
I1
ssS'deployed'
p3815
(dp3816
g184
I1
ssS'sdk'
p3817
(dp3818
g139
I1
sg30
I1
ssS'directed'
p3819
(dp3820
g12
I1
ssS'zhu'
p3821
(dp3822
g129
I1
ssS'intuitive'
p3823
(dp3824
g101
I1
ssS'selects'
p3825
(dp3826
g11
I1
sg136
I2
sg177
I3
ssS'transmits'
p3827
(dp3828
g47
I1
ssS'up'
p3829
(dp3830
g100
I1
sg128
I1
sg112
I1
sg16
I1
sg131
I1
ssS'us'
p3831
(dp3832
g67
I2
sg139
I2
sg7
I1
ssS'users)'
p3833
(dp3834
g26
I1
ssS'windows'
p3835
(dp3836
g100
I1
sg125
I1
ssS'[5]'
p3837
(dp3838
g97
I1
sg298
I1
sg112
I1
sg3
I1
sg115
I1
ssS'ui'
p3839
(dp3840
g36
I3
sg85
I2
sg87
I1
ssS'verification'
p3841
(dp3842
g100
I1
ssS'ug'
p3843
(dp3844
g7
I1
ssS'etc)'
p3845
(dp3846
g75
I1
sg57
I1
sg130
I1
sg6
I2
ssS'called'
p3847
(dp3848
g36
I2
sg85
I4
sg87
I4
sg88
I3
ssS'constant'
p3849
(dp3850
g67
I1
ssS'security'
p3851
(dp3852
g220
I1
sg367
I1
sg75
I1
sg33
I1
sg161
I1
ssS'armstrong'
p3853
(dp3854
g97
I1
ssS'defined'
p3855
(dp3856
g50
I1
sg112
I2
sg51
I1
sg16
I1
sg129
I1
ssS'm'
p3857
(dp3858
g3
I1
ssS'\xe2\x80\x9dforeigner\xe2\x80\x9d'
p3859
(dp3860
g28
I1
ssS'engineering'
p3861
(dp3862
g67
I3
sg82
I5
sg3
I4
sg7
I2
ssS'conveniently'
p3863
(dp3864
g184
I1
ssS'beginning)'
p3865
(dp3866
g51
I1
ssS'user)'
p3867
(dp3868
g11
I1
sg13
I1
ssS'set-up'
p3869
(dp3870
g8
I1
ssS'2014]'
p3871
(dp3872
g67
I1
ssS'application'
p3873
(dp3874
g54
I1
sg51
I2
sg6
I1
sg26
I2
sg101
I2
sg102
I3
sg75
I5
sg57
I4
sg29
I2
sg30
I5
sg47
I2
sg3
I3
sg20
I1
sg128
I1
sg82
I8
sg368
I5
sg8
I1
sg36
I1
sg142
I6
sg66
I3
sg69
I1
sg125
I4
sg50
I8
sg16
I2
sg28
I1
sg97
I1
sg298
I1
sg100
I1
sg136
I5
sg177
I4
sg139
I1
sg112
I5
sg129
I1
sg7
I2
sg72
I3
sg131
I1
sg184
I2
ssS'actors'
p3875
(dp3876
g11
I1
sg142
I3
sg12
I2
sg13
I2
ssS'department'
p3877
(dp3878
g82
I2
sg88
I1
sg7
I2
ssS'terfaces'
p3879
(dp3880
g16
I1
ssS'jce)'
p3881
(dp3882
g67
I1
ssS'draw'
p3883
(dp3884
g26
I3
sg28
I2
ssS'elements'
p3885
(dp3886
g36
I2
sg85
I1
ssS'users'
p3887
(dp3888
g26
I1
sg101
I1
sg69
I4
sg128
I2
sg129
I1
sg130
I1
sg142
I1
sg72
I1
sg120
I1
ssS'problems'
p3889
(dp3890
g102
I4
sg160
I1
ssS'prepared'
p3891
(dp3892
g23
I1
ssS'helping'
p3893
(dp3894
g57
I1
ssS'(ref'
p3895
(dp3896
g16
I1
ssS'structure'
p3897
(dp3898
g102
I1
sg101
I1
sg50
I1
sg54
I1
sg75
I1
ssS'e'
p3899
(dp3900
g97
I1
ssS'algorithm'
p3901
(dp3902
g87
I1
sg129
I1
ssS'cd-rom'
p3903
(dp3904
g29
I2
sg30
I1
ssS'vehicles'
p3905
(dp3906
g100
I1
sg82
I1
ssS'drawtrackjava'
p3907
(dp3908
g30
I1
ssS'2003'
p3909
(dp3910
g97
I1
ssS'2006'
p3911
(dp3912
g54
I1
ssS'came'
p3913
(dp3914
g177
I1
sg102
I1
ssS'2004'
p3915
(dp3916
g97
I4
sg109
I3
ssS'2005'
p3917
(dp3918
g97
I1
sg125
I1
ssS'oracle'
p3919
(dp3920
g33
I1
ssS'2008'
p3921
(dp3922
g298
I1
ssS'requires'
p3923
(dp3924
g7
I1
sg8
I1
ssS'having'
p3925
(dp3926
g220
I1
sg69
I1
sg7
I1
ssS'once'
p3927
(dp3928
g26
I1
sg101
I2
sg68
I1
sg29
I1
sg66
I2
ssS'code'
p3929
(dp3930
g142
I1
sg16
I2
ssS'supriyasudeepsinha@gmailcom'
p3931
(dp3932
g82
I1
ssS'results'
p3933
(dp3934
g100
I1
ssS'existing'
p3935
(dp3936
g131
I2
ssS'pointbase'
p3937
(dp3938
g33
I1
sg125
I1
sg29
I3
sg30
I1
ssS'go'
p3939
(dp3940
g29
I3
ssS'contributions'
p3941
(dp3942
g160
I1
sg51
I1
ssS'issues'
p3943
(dp3944
g100
I1
ssS'copernicus'
p3945
(dp3946
g82
I1
ssS'classesobjects'
p3947
(dp3948
g36
I1
ssS'send'
p3949
(dp3950
g47
I1
sg51
I1
sg6
I2
sg26
I3
sg101
I1
sg177
I1
sg139
I1
sg57
I2
sg68
I1
sg368
I1
sg142
I1
sg130
I1
sg66
I1
sg33
I2
ssS'helps'
p3951
(dp3952
g136
I1
sg47
I1
sg184
I4
ssS'(not'
p3953
(dp3954
g51
I1
ssS'fatal'
p3955
(dp3956
g220
I1
ssS'friendly'
p3957
(dp3958
g7
I1
ssS'resources'
p3959
(dp3960
g72
I1
sg29
I1
ssS'uploaded'
p3961
(dp3962
g136
I1
ssS'v780'
p3963
(dp3964
g115
I1
ssS'implicitly'
p3965
(dp3966
g16
I1
ssS'sensormanager'
p3967
(dp3968
g86
I1
ssS'implement'
p3969
(dp3970
g72
I1
ssS'issue3'
p3971
(dp3972
g100
I1
sg136
I1
sg177
I2
sg139
I1
sg112
I1
sg129
I1
sg7
I1
ssS'entire'
p3973
(dp3974
g112
I1
sg161
I1
ssS'accelgravitydata[3]'
p3975
(dp3976
g86
I1
ssS'bus\xe2\x80\x99s'
p3977
(dp3978
g298
I1
ssS'won\xe2\x80\x9ft'
p3979
(dp3980
g19
I1
ssS'trackdrawing'
p3981
(dp3982
g27
I2
sg33
I1
sg28
I1
ssS'positions'
p3983
(dp3984
g51
I1
sg6
I1
sg26
I1
sg101
I1
sg69
I1
sg102
I1
sg75
I1
sg66
I1
sg33
I1
ssS'notes'
p3985
(dp3986
g125
I1
ssS'try'
p3987
(dp3988
g33
I1
sg68
I1
ssS'session'
p3989
(dp3990
g245
I2
sg51
I2
sg112
I1
sg33
I5
sg54
I1
sg50
I2
sg368
I1
sg68
I2
sg16
I4
sg131
I1
sg12
I10
sg13
I4
sg42
I2
sg11
I1
sg28
I2
sg88
I2
sg161
I1
ssS'\xe2\x80\x9dtrack'
p3991
(dp3992
g68
I1
ssS'5application'
p3993
(dp3994
g142
I1
ssS'dirappserverdomainsdomain1autodeploy'
p3995
(dp3996
g29
I1
ssS'(menu'
p3997
(dp3998
g57
I1
ssS'primekey_pk'
p3999
(dp4000
g57
I1
ssS'today'
p4001
(dp4002
g7
I1
ssS'video'
p4003
(dp4004
g184
I1
ssS'download'
p4005
(dp4006
g633
I1
sg47
I1
sg29
I1
ssS'(alps)'
p4007
(dp4008
g129
I1
ssS'click'
p4009
(dp4010
g26
I1
ssS'index'
p4011
(dp4012
g82
I1
ssS'power'
p4013
(dp4014
g68
I1
ssS'chicago'
p4015
(dp4016
g298
I1
ssS'23-27'
p4017
(dp4018
g298
I1
ssS'networks'
p4019
(dp4020
g139
I2
ssS'cell'
p4021
(dp4022
g47
I1
ssS'paying'
p4023
(dp4024
g11
I1
sg72
I1
ssS'waiting'
p4025
(dp4026
g8
I1
ssS'real-world'
p4027
(dp4028
g130
I1
ssS'3g'
p4029
(dp4030
g139
I1
ssS'focuses'
p4031
(dp4032
g100
I1
ssS'lee'
p4033
(dp4034
g215
I1
ssS'responsesetcontenttype("textplain")'
p4035
(dp4036
g68
I1
ssS'following'
p4037
(dp4038
g128
I1
sg142
I1
sg20
I1
sg102
I1
sg75
I1
sg130
I1
sg131
I2
sg100
I1
sg125
I1
sg19
I5
sg87
I1
sg112
I1
sg161
I1
sg139
I1
ssS'objects'
p4039
(dp4040
g11
I3
sg170
I3
ssS'logout'
p4041
(dp4042
g26
I1
sg101
I1
ssS'licence'
p4043
(dp4044
g33
I1
ssS'others'
p4045
(dp4046
g142
I1
sg220
I1
ssS'consideration'
p4047
(dp4048
g27
I1
ssS'great'
p4049
(dp4050
g67
I1
ssS'srcweb'
p4051
(dp4052
g27
I1
sg33
I1
sg30
I1
ssS'receive'
p4053
(dp4054
g177
I1
sg47
I1
sg139
I1
ssS'32'
p4055
(dp4056
g125
I1
sg54
I1
sg13
I1
sg109
I1
sg131
I1
sg42
I1
ssS'31'
p4057
(dp4058
g69
I1
sg54
I1
sg160
I1
sg13
I3
sg245
I1
sg42
I1
ssS'30'
p4059
(dp4060
g160
I3
ssS'35'
p4061
(dp4062
g11
I1
sg42
I1
ssS'34'
p4063
(dp4064
g12
I1
sg54
I1
sg42
I1
ssS'3)'
p4065
(dp4066
g128
I1
ssS'survey'
p4067
(dp4068
g8
I1
ssS'sirdeshpande'
p4069
(dp4070
g67
I1
ssS'{'
p4071
(dp4072
g68
I4
ssS'makes'
p4073
(dp4074
g7
I1
ssS'honor'
p4075
(dp4076
g67
I1
ssS'composed'
p4077
(dp4078
g136
I2
sg128
I1
sg51
I1
sg16
I1
ssS'23-'
p4079
(dp4080
g67
I1
ssS'app'
p4081
(dp4082
g72
I1
ssS'manage'
p4083
(dp4084
g100
I1
sg136
I1
sg85
I1
sg19
I1
sg298
I1
ssS'private'
p4085
(dp4086
g27
I1
sg36
I2
sg85
I3
sg86
I5
sg87
I2
ssS'independent\xe2\x80\x9d'
p4087
(dp4088
g16
I1
ssS'resolutiony'
p4089
(dp4090
g27
I1
ssS'resolutionx'
p4091
(dp4092
g27
I1
ssS'api'
p4093
(dp4094
g115
I2
ssS'positionlist'
p4095
(dp4096
g75
I1
ssS'tools'
p4097
(dp4098
g33
I1
sg112
I1
ssS'gateway'
p4099
(dp4100
g184
I1
ssS'use'
p4101
(dp4102
g47
I2
sg142
I9
sg101
I1
sg33
I1
sg54
I1
sg368
I1
sg29
I2
sg129
I1
sg100
I1
sg12
I1
sg13
I4
sg42
I1
sg11
I1
sg245
I1
sg131
I1
sg161
I1
sg120
I1
ssS'from'
p4103
(dp4104
g26
I2
sg101
I1
sg33
I1
sg102
I1
sg29
I1
sg47
I1
sg19
I1
sg128
I2
sg368
I1
sg130
I1
sg8
I1
sg85
I4
sg27
I2
sg142
I3
sg66
I6
sg69
I2
sg68
I2
sg28
I1
sg136
I2
sg177
I4
sg39
I2
sg72
I2
sg131
I1
ssS'zip'
p4105
(dp4106
g142
I1
sg143
I1
ssS'remains'
p4107
(dp4108
g129
I1
ssS'report\xe2\x80\x9d'
p4109
(dp4110
g298
I1
ssS'next'
p4111
(dp4112
g184
I1
ssS'[4]'
p4113
(dp4114
g27
I1
sg3
I1
sg298
I1
sg112
I1
sg97
I1
sg115
I1
ssS'doubt'
p4115
(dp4116
g220
I1
ssS'vehicle'
p4117
(dp4118
g215
I1
sg82
I1
sg3
I1
ssS'timetable'
p4119
(dp4120
g67
I1
sg8
I1
ssS'themselves'
p4121
(dp4122
g72
I1
ssS'stage'
p4123
(dp4124
g100
I1
sg33
I1
sg102
I1
ssS'iit'
p4125
(dp4126
g23
I1
ssS'formally'
p4127
(dp4128
g142
I1
sg57
I1
ssS'22431'
p4129
(dp4130
g101
I1
ssS'560000150000'
p4131
(dp4132
g27
I1
ssS'started'
p4133
(dp4134
g26
I1
sg142
I1
sg66
I2
ssS'visibility'
p4135
(dp4136
g129
I1
ssS'vol4'
p4137
(dp4138
g100
I1
sg136
I1
sg177
I2
sg139
I1
sg112
I1
sg129
I1
sg7
I1
ssS'insufficiency'
p4139
(dp4140
g112
I1
ssS'carrying'
p4141
(dp4142
g67
I1
ssS'vol3'
p4143
(dp4144
g67
I1
sg3
I1
ssS'priya'
p4145
(dp4146
g3
I2
ssS'iii'
p4147
(dp4148
g23
I1
sg245
I1
sg112
I1
ssS'balakrishnan'
p4149
(dp4150
g298
I1
ssS'socket'
p4151
(dp4152
g170
I1
sg72
I3
sg367
I1
sg131
I3
sg11
I2
sg36
I5
sg85
I3
sg120
I1
sg87
I5
sg88
I1
sg115
I2
ssS'customer'
p4153
(dp4154
g130
I1
ssS'topic'
p4155
(dp4156
g47
I1
ssS'account'
p4157
(dp4158
g177
I1
sg47
I1
ssS'extension'
p4159
(dp4160
g6
I1
ssS'f'
p4161
(dp4162
g87
I1
sg131
I1
ssS'this'
p4163
(dp4164
g26
I2
sg101
I1
sg33
I3
sg102
I1
sg220
I1
sg47
I3
sg19
I7
sg20
I1
sg67
I1
sg128
I4
sg82
I4
sg130
I1
sg36
I3
sg87
I1
sg27
I2
sg66
I5
sg69
I4
sg50
I1
sg16
I4
sg28
I5
sg97
I2
sg100
I1
sg136
I2
sg139
I1
sg112
I1
sg129
I3
sg7
I2
sg72
I3
sg131
I2
sg184
I4
sg120
I3
ssS'clients'
p4165
(dp4166
g87
I1
sg8
I1
ssS'-0056'
p4167
(dp4168
g67
I1
ssS'prompts'
p4169
(dp4170
g11
I1
sg12
I1
sg13
I1
ssS'obvious'
p4171
(dp4172
g100
I1
ssS'meet'
p4173
(dp4174
g13
I1
ssS'proof'
p4175
(dp4176
g102
I2
ssS'control'
p4177
(dp4178
g112
I1
sg129
I3
ssS'sqlite'
p4179
(dp4180
g112
I1
ssS'2list'
p4181
(dp4182
g160
I1
ssS'reserved'
p4183
(dp4184
g298
I1
sg100
I1
sg136
I1
sg177
I2
sg139
I1
sg112
I1
sg129
I1
ssS'providers'
p4185
(dp4186
g139
I1
ssS'process'
p4187
(dp4188
g100
I1
sg136
I1
sg112
I2
sg8
I1
ssS'javadoc'
p4189
(dp4190
g101
I2
ssS'(build'
p4191
(dp4192
g125
I1
ssS'high'
p4193
(dp4194
g100
I1
sg82
I1
ssS'assumptions'
p4195
(dp4196
g700
I1
sg72
I1
ssS'something'
p4197
(dp4198
g112
I1
ssS'compatible'
p4199
(dp4200
g100
I1
sg125
I2
ssS'six'
p4201
(dp4202
g27
I1
ssS'driver\xe2\x80\x9fs'
p4203
(dp4204
g19
I1
sg130
I1
sg8
I1
ssS'immediate)'
p4205
(dp4206
g161
I1
ssS'lastname'
p4207
(dp4208
g143
I1
ssS'establishment'
p4209
(dp4210
g85
I1
sg129
I1
ssS'\xe2\x80\x9cdesign'
p4211
(dp4212
g215
I1
ssS'profile'
p4213
(dp4214
g26
I1
sg101
I3
sg66
I2
ssS'pre-defined'
p4215
(dp4216
g75
I1
ssS'administrator'
p4217
(dp4218
g19
I2
sg20
I4
ssS'specifications'
p4219
(dp4220
g220
I1
sg102
I1
sg112
I2
sg16
I1
ssS'stop'
p4221
(dp4222
g298
I1
sg19
I1
sg136
I3
sg177
I2
sg82
I2
sg8
I2
ssS'(jsps'
p4223
(dp4224
g50
I1
ssS'(lbs)'
p4225
(dp4226
g129
I1
ssS'tier'
p4227
(dp4228
g50
I1
ssS'monitoring'
p4229
(dp4230
g100
I1
sg129
I1
sg120
I1
sg3
I1
sg8
I1
ssS'efficiently'
p4231
(dp4232
g100
I1
sg136
I1
sg7
I1
ssS'issn'
p4233
(dp4234
g67
I2
sg82
I1
sg3
I6
sg7
I1
ssS'lines'
p4235
(dp4236
g27
I1
ssS'correspond'
p4237
(dp4238
g27
I1
ssS'redundant'
p4239
(dp4240
g72
I1
ssS'element'
p4241
(dp4242
g36
I1
sg85
I1
ssS'allow'
p4243
(dp4244
g26
I2
sg101
I4
sg69
I1
sg16
I2
sg28
I1
sg142
I1
sg131
I1
sg184
I1
ssS'(position)'
p4245
(dp4246
g66
I1
ssS'pointbasepool'
p4247
(dp4248
g29
I1
ssS'outprintln("<name>'
p4249
(dp4250
g28
I1
ssS'insight'
p4251
(dp4252
g112
I1
ssS'microsystem'
p4253
(dp4254
g97
I1
sg109
I1
ssS'\xe2\x80\x9cbus'
p4255
(dp4256
g67
I1
ssS'including'
p4257
(dp4258
g97
I1
sg139
I1
sg112
I3
ssS'activity\xe2\x80\x99s'
p4259
(dp4260
g36
I1
ssS'134'
p4261
(dp4262
g87
I1
ssS'mentioned'
p4263
(dp4264
g102
I1
sg101
I1
sg47
I1
ssS'andor'
p4265
(dp4266
g13
I1
ssS'yutika'
p4267
(dp4268
g3
I1
ssS'trackmanagementsessionbean'
p4269
(dp4270
g68
I2
sg28
I1
ssS'(ijcsit)'
p4271
(dp4272
g3
I1
ssS'chosen'
p4273
(dp4274
g69
I1
sg130
I1
ssS'onsensorchanged(sensorevent'
p4275
(dp4276
g87
I1
ssS'startremotetrack(userid)'
p4277
(dp4278
g68
I1
ssS'choose'
p4279
(dp4280
g69
I2
sg6
I1
ssS'travelers'
p4281
(dp4282
g129
I1
ssS'latitude'
p4283
(dp4284
g27
I1
sg19
I1
sg82
I1
ssS'2014'
p4285
(dp4286
g67
I1
sg215
I1
sg3
I2
ssS'2017'
p4287
(dp4288
g215
I1
sg19
I1
sg20
I1
sg128
I1
sg82
I1
sg23
I1
sg115
I1
ssS'2016'
p4289
(dp4290
g3
I1
ssS'2011'
p4291
(dp4292
g298
I3
ssS'image'
p4293
(dp4294
g139
I1
ssS'2013'
p4295
(dp4296
g298
I1
ssS'2012'
p4297
(dp4298
g67
I1
sg3
I1
ssS'greater'
p4299
(dp4300
g129
I1
ssS'nokia'
p4301
(dp4302
g125
I1
ssS'httpwwwkeyholecomkmldocsgoogle'
p4303
(dp4304
g97
I1
ssS'front'
p4305
(dp4306
g16
I1
ssS'determines'
p4307
(dp4308
g12
I2
sg131
I1
ssS'device\xe2\x80\x99s'
p4309
(dp4310
g86
I1
ssS'nadu'
p4311
(dp4312
g7
I2
ssS'transmitter'
p4313
(dp4314
g8
I1
ssS'verifying'
p4315
(dp4316
g136
I1
ssS'university'
p4317
(dp4318
g54
I1
ssS'traced'
p4319
(dp4320
g47
I1
ssS'identified'
p4321
(dp4322
g101
I1
sg129
I1
sg68
I1
ssS'slide'
p4323
(dp4324
g72
I1
sg131
I1
ssS'transmitted'
p4325
(dp4326
g184
I1
ssS'mode'
p4327
(dp4328
g19
I1
sg69
I3
sg47
I1
ssS'pools'
p4329
(dp4330
g29
I1
ssS'identifier'
p4331
(dp4332
g66
I1
sg85
I1
sg87
I1
ssS'shaking'
p4333
(dp4334
g72
I1
sg13
I1
sg87
I1
sg131
I1
sg184
I1
ssS'constraints'
p4335
(dp4336
g66
I1
sg700
I1
sg72
I1
ssS'\xe2\x80\x9cshow'
p4337
(dp4338
g177
I1
ssS'8)'
p4339
(dp4340
g68
I1
ssS'144'
p4341
(dp4342
g88
I1
ssS'related'
p4343
(dp4344
g36
I1
sg128
I1
ssS'bluetooth'
p4345
(dp4346
g139
I1
sg51
I1
sg33
I1
sg125
I2
sg75
I1
sg97
I1
ssS'frequency'
p4347
(dp4348
g72
I1
sg129
I1
sg184
I1
ssS'variety'
p4349
(dp4350
g139
I1
ssS'naikoji'
p4351
(dp4352
g3
I1
ssS'measure'
p4353
(dp4354
g72
I1
ssS'our'
p4355
(dp4356
g100
I1
sg20
I1
sg67
I2
sg128
I3
sg112
I2
sg12
I1
sg13
I1
ssS'81'
p4357
(dp4358
g125
I1
ssS'indulged'
p4359
(dp4360
g131
I1
ssS'84'
p4361
(dp4362
g6
I1
ssS'out'
p4363
(dp4364
g27
I2
sg100
I1
sg136
I1
sg67
I1
sg139
I1
sg82
I1
sg68
I1
sg112
I2
ssS'responsesetcontenttype("applicationkeyhole")'
p4365
(dp4366
g28
I1
ssS'entertainment'
p4367
(dp4368
g131
I1
ssS'res'
p4369
(dp4370
g68
I2
ssS'stud'
p4371
(dp4372
g36
I1
sg85
I1
ssS'lecture'
p4373
(dp4374
g131
I2
sg184
I2
ssS'adaptive'
p4375
(dp4376
g129
I1
sg298
I1
ssS'integrated'
p4377
(dp4378
g100
I1
ssS'architecture'
p4379
(dp4380
g54
I1
sg142
I1
sg50
I2
sg69
I1
sg102
I1
sg75
I1
sg57
I2
sg368
I3
sg125
I1
sg20
I2
sg23
I1
sg131
I1
sg112
I1
sg128
I1
sg184
I1
sg139
I1
ssS'ecf'
p4381
(dp4382
g125
I1
ssS'sessionfacade'
p4383
(dp4384
g16
I1
ssS'project\xe2\x80\x99s'
p4385
(dp4386
g29
I1
ssS'release'
p4387
(dp4388
g125
I1
sg139
I1
ssS'completely'
p4389
(dp4390
g29
I1
ssS'chattingslacking'
p4391
(dp4392
g131
I1
ssS'g'
p4393
(dp4394
g3
I3
sg7
I3
ssS'informs'
p4395
(dp4396
g86
I1
sg87
I1
ssS'could'
p4397
(dp4398
g112
I1
sg128
I1
sg75
I1
ssS'opengl'
p4399
(dp4400
g112
I1
ssS'times'
p4401
(dp4402
g102
I2
ssS'geo-'
p4403
(dp4404
g47
I1
ssS'devices\xe2\x80\x9d'
p4405
(dp4406
g298
I1
ssS'8]'
p4407
(dp4408
g57
I1
ssS'restaurants'
p4409
(dp4410
g129
I1
ssS'26figure'
p4411
(dp4412
g33
I1
ssS'midp'
p4413
(dp4414
g97
I2
sg109
I1
ssS'ijecs'
p4415
(dp4416
g19
I1
sg20
I1
sg128
I1
sg215
I1
ssS'(open'
p4417
(dp4418
g130
I1
ssS'+"<description>")'
p4419
(dp4420
g28
I1
ssS'third'
p4421
(dp4422
g50
I1
sg184
I1
ssS'powerful'
p4423
(dp4424
g129
I1
ssS'owned'
p4425
(dp4426
g72
I1
ssS'date'
p4427
(dp4428
g11
I1
sg143
I2
sg39
I1
sg66
I1
ssS'\xe2\x80\x9canalysis'
p4429
(dp4430
g67
I1
ssS'documentation)'
p4431
(dp4432
g97
I1
ssS'supriya'
p4433
(dp4434
g19
I1
sg215
I1
sg128
I1
sg82
I1
sg20
I1
ssS'createsql'
p4435
(dp4436
g29
I2
ssS'precisely'
p4437
(dp4438
g57
I1
ssS'quality'
p4439
(dp4440
g136
I1
sg129
I1
ssS'management'
p4441
(dp4442
g6
I1
sg100
I1
sg160
I1
sg128
I1
sg50
I2
sg85
I1
sg82
I2
sg112
I1
ssS'be-'
p4443
(dp4444
g50
I1
sg102
I1
sg51
I1
ssS'system'
p4445
(dp4446
g54
I1
sg6
I1
sg26
I1
sg101
I4
sg33
I2
sg47
I1
sg215
I1
sg3
I2
sg20
I4
sg67
I1
sg128
I5
sg82
I2
sg130
I3
sg8
I7
sg11
I3
sg142
I2
sg66
I3
sg69
I3
sg125
I2
sg16
I1
sg28
I4
sg23
I2
sg100
I4
sg136
I1
sg112
I5
sg129
I1
sg12
I8
sg13
I7
sg72
I2
sg131
I6
sg184
I3
sg120
I3
ssS'relations'
p4447
(dp4448
g27
I1
sg54
I1
sg50
I1
ssS'their'
p4449
(dp4450
g27
I1
sg47
I2
sg100
I1
sg50
I1
sg128
I7
sg82
I1
sg129
I1
sg130
I1
sg8
I2
sg19
I5
sg184
I3
sg136
I4
sg131
I2
sg161
I1
sg139
I1
ssS'attack'
p4451
(dp4452
g129
I1
ssS'28317'
p4453
(dp4454
g39
I1
ssS'final'
p4455
(dp4456
g39
I1
sg82
I1
ssS'interests'
p4457
(dp4458
g129
I1
ssS'challenging'
p4459
(dp4460
g129
I1
ssS'170040)'
p4461
(dp4462
g28
I1
ssS'exactly'
p4463
(dp4464
g142
I1
ssS'slides'
p4465
(dp4466
g72
I1
sg131
I1
sg161
I1
ssS'too'
p4467
(dp4468
g19
I1
sg128
I1
sg82
I1
ssS'simulate'
p4469
(dp4470
g75
I1
ssS'institution'
p4471
(dp4472
g100
I1
ssS'updating'
p4473
(dp4474
g20
I2
ssS'rss'
p4475
(dp4476
g130
I1
ssS'outprintln("<placemark>")'
p4477
(dp4478
g28
I1
ssS'\xe2\x80\x9ewhat'
p4479
(dp4480
g67
I1
ssS'\xe2\x80\x9caccurate'
p4481
(dp4482
g298
I1
ssS'listeners'
p4483
(dp4484
g85
I1
sg87
I1
ssS'prasant'
p4485
(dp4486
g298
I1
ssS'providing'
p4487
(dp4488
g82
I1
ssS'false'
p4489
(dp4490
g72
I1
ssS'comfortable'
p4491
(dp4492
g220
I1
ssS'usenix'
p4493
(dp4494
g298
I1
ssS'have'
p4495
(dp4496
g33
I2
sg75
I1
sg57
I1
sg29
I1
sg30
I1
sg220
I1
sg47
I1
sg19
I1
sg67
I1
sg82
I2
sg161
I1
sg27
I2
sg142
I1
sg125
I1
sg16
I1
sg298
I1
sg100
I1
sg112
I1
sg129
I4
sg7
I1
sg13
I1
sg72
I3
ssS'need'
p4497
(dp4498
g128
I1
sg19
I2
sg101
I1
sg33
I1
sg102
I2
sg16
I1
sg7
I1
sg72
I1
ssS'turn'
p4499
(dp4500
g136
I1
ssS'linked'
p4501
(dp4502
g27
I1
sg16
I1
ssS'depict'
p4503
(dp4504
g161
I1
ssS'smallest'
p4505
(dp4506
g100
I1
ssS'datalength()'
p4507
(dp4508
g68
I1
ssS'able'
p4509
(dp4510
g47
I1
sg6
I1
sg33
I1
sg128
I1
sg28
I1
sg131
I1
sg161
I1
ssS'instance'
p4511
(dp4512
g33
I1
sg16
I1
sg129
I1
ssS'relatives'
p4513
(dp4514
g220
I1
ssS'11figure'
p4515
(dp4516
g16
I1
ssS'which'
p4517
(dp4518
g27
I1
sg47
I3
sg100
I1
sg26
I1
sg75
I1
sg177
I1
sg131
I5
sg82
I2
sg57
I1
sg7
I2
sg8
I2
sg142
I1
sg16
I4
sg50
I3
sg136
I3
sg36
I1
sg72
I1
sg87
I2
sg33
I2
sg184
I3
ssS'(person_id)'
p4519
(dp4520
g143
I1
sg57
I1
ssS'='
p4521
(dp4522
g87
I1
sg68
I5
sg29
I3
sg131
I1
ssS'deploy'
p4523
(dp4524
g125
I1
sg29
I3
ssS'who'
p4525
(dp4526
g142
I1
sg47
I1
sg120
I2
sg88
I1
sg131
I1
ssS'device'
p4527
(dp4528
g27
I1
sg47
I1
sg51
I1
sg66
I1
sg75
I1
sg368
I1
sg68
I1
sg131
I1
sg97
I1
sg184
I5
sg85
I1
sg87
I1
sg72
I2
sg161
I1
sg120
I1
ssS'06'
p4529
(dp4530
g125
I1
ssS'httpwwwjavatpointcomandroid-what-'
p4531
(dp4532
g67
I1
ssS'class'
p4533
(dp4534
g170
I2
sg97
I1
sg50
I1
sg33
I3
sg75
I2
sg57
I1
sg68
I1
sg368
I2
sg16
I2
sg13
I1
sg11
I4
sg36
I2
sg85
I2
sg245
I1
sg87
I1
sg161
I3
sg120
I1
ssS'mi-'
p4535
(dp4536
g57
I1
ssS'getstringofpositionbytrack(track)'
p4537
(dp4538
g28
I1
ssS'url'
p4539
(dp4540
g101
I1
sg85
I1
ssS'[7]'
p4541
(dp4542
g85
I3
sg86
I1
sg97
I1
sg3
I1
sg115
I1
ssS'}'
p4543
(dp4544
g68
I5
ssS'fact'
p4545
(dp4546
g142
I1
sg101
I1
ssS'javapointcom'
p4547
(dp4548
g67
I1
ssS'selection'
p4549
(dp4550
g6
I1
ssS'ulator'
p4551
(dp4552
g26
I1
ssS'text'
p4553
(dp4554
g19
I1
sg36
I1
sg85
I1
sg128
I1
ssS'getpointlistclass'
p4555
(dp4556
g68
I1
ssS'2319-7242'
p4557
(dp4558
g82
I1
ssS'watch'
p4559
(dp4560
g69
I1
ssS'staff'
p4561
(dp4562
g19
I1
sg136
I1
sg128
I1
ssS'redirect'
p4563
(dp4564
g33
I1
ssS'(almost'
p4565
(dp4566
g161
I1
ssS'editing'
p4567
(dp4568
g20
I1
ssS'based'
p4569
(dp4570
g27
I1
sg47
I1
sg100
I1
sg67
I1
sg102
I1
sg50
I1
sg129
I1
sg7
I1
sg8
I2
sg12
I1
sg130
I1
sg125
I1
sg131
I1
sg72
I1
sg69
I1
ssS'knowledge'
p4571
(dp4572
g57
I1
ssS'servicelocatorbasejava'
p4573
(dp4574
g30
I1
ssS'('
p4575
(dp4576
g27
I1
sg143
I3
sg57
I2
ssS'controls'
p4577
(dp4578
g36
I1
sg139
I1
ssS'should'
p4579
(dp4580
g33
I1
sg47
I1
sg6
I1
sg161
I2
ssS'buttons'
p4581
(dp4582
g101
I1
ssS'startnewtrackclass'
p4583
(dp4584
g16
I1
ssS'inherited'
p4585
(dp4586
g85
I1
ssS'local'
p4587
(dp4588
g101
I1
sg72
I1
sg30
I1
ssS'achieve'
p4589
(dp4590
g129
I1
ssS'meant'
p4591
(dp4592
g47
I1
sg184
I1
ssS'emit(string)'
p4593
(dp4594
g86
I1
ssS'httpswwwsharelatexcomlearn'
p4595
(dp4596
g115
I1
ssS'handle'
p4597
(dp4598
g161
I1
ssS'means'
p4599
(dp4600
g28
I1
ssS'succeeded'
p4601
(dp4602
g33
I1
ssS'libraries'
p4603
(dp4604
g139
I2
sg112
I1
ssS'we?\xe2\x80\x9d'
p4605
(dp4606
g47
I1
ssS'listener'
p4607
(dp4608
g87
I1
sg88
I1
sg131
I1
ssS'121'
p4609
(dp4610
g120
I1
ssS'bean'
p4611
(dp4612
g27
I1
sg6
I2
sg54
I1
sg50
I3
sg16
I6
sg68
I1
sg368
I2
sg28
I2
ssS'ones'
p4613
(dp4614
g57
I1
ssS'124'
p4615
(dp4616
g86
I1
ssS'farley'
p4617
(dp4618
g97
I1
ssS'checkattention()'
p4619
(dp4620
g87
I1
ssS'procedures'
p4621
(dp4622
g633
I1
sg100
I1
sg136
I1
sg30
I1
ssS'processes'
p4623
(dp4624
g139
I1
sg112
I1
sg129
I1
ssS'today\xe2\x80\x9fs'
p4625
(dp4626
g82
I1
ssS'(gprs'
p4627
(dp4628
g6
I1
ssS'button)'
p4629
(dp4630
g28
I1
ssS'calling'
p4631
(dp4632
g16
I1
sg28
I1
ssS'contain'
p4633
(dp4634
g66
I1
sg75
I1
ssS'fixed'
p4635
(dp4636
g20
I1
sg102
I1
ssS'view'
p4637
(dp4638
g6
I1
sg184
I1
sg26
I3
sg101
I1
sg177
I1
sg129
I1
sg19
I1
sg13
I1
sg42
I1
sg11
I2
sg36
I2
sg85
I1
sg245
I1
sg161
I3
ssS'xmlns=\\"httpearthgooglecomkml20\\">")'
p4639
(dp4640
g28
I1
ssS'knowing'
p4641
(dp4642
g8
I1
ssS'requirement'
p4643
(dp4644
g161
I1
ssS'exists'
p4645
(dp4646
g69
I1
ssS'configured'
p4647
(dp4648
g29
I1
ssS'module'
p4649
(dp4650
g19
I9
sg20
I3
sg128
I2
sg75
I1
ssS'edition'
p4651
(dp4652
g109
I1
sg69
I1
sg125
I1
sg97
I2
ssS'phones\xe2\x80\x9d'
p4653
(dp4654
g67
I1
ssS'enhanced'
p4655
(dp4656
g100
I1
ssS'operated'
p4657
(dp4658
g8
I1
ssS'(interface)'
p4659
(dp4660
g50
I1
ssS'xxxxx'
p4661
(dp4662
g29
I1
ssS'interacting'
p4663
(dp4664
g87
I1
ssS'track\xe2\x80\x99s'
p4665
(dp4666
g66
I1
ssS'way2sms'
p4667
(dp4668
g19
I1
ssS'pattern'
p4669
(dp4670
g16
I2
ssS'state'
p4671
(dp4672
g54
I1
sg47
I1
sg36
I1
ssS'correctly'
p4673
(dp4674
g29
I1
ssS'boundary'
p4675
(dp4676
g11
I1
sg170
I1
ssS'email'
p4677
(dp4678
g85
I3
sg88
I2
ssS'(jsps)'
p4679
(dp4680
g51
I2
ssS'opening'
p4681
(dp4682
g130
I1
ssS'importance'
p4683
(dp4684
g112
I1
ssS'time\xe2\x80\x9d'
p4685
(dp4686
g69
I1
ssS'emitted'
p4687
(dp4688
g88
I1
ssS'implementing'
p4689
(dp4690
g23
I1
sg72
I1
sg131
I1
ssS'job'
p4691
(dp4692
g160
I1
sg47
I1
sg51
I1
ssS'key'
p4693
(dp4694
g143
I6
sg129
I1
sg50
I2
sg57
I5
sg16
I2
ssS'approval'
p4695
(dp4696
g139
I1
ssS'optional'
p4697
(dp4698
g101
I1
ssS'distribution'
p4699
(dp4700
g139
I1
ssS'(irjet)'
p4701
(dp4702
g67
I1
ssS'(sqlite)'
p4703
(dp4704
g130
I1
ssS'admin'
p4705
(dp4706
g298
I1
sg136
I1
sg177
I6
sg139
I1
sg130
I2
sg29
I2
ssS'taking'
p4707
(dp4708
g27
I1
ssS'ternet'
p4709
(dp4710
g47
I1
ssS'etc'
p4711
(dp4712
g47
I1
sg20
I1
sg33
I1
sg82
I1
sg16
I4
sg130
I3
ssS'stalled)'
p4713
(dp4714
g26
I1
ssS'figures'
p4715
(dp4716
g23
I1
sg245
I1
sg160
I1
ssS'ajinkya'
p4717
(dp4718
g67
I1
ssS'attributes'
p4719
(dp4720
g36
I1
sg85
I1
sg86
I2
sg87
I1
sg88
I2
ssS'safely'
p4721
(dp4722
g128
I1
ssS'otherwise'
p4723
(dp4724
g66
I1
sg112
I1
sg57
I1
sg28
I1
ssS'comment'
p4725
(dp4726
g28
I1
ssS'outprintln("<latitude>"+'
p4727
(dp4728
g27
I1
ssS'relevant'
p4729
(dp4730
g128
I1
sg8
I2
ssS'cb'
p4731
(dp4732
g3
I1
ssS'wali'
p4733
(dp4734
g67
I1
ssS'packaging'
p4735
(dp4736
g109
I1
ssS'sequences'
p4737
(dp4738
g161
I1
ssS'table'
p4739
(dp4740
g27
I2
sg143
I5
sg28
I1
sg57
I4
sg16
I2
ssS'allocated'
p4741
(dp4742
g72
I1
ssS'address_fk'
p4743
(dp4744
g143
I1
ssS'wtk'
p4745
(dp4746
g26
I1
sg101
I1
ssS'addition'
p4747
(dp4748
g125
I1
ssS'(\xe2\x80\x9ddraw'
p4749
(dp4750
g28
I1
ssS'user-controllable'
p4751
(dp4752
g129
I1
ssS'cent'
p4753
(dp4754
g102
I1
ssS'interfaced'
p4755
(dp4756
g72
I1
ssS'mime'
p4757
(dp4758
g27
I1
ssS'treat'
p4759
(dp4760
g50
I1
ssS'>'
p4761
(dp4762
g68
I1
ssS'username'
p4763
(dp4764
g13
I2
ssS'c)'
p4765
(dp4766
g87
I1
ssS'johnvasu87@gmailcom'
p4767
(dp4768
g7
I1
ssS'corresponding'
p4769
(dp4770
g136
I1
sg177
I2
ssS'httpsnodejsorgapi'
p4771
(dp4772
g115
I1
ssS'\xe2\x80\x9cdevelopment'
p4773
(dp4774
g298
I1
ssS'route'
p4775
(dp4776
g19
I1
sg20
I2
sg177
I6
sg82
I1
sg130
I1
sg136
I3
ssS'sufficient'
p4777
(dp4778
g102
I1
ssS'j2ee'
p4779
(dp4780
g220
I2
sg125
I4
sg97
I2
sg16
I1
ssS'oha'
p4781
(dp4782
g130
I1
ssS'2015'
p4783
(dp4784
g3
I2
sg298
I1
sg100
I2
sg136
I2
sg177
I4
sg139
I2
sg112
I2
sg129
I2
sg7
I2
sg67
I1
ssS'controller'
p4785
(dp4786
g11
I1
sg170
I1
ssS'watches'
p4787
(dp4788
g130
I1
ssS'graphics'
p4789
(dp4790
g6
I1
ssS'sessionfigure'
p4791
(dp4792
g161
I1
ssS'general'
p4793
(dp4794
g47
I1
sg50
I2
sg57
I1
sg368
I2
ssS'garmin'
p4795
(dp4796
g47
I1
ssS'present'
p4797
(dp4798
g36
I1
sg75
I1
sg129
I1
sg7
I1
ssS'student)'
p4799
(dp4800
g88
I1
ssS'value'
p4801
(dp4802
g82
I1
sg16
I1
ssS'choices'
p4803
(dp4804
g75
I1
ssS'will'
p4805
(dp4806
g27
I1
sg20
I2
sg125
I1
sg19
I3
sg136
I2
sg26
I2
sg101
I2
sg177
I1
sg128
I2
sg50
I2
sg29
I1
sg8
I1
sg142
I4
sg97
I1
sg66
I2
sg85
I1
sg131
I3
sg72
I9
sg69
I1
sg120
I1
ssS'convertswissgridtowgs84(string[]'
p4807
(dp4808
g27
I1
ssS'hicking'
p4809
(dp4810
g47
I1
ssS'shrikantsonekar@gmailcom'
p4811
(dp4812
g82
I1
ssS'kmlpdf'
p4813
(dp4814
g97
I1
ssS'responsegetwriter()'
p4815
(dp4816
g68
I1
ssS'layer'
p4817
(dp4818
g50
I1
sg139
I1
sg75
I1
sg6
I1
sg184
I1
ssS'20\xe2\x80\x93'
p4819
(dp4820
g30
I1
ssS'manually'
p4821
(dp4822
g50
I1
ssS'almost'
p4823
(dp4824
g47
I2
sg161
I1
ssS'vi'
p4825
(dp4826
g136
I1
ssS'socketclient'
p4827
(dp4828
g87
I1
ssS'thus'
p4829
(dp4830
g8
I1
ssS'site'
p4831
(dp4832
g101
I2
sg368
I1
sg28
I1
ssS'encouragement'
p4833
(dp4834
g67
I1
ssS'hardware'
p4835
(dp4836
g125
I3
sg67
I1
sg54
I1
sg112
I1
sg8
I1
sg23
I1
sg72
I2
ssS'(user_id)'
p4837
(dp4838
g57
I1
ssS'vs'
p4839
(dp4840
g142
I1
sg6
I1
ssS'malls'
p4841
(dp4842
g129
I1
ssS'2250-3498'
p4843
(dp4844
g3
I1
ssS'portray'
p4845
(dp4846
g72
I1
ssS')'
p4847
(dp4848
g28
I1
ssS'[6]'
p4849
(dp4850
g36
I2
sg97
I1
sg3
I1
sg115
I1
ssS'administration'
p4851
(dp4852
g19
I1
sg20
I4
ssS'parts'
p4853
(dp4854
g112
I1
ssS'android'
p4855
(dp4856
g139
I5
sg3
I2
sg298
I4
sg100
I3
sg112
I5
sg67
I1
sg128
I1
sg82
I4
sg129
I2
sg7
I3
sg8
I2
sg130
I5
sg184
I1
sg120
I1
sg72
I2
sg161
I1
sg115
I2
ssS'gets'
p4857
(dp4858
g28
I1
ssS'ball'
p4859
(dp4860
g97
I1
ssS'http'
p4861
(dp4862
g33
I2
sg75
I1
sg57
I1
sg68
I3
ssS'logic'
p4863
(dp4864
g50
I2
ssS'programmer\xe2\x80\x99s'
p4865
(dp4866
g298
I1
ssS'bala'
p4867
(dp4868
g3
I1
sg7
I1
ssS'student'
p4869
(dp4870
g128
I1
sg19
I1
sg72
I2
sg177
I2
sg367
I1
sg129
I1
sg8
I1
sg131
I3
sg12
I13
sg13
I1
sg184
I2
sg23
I1
sg11
I2
sg36
I3
sg85
I6
sg86
I3
sg87
I2
sg88
I9
sg161
I2
sg120
I2
ssS'requests'
p4871
(dp4872
g12
I2
sg13
I1
sg68
I1
ssS'bhattacharya'
p4873
(dp4874
g39
I2
ssS'acknowledgement'
p4875
(dp4876
g67
I1
sg13
I2
ssS'27figure'
p4877
(dp4878
g33
I1
ssS'(jvm)'
p4879
(dp4880
g82
I1
ssS'well'
p4881
(dp4882
g7
I2
sg33
I1
sg102
I1
sg129
I1
sg161
I1
ssS'flanagan'
p4883
(dp4884
g97
I1
ssS'patterns'
p4885
(dp4886
g97
I1
ssS'command'
p4887
(dp4888
g27
I1
ssS'(estij)'
p4889
(dp4890
g3
I1
ssS'sets'
p4891
(dp4892
g87
I1
ssS'position'
p4893
(dp4894
g27
I1
sg220
I1
sg47
I1
sg51
I2
sg6
I2
sg26
I3
sg66
I1
sg69
I2
sg75
I1
sg57
I1
sg68
I1
sg368
I2
sg142
I1
sg16
I1
sg129
I1
sg28
I2
sg33
I2
ssS'audio'
p4895
(dp4896
g131
I1
sg184
I1
ssS'sensing'
p4897
(dp4898
g298
I1
ssS'drawing'
p4899
(dp4900
g27
I1
sg33
I1
sg102
I1
sg368
I1
sg28
I3
ssS'usual'
p4901
(dp4902
g57
I1
ssS'samit'
p4903
(dp4904
g23
I1
ssS'stores'
p4905
(dp4906
g36
I1
ssS'proximity'
p4907
(dp4908
g86
I1
sg72
I1
sg131
I1
sg184
I1
sg120
I1
ssS'detail'
p4909
(dp4910
g12
I1
sg367
I1
sg125
I1
ssS'sources'
p4911
(dp4912
g101
I1
sg29
I1
sg30
I1
ssS'underlying'
p4913
(dp4914
g87
I2
sg16
I1
ssS'crt_track'
p4915
(dp4916
g143
I1
ssS'paul'
p4917
(dp4918
g298
I1
ssS'(north'
p4919
(dp4920
g27
I1
ssS'low-level'
p4921
(dp4922
g112
I1
ssS'getlistofpositionbytrackinkmlformat(track)'
p4923
(dp4924
g27
I1
ssS'web'
p4925
(dp4926
g51
I2
sg6
I1
sg26
I2
sg101
I5
sg33
I1
sg102
I2
sg47
I3
sg633
I1
sg67
I1
sg54
I1
sg368
I6
sg130
I1
sg8
I1
sg142
I2
sg66
I6
sg69
I3
sg125
I1
sg50
I4
sg16
I3
sg28
I3
sg298
I1
sg112
I1
sg184
I1
ssS'console'
p4927
(dp4928
g29
I3
ssS'logged'
p4929
(dp4930
g11
I1
sg101
I1
sg12
I2
sg13
I1
sg66
I1
ssS'spinner'
p4931
(dp4932
g136
I1
sg177
I2
ssS'add'
p4933
(dp4934
g101
I3
sg177
I2
sg57
I2
sg143
I3
ssS'extends'
p4935
(dp4936
g36
I1
ssS'nor'
p4937
(dp4938
g19
I1
ssS'driver\xe2\x80\x99s'
p4939
(dp4940
g177
I1
ssS'smart'
p4941
(dp4942
g215
I1
sg67
I1
sg128
I1
sg82
I2
sg130
I1
ssS'details'
p4943
(dp4944
g112
I1
sg19
I1
sg75
I1
sg177
I4
sg128
I1
sg82
I2
sg130
I2
sg8
I3
sg13
I3
sg20
I1
sg11
I4
sg36
I1
sg131
I2
sg88
I1
ssS'tests'
p4945
(dp4946
g100
I1
sg102
I3
sg160
I1
ssS'characters'
p4947
(dp4948
g66
I1
ssS'start_time'
p4949
(dp4950
g143
I1
ssS'term'
p4951
(dp4952
g33
I1
sg120
I1
ssS'elapsed'
p4953
(dp4954
g28
I1
ssS'know'
p4955
(dp4956
g136
I2
sg112
I1
ssS'deployment'
p4957
(dp4958
g29
I1
ssS'password'
p4959
(dp4960
g142
I1
sg101
I1
sg69
I1
sg57
I1
sg29
I1
sg13
I2
sg66
I3
sg85
I3
ssS'desc'
p4961
(dp4962
g36
I6
sg85
I5
sg86
I10
sg87
I6
sg88
I3
ssS'(persistence)'
p4963
(dp4964
g51
I1
ssS'necessary'
p4965
(dp4966
g112
I1
sg57
I1
ssS'like'
p4967
(dp4968
g47
I2
sg100
I1
sg112
I1
sg67
I1
sg82
I1
sg130
I3
sg11
I1
sg33
I1
ssS'exploiting'
p4969
(dp4970
g129
I1
ssS'nonfunctional'
p4971
(dp4972
g367
I1
sg161
I1
ssS'become'
p4973
(dp4974
g26
I1
sg69
I1
sg82
I2
ssS'paragliding'
p4975
(dp4976
g220
I1
ssS'page'
p4977
(dp4978
g20
I2
sg102
I1
sg215
I2
sg136
I2
sg101
I2
sg177
I4
sg128
I2
sg82
I1
sg368
I1
sg33
I1
sg19
I4
sg13
I1
sg66
I4
sg69
I3
ssS'because'
p4979
(dp4980
g112
I2
ssS'getpointlist'
p4981
(dp4982
g28
I1
ssS'savedinstancestate)'
p4983
(dp4984
g36
I1
ssS'upgrades'
p4985
(dp4986
g129
I1
ssS'searching'
p4987
(dp4988
g129
I1
ssS'library'
p4989
(dp4990
g85
I1
sg72
I2
ssS'18figure'
p4991
(dp4992
g161
I1
ssS'report-presentation'
p4993
(dp4994
g29
I1
ssS'114'
p4995
(dp4996
g85
I1
ssS'proper'
p4997
(dp4998
g19
I1
sg102
I1
sg87
I1
ssS'home'
p4999
(dp5000
g177
I3
ssS'transport'
p5001
(dp5002
g8
I1
ssS'focused'
p5003
(dp5004
g36
I1
ssS'avoid'
p5005
(dp5006
g50
I1
sg7
I1
ssS'a)'
p5007
(dp5008
g87
I1
ssS'does'
p5009
(dp5010
g69
I1
sg28
I1
sg72
I2
sg57
I1
sg16
I1
ssS'502g'
p5011
(dp5012
g139
I1
ssS'backend'
p5013
(dp5014
g184
I1
ssS'selecting'
p5015
(dp5016
g26
I1
ssS'journal'
p5017
(dp5018
g112
I1
sg3
I6
sg100
I1
sg136
I1
sg177
I2
sg139
I1
sg82
I1
sg129
I1
sg7
I3
sg67
I3
ssS'(removeexception'
p5019
(dp5020
g68
I1
ssS'overall'
p5021
(dp5022
g184
I1
ssS'how'
p5023
(dp5024
g136
I1
sg125
I1
sg50
I1
sg298
I1
ssS'auto-rickshaws'
p5025
(dp5026
g128
I1
ssS'described'
p5027
(dp5028
g142
I2
sg128
I1
sg75
I1
sg16
I1
ssS'r'
p5029
(dp5030
g3
I1
sg7
I1
ssS'periodically'
p5031
(dp5032
g69
I1
ssS'panel'
p5033
(dp5034
g47
I1
ssS'about'
p5035
(dp5036
g47
I1
sg129
I1
sg7
I1
sg8
I1
sg97
I1
sg86
I1
sg72
I1
sg88
I1
ssS'actual'
p5037
(dp5038
g75
I2
sg129
I1
ssS'boards'
p5039
(dp5040
g8
I1
ssS'world'
p5041
(dp5042
g215
I1
sg47
I1
sg82
I2
ssS'getting'
p5043
(dp5044
g129
I1
sg131
I1
ssS'internet-related'
p5045
(dp5046
g184
I1
ssS'ejbactivate()'
p5047
(dp5048
g16
I1
ssS'1018535ijecsv6i222'
p5049
(dp5050
g19
I1
sg20
I1
sg128
I1
sg82
I1
ssS'pooja'
p5051
(dp5052
g67
I1
sg82
I1
ssS'monthly'
p5053
(dp5054
g7
I1
ssS'that\xe2\x80\x99s'
p5055
(dp5056
g102
I1
ssS'constructor'
p5057
(dp5058
g85
I1
sg86
I1
sg87
I1
ssS'software'
p5059
(dp5060
g125
I2
sg100
I2
sg136
I3
sg54
I2
sg50
I1
sg129
I1
sg131
I1
sg13
I1
sg184
I3
sg23
I2
sg72
I1
sg112
I1
sg161
I1
sg120
I2
ssS'alliance'
p5061
(dp5062
g130
I1
ssS'previously'
p5063
(dp5064
g36
I1
ssS'nighot'
p5065
(dp5066
g3
I1
ssS'functional'
p5067
(dp5068
g142
I1
sg54
I1
ssS'httpservletresponse'
p5069
(dp5070
g68
I1
ssS'httpsgithubcomsocketiosocket'
p5071
(dp5072
g115
I1
ssS'weather'
p5073
(dp5074
g130
I1
ssS'registration'
p5075
(dp5076
g26
I1
sg66
I1
sg368
I1
ssS'networking'
p5077
(dp5078
g298
I1
ssS'additional'
p5079
(dp5080
g101
I1
ssS'transfer'
p5081
(dp5082
g139
I2
ssS'jsps'
p5083
(dp5084
g30
I1
sg33
I1
sg54
I1
sg50
I1
sg16
I5
sg368
I1
sg28
I1
ssS'much'
p5085
(dp5086
g139
I1
sg298
I1
ssS'tracker_login'
p5087
(dp5088
g57
I2
ssS'north'
p5089
(dp5090
g27
I1
sg143
I1
sg69
I1
sg28
I1
sg66
I1
ssS'trackentitybeanjava'
p5091
(dp5092
g30
I1
ssS'triggered'
p5093
(dp5094
g85
I2
sg88
I2
sg131
I1
ssS'bus'
p5095
(dp5096
g3
I4
sg298
I4
sg100
I1
sg20
I4
sg67
I3
sg128
I9
sg82
I5
sg7
I5
sg8
I16
sg19
I7
sg130
I3
sg136
I10
sg177
I6
ssS'but'
p5097
(dp5098
g27
I1
sg47
I1
sg100
I1
sg26
I1
sg33
I2
sg102
I4
sg75
I1
sg16
I1
sg129
I2
sg142
I1
ssS'volume'
p5099
(dp5100
g215
I1
sg3
I5
sg19
I1
sg20
I1
sg67
I2
sg128
I1
sg82
I1
ssS'expected'
p5101
(dp5102
g102
I1
ssS'goals'
p5103
(dp5104
g220
I1
sg54
I1
ssS'overflow'
p5105
(dp5106
g115
I1
ssS'ear'
p5107
(dp5108
g131
I1
sg29
I1
ssS'bug'
p5109
(dp5110
g33
I1
ssS'he'
p5111
(dp5112
g33
I1
sg12
I1
sg177
I8
sg67
I1
ssS'count'
p5113
(dp5114
g11
I1
sg88
I1
ssS'also'
p5115
(dp5116
g47
I1
sg6
I1
sg298
I2
sg100
I4
sg136
I2
sg177
I4
sg128
I1
sg82
I1
sg16
I3
sg7
I2
sg129
I1
sg13
I1
sg130
I1
sg112
I1
sg88
I1
sg161
I1
ssS'activitystartconnection'
p5117
(dp5118
g85
I1
ssS'made'
p5119
(dp5120
g100
I1
sg112
I1
sg29
I1
ssS'places'
p5121
(dp5122
g36
I1
sg129
I1
ssS'j'
p5123
(dp5124
g97
I1
ssS'\xc2\xa9'
p5125
(dp5126
g298
I1
sg100
I1
sg136
I1
sg177
I2
sg139
I1
sg112
I1
sg129
I1
ssS're-installed'
p5127
(dp5128
g33
I1
ssS'record'
p5129
(dp5130
g69
I2
sg47
I1
sg16
I1
ssS'below'
p5131
(dp5132
g136
I2
sg177
I4
sg75
I1
sg130
I1
ssS'demonstrate'
p5133
(dp5134
g128
I1
ssS'problem'
p5135
(dp5136
g86
I1
sg13
I1
ssS'display'
p5137
(dp5138
g13
I1
sg72
I1
sg7
I1
sg8
I1
ssS'jun-'
p5139
(dp5140
g67
I1
ssS'handset'
p5141
(dp5142
g130
I2
ssS'2])'
p5143
(dp5144
g16
I1
ssS'580000'
p5145
(dp5146
g27
I1
ssS'is?\xe2\x80\x9d'
p5147
(dp5148
g47
I1
ssS'83'
p5149
(dp5150
g11
I1
sg69
I1
ssS'0000'
p5151
(dp5152
g27
I1
ssS'functions'
p5153
(dp5154
g136
I1
sg72
I1
ssS'transitions'
p5155
(dp5156
g72
I1
sg131
I1
ssS'calibration'
p5157
(dp5158
g27
I1
ssS'42'
p5159
(dp5160
g633
I1
sg11
I1
sg170
I1
sg72
I1
sg29
I1
ssS'43'
p5161
(dp5162
g633
I1
sg101
I1
sg170
I1
sg36
I1
ssS'virtual'
p5163
(dp5164
g82
I1
sg28
I1
ssS'41'
p5165
(dp5166
g170
I1
sg633
I1
sg30
I1
sg11
I1
sg36
I1
sg245
I1
sg161
I1
ssS'instructors'
p5167
(dp5168
g184
I1
sg120
I1
ssS'other'
p5169
(dp5170
g6
I1
sg298
I1
sg100
I1
sg69
I1
sg129
I1
sg8
I1
sg72
I1
sg120
I1
ssS'bool'
p5171
(dp5172
g86
I2
sg88
I1
ssS'special'
p5173
(dp5174
g142
I2
sg101
I1
sg28
I1
ssS'4)'
p5175
(dp5176
g16
I1
ssS'conclusion'
p5177
(dp5178
g100
I1
sg128
I1
ssS'june'
p5179
(dp5180
g3
I1
ssS'bundle'
p5181
(dp5182
g36
I1
ssS'in-'
p5183
(dp5184
g26
I1
sg47
I1
sg16
I1
sg29
I1
ssS'\xe2\x80\xa2'
p5185
(dp5186
g125
I4
sg51
I2
sg6
I3
sg26
I5
sg101
I6
sg33
I3
sg102
I2
sg75
I2
sg29
I2
sg30
I4
sg131
I3
sg161
I5
ssS'niket'
p5187
(dp5188
g3
I1
ssS'\xe2\x80\x93'
p5189
(dp5190
g3
I1
sg75
I5
sg6
I12
sg7
I2
sg30
I12
ssS'starting'
p5191
(dp5192
g220
I1
sg51
I2
ssS'zhu1'
p5193
(dp5194
g298
I1
ssS'understand'
p5195
(dp5196
g112
I1
ssS'accidents'
p5197
(dp5198
g100
I1
sg220
I1
ssS'8th'
p5199
(dp5200
g298
I1
ss.