(dp0
S'represent'
p1
(dp2
S'file4.txt,line.no:37'
p3
(lp4
S'for'
p5
assS'all'
p6
(dp7
S'file3.txt,line.no:141'
p8
(lp9
S'are'
p10
asS'file2.txt,line.no:183'
p11
(lp12
S'the'
p13
asS'file2.txt,line.no:222'
p14
(lp15
S'the'
p16
asS'file2.txt,line.no:160'
p17
(lp18
S'the'
p19
assS'concept'
p20
(dp21
S'file4.txt,line.no:16'
p22
(lp23
S'is'
p24
asS'file4.txt,line.no:3'
p25
(lp26
S'of'
p27
asS'file4.txt,line.no:19'
p28
(lp29
S'of'
p30
assS'Based'
p31
(dp32
S'file3.txt,line.no:14'
p33
(lp34
S'Services,'
p35
assS'Thiagarajan,'
p36
(dp37
S'file3.txt,line.no:145'
p38
(lp39
S'L.'
p40
assS'2.1.'
p41
(dp42
S'file4.txt,line.no:4'
p43
(lp44
S'If'
p45
assS'Monthly'
p46
(dp47
S'file3.txt,line.no:4'
p48
(lp49
S'Journal'
p50
assS'forbidden'
p51
(dp52
S'file2.txt,line.no:26'
p53
(lp54
S'from'
p55
assS'dynamic'
p56
(dp57
S'file3.txt,line.no:20'
p58
(lp59
S'business'
p60
assS'focus'
p61
(dp62
S'file3.txt,line.no:55'
p63
(lp64
S'of'
p65
assS'tested'
p66
(dp67
S'file3.txt,line.no:117'
p68
(lp69
S'individually'
p70
assS'leads'
p71
(dp72
S'file3.txt,line.no:44'
p73
(lp74
S'to'
p75
assS'executing'
p76
(dp77
S'file3.txt,line.no:123'
p78
(lp79
S'a'
p80
assS'manager'
p81
(dp82
S'file4.txt,line.no:44'
p83
(lp84
S'has'
p85
asS'file3.txt,line.no:68'
p86
(lp87
S'and'
p88
asg14
(lp89
S'and'
p90
assS'manages'
p91
(dp92
S'file2.txt,line.no:143'
p93
(lp94
S'the'
p95
assS'acknowledging'
p96
(dp97
S'file2.txt,line.no:80'
p98
(lp99
S'joining'
p100
assS'Devices,\xe2\x80\x9d'
p101
(dp102
S'file3.txt,line.no:146'
p103
(lp104
S'in'
p105
assS'[9,'
p106
(dp107
S'file4.txt,line.no:5'
p108
(lp109
S'2].'
p110
assS'Department'
p111
(dp112
S'file3.txt,line.no:9'
p113
(lp114
S','
p115
assS'follow'
p116
(dp117
S'file4.txt,line.no:8'
p118
(lp119
S'physically'
p120
assS'User\xe2\x80\x99s'
p121
(dp122
S'file3.txt,line.no:43'
p123
(lp124
S'location.'
p125
assS'displaying'
p126
(dp127
S'file3.txt,line.no:60'
p128
(lp129
S'current'
p130
assS'2.4.1'
p131
(dp132
S'file2.txt,line.no:8'
p133
(lp134
S'User'
p135
assS'issues'
p136
(dp137
S'file3.txt,line.no:127'
p138
(lp139
S'are'
p140
assS'relationships'
p141
(dp142
S'file2.txt,line.no:131'
p143
(lp144
S'between'
p145
assS'attentive'
p146
(dp147
S'file2.txt,line.no:100'
p148
(lp149
S'and'
p150
assS'BY:'
p151
(dp152
S'file2.txt,line.no:248'
p153
(lp154
S'UI'
p155
asS'file2.txt,line.no:164'
p156
(lp157
S'The'
p158
asS'file2.txt,line.no:221'
p159
(lp160
S'Socket::OnConnectEventListener'
p161
asS'file2.txt,line.no:154'
p162
(lp163
S'The'
p164
asS'file2.txt,line.no:182'
p165
(lp166
S'Main'
p167
assS'Accelerometer'
p168
(dp169
S'file2.txt,line.no:200'
p170
(lp171
S'reading'
p172
assS're'
p173
(dp174
S'file2.txt,line.no:85'
p175
(lp176
S'enter'
p177
assS'(for'
p178
(dp179
S'file4.txt,line.no:27'
p180
(lp181
S'instance),'
p182
assS'Object'
p183
(dp184
S'file2.txt,line.no:207'
p185
(lp186
S'Oriented'
p187
asS'file2.txt,line.no:240'
p188
(lp189
S'Oriented'
p190
asS'file2.txt,line.no:173'
p191
(lp192
S'Oriented'
p193
asS'file2.txt,line.no:138'
p194
(lp195
S'Oriented'
p196
asS'file2.txt,line.no:117'
p197
(lp198
S'Oriented'
p199
assS'Programmer\xe2\x80\x99s'
p200
(dp201
S'file3.txt,line.no:153'
p202
(lp203
S'Guide,'
p204
assS'Chicago:'
p205
(dp206
g202
(lp207
S'McGraw-Hill,'
p208
assS'send'
p209
(dp210
S'file3.txt,line.no:74'
p211
(lp212
S'the'
p213
asS'file4.txt,line.no:20'
p214
(lp215
S'them'
p216
assS'94'
p217
(dp218
g197
(lp219
S'Object'
p220
assS'environment'
p221
(dp222
g63
(lp223
S'that'
p224
assS'to'
p225
(dp226
S'file3.txt,line.no:88'
p227
(lp228
S'the'
p229
aS'select'
p230
asg153
(lp231
S'start'
p232
asS'file2.txt,line.no:249'
p233
(lp234
S'w'
p235
asS'file2.txt,line.no:245'
p236
(lp237
S'the'
p238
asS'file2.txt,line.no:153'
p239
(lp240
S'Socket'
p241
asg73
(lp242
S'disclosing'
p243
asS'file3.txt,line.no:45'
p244
(lp245
S'achieve'
p246
asS'file3.txt,line.no:46'
p247
(lp248
S'control'
p249
asS'file3.txt,line.no:47'
p250
(lp251
S'control'
p252
asS'file3.txt,line.no:38'
p253
(lp254
S'look'
p255
asS'file3.txt,line.no:31'
p256
(lp257
S'accurately'
p258
asS'file3.txt,line.no:139'
p259
(lp260
S'the'
p261
aS'retrieve'
p262
asS'file3.txt,line.no:138'
p263
(lp264
S'start'
p265
asS'file2.txt,line.no:41'
p266
(lp267
S'meet'
p268
asS'file2.txt,line.no:47'
p269
(lp270
S'as'
p271
asS'file4.txt,line.no:48'
p272
(lp273
S'be'
p274
aS'be'
p275
asS'file3.txt,line.no:131'
p276
(lp277
S'manage'
p278
aS'the'
p279
asS'file3.txt,line.no:130'
p280
(lp281
S'do'
p282
asS'file4.txt,line.no:47'
p283
(lp284
S'do:'
p285
asS'file3.txt,line.no:132'
p286
(lp287
S'carry'
p288
asS'file3.txt,line.no:136'
p289
(lp290
S'rep'
p291
aS'track'
p292
asS'file2.txt,line.no:110'
p293
(lp294
S'enter'
p295
asS'file3.txt,line.no:57'
p296
(lp297
S'develop'
p298
aS'decide.'
p299
asS'file3.txt,line.no:50'
p300
(lp301
S'control'
p302
asg108
(lp303
g106
asg214
(lp304
S'use'
p305
aS'receive'
p306
ag80
aS'the'
p307
asg118
(lp308
g116
asS'file2.txt,line.no:76'
p309
(lp310
S'Join'
p311
asS'file4.txt,line.no:31'
p312
(lp313
S'the'
p314
asS'file3.txt,line.no:120'
p315
(lp316
S'test'
p317
aS'determine'
p318
asS'file2.txt,line.no:70'
p319
(lp320
S'enter'
p321
asS'file2.txt,line.no:96'
p322
(lp323
S'displays'
p324
aS'the'
p325
asS'file2.txt,line.no:93'
p326
(lp327
S'monitor'
p328
asS'file2.txt,line.no:98'
p329
(lp330
S'pay'
p331
asS'file3.txt,line.no:67'
p332
(lp333
S'the'
p334
asS'file3.txt,line.no:65'
p335
(lp336
S'create'
p337
asS'file2.txt,line.no:62'
p338
(lp339
S'enter'
p340
asS'file4.txt,line.no:25'
p341
(lp342
S'be'
p343
asS'file3.txt,line.no:102'
p344
(lp345
S'the'
p346
aS'select'
p347
asS'file3.txt,line.no:103'
p348
(lp349
S'the'
p350
asS'file2.txt,line.no:210'
p351
(lp352
S'the'
p353
asS'file4.txt,line.no:10'
p354
(lp355
S'propose'
p356
aS'get'
p357
asS'file2.txt,line.no:105'
p358
(lp359
S'as'
p360
asS'file2.txt,line.no:107'
p361
(lp362
S'view'
p363
asS'file2.txt,line.no:101'
p364
(lp365
S'professor.'
p366
asS'file2.txt,line.no:218'
p367
(lp368
S'be'
p369
asS'file4.txt,line.no:18'
p370
(lp371
S'find'
p372
asS'file2.txt,line.no:87'
p373
(lp374
S'monitor'
p375
asg175
(lp376
g173
asS'file2.txt,line.no:82'
p377
(lp378
S'monitor'
p379
asS'file2.txt,line.no:81'
p380
(lp381
S'monitor'
p382
asS'file2.txt,line.no:88'
p383
(lp384
S'the'
p385
asS'file2.txt,line.no:18'
p386
(lp387
S'update'
p388
asS'file2.txt,line.no:19'
p389
(lp390
S'the'
p391
asS'file3.txt,line.no:72'
p392
(lp393
S'add'
p394
asS'file2.txt,line.no:10'
p395
(lp396
S'get'
p397
asS'file2.txt,line.no:13'
p398
(lp399
S'measure'
p400
asS'file2.txt,line.no:187'
p401
(lp402
S'access'
p403
asS'file2.txt,line.no:206'
p404
(lp405
S'the'
p406
asS'file3.txt,line.no:89'
p407
(lp408
S'the'
p409
aS'select.'
p410
asS'file2.txt,line.no:116'
p411
(lp412
S'enter'
p413
asS'file3.txt,line.no:83'
p414
(lp415
S'enter'
p416
aS'login'
p417
asS'file3.txt,line.no:84'
p418
(lp419
S'enter'
p420
asS'file3.txt,line.no:86'
p421
(lp422
S'the'
p423
asS'file3.txt,line.no:75'
p424
(lp425
S'add'
p426
asg211
(lp427
S'the'
p428
asS'file3.txt,line.no:70'
p429
(lp430
S'the'
p431
asS'file3.txt,line.no:73'
p432
(lp433
S'modify'
p434
aS'say'
p435
aS'the'
p436
asS'file2.txt,line.no:42'
p437
(lp438
S'make'
p439
asS'file2.txt,line.no:195'
p440
(lp441
S'Instructor'
p442
asS'file4.txt,line.no:49'
p443
(lp444
S'enter'
p445
asS'file2.txt,line.no:233'
p446
(lp447
S'the'
p448
asS'file3.txt,line.no:99'
p449
(lp450
S'enter'
p451
aS'login'
p452
asS'file2.txt,line.no:239'
p453
(lp454
S'communicate'
p455
asS'file2.txt,line.no:33'
p456
(lp457
S'the'
p458
asS'file2.txt,line.no:9'
p459
(lp460
S'establish'
p461
asS'file3.txt,line.no:15'
p462
(lp463
S'reach'
p464
asg33
(lp465
S'track'
p466
asS'file2.txt,line.no:24'
p467
(lp468
S'implement'
p469
asS'file2.txt,line.no:27'
p470
(lp471
S'portray'
p472
asS'file2.txt,line.no:29'
p473
(lp474
S'maintain'
p475
asS'file2.txt,line.no:141'
p476
(lp477
S'the'
p478
asg93
(lp479
S'the'
p480
asS'file2.txt,line.no:148'
p481
(lp482
S'the'
p483
asS'file3.txt,line.no:28'
p484
(lp485
S'use'
p486
asS'file3.txt,line.no:26'
p487
(lp488
S'be'
p489
asS'file3.txt,line.no:22'
p490
(lp491
S'have'
p492
asS'file3.txt,line.no:21'
p493
(lp494
S'communicate'
p495
asS'file2.txt,line.no:51'
p496
(lp497
S'enter'
p498
asS'file4.txt,line.no:56'
p499
(lp500
S'access'
p501
asS'file3.txt,line.no:140'
p502
(lp503
S'reach'
p504
aS'see'
p505
asS'file3.txt,line.no:142'
p506
(lp507
S'manage'
p508
assS'program'
p509
(dp510
S'file3.txt,line.no:124'
p511
(lp512
S'with'
p513
assS'helps'
p514
(dp515
S'file4.txt,line.no:32'
p516
(lp517
S'for'
p518
assS'Not'
p519
(dp520
S'file3.txt,line.no:37'
p521
(lp522
S'only'
p523
assS'G.'
p524
(dp525
S'file3.txt,line.no:1'
p526
(lp527
S'Jemilda'
p528
assS'Orientation'
p529
(dp530
S'file2.txt,line.no:2'
p531
(lp532
S'(X'
p533
asS'file2.txt,line.no:231'
p534
(lp535
S'(X'
p536
assS'instantiates'
p537
(dp538
S'file2.txt,line.no:156'
p539
(lp540
S'the'
p541
asg17
(lp542
S'all'
p543
assS'friendly'
p544
(dp545
S'file3.txt,line.no:13'
p546
(lp547
S'approach.'
p548
assS'norm'
p549
(dp550
S'file2.txt,line.no:95'
p551
(lp552
S'and'
p553
assS'al.'
p554
(dp555
S'file3.txt,line.no:54'
p556
(lp557
S'learned'
p558
asS'file3.txt,line.no:42'
p559
(lp560
S'discussed'
p561
assS'activities'
p562
(dp563
g476
(lp564
S'related'
p565
asS'file4.txt,line.no:29'
p566
(lp567
S'like'
p568
asS'file3.txt,line.no:111'
p569
(lp570
S'performed'
p571
assS'al,'
p572
(dp573
S'file3.txt,line.no:107'
p574
(lp575
S'International'
p576
asS'file3.txt,line.no:79'
p577
(lp578
S'International'
p579
asS'file3.txt,line.no:34'
p580
(lp581
S'International'
p582
asS'file3.txt,line.no:95'
p583
(lp584
S'International'
p585
asS'file3.txt,line.no:134'
p586
(lp587
S'International'
p588
asg526
(lp589
S'International'
p590
assS'Location\xe2\x80\x9d'
p591
(dp592
S'file3.txt,line.no:90'
p593
(lp594
S'then'
p595
assS'By:'
p596
(dp597
S'file2.txt,line.no:185'
p598
(lp599
S'Triggered'
p600
asS'file2.txt,line.no:225'
p601
(lp602
S'SensorEventListener::onSensorChanged(SensorEvent'
p603
asS'file2.txt,line.no:189'
p604
(lp605
S'Triggered'
p606
assg241
(dp607
S'file2.txt,line.no:237'
p608
(lp609
S':'
p610
asS'file2.txt,line.no:243'
p611
(lp612
S'identifier'
p613
asg453
(lp614
S'uses'
p615
asS'file2.txt,line.no:238'
p616
(lp617
S'is'
p618
asS'file2.txt,line.no:142'
p619
(lp620
S'socket;'
p621
asS'file2.txt,line.no:125'
p622
(lp623
g610
asS'file2.txt,line.no:124'
p624
(lp625
g610
asS'file2.txt,line.no:178'
p626
(lp627
S'identifier'
p628
asg239
(lp629
S'connection'
p630
asS'file2.txt,line.no:151'
p631
(lp632
S'startConnection(string,'
p633
asS'file2.txt,line.no:168'
p634
(lp635
g610
assS'very'
p636
(dp637
S'file4.txt,line.no:6'
p638
(lp639
S'important'
p640
asS'file3.txt,line.no:61'
p641
(lp642
S'useful'
p643
assS'role'
p644
(dp645
g83
(lp646
S'and'
p647
assS'void'
p648
(dp649
S'file2.txt,line.no:235'
p650
(lp651
S'onSensorChanged(SensorEvent'
p652
asS'file2.txt,line.no:224'
p653
(lp654
S'checkAttention();'
p655
asS'file2.txt,line.no:162'
p656
(lp657
S'authenticate(string,'
p658
asS'file2.txt,line.no:184'
p659
(lp660
S'onConnectEventListener();'
p661
asS'file2.txt,line.no:192'
p662
(lp663
S'emit(string);'
p664
asS'file2.txt,line.no:157'
p665
(lp666
S'onCreate(Bundle'
p667
asS'file2.txt,line.no:188'
p668
(lp669
S'onDisconnectEventListener();'
p670
assS'reader'
p671
(dp672
S'file4.txt,line.no:2'
p673
(lp674
S'must'
p675
assg664
(dp676
g662
(lp677
S'[7]'
p678
assS'browser.'
p679
(dp680
g211
(lp681
S'He'
p682
assS'results'
p683
(dp684
g138
(lp685
S'of'
p686
assS'result.'
p687
(dp688
g128
(lp689
S'This'
p690
assS'every'
p691
(dp692
S'file4.txt,line.no:17'
p693
(lp694
S'new'
p695
asS'file4.txt,line.no:12'
p696
(lp697
S'people'
p698
asg341
(lp699
S'countries'
p700
asS'file3.txt,line.no:116'
p701
(lp702
S'sub-system.'
p703
assS'correctness,'
p704
(dp705
S'file3.txt,line.no:108'
p706
(lp707
S'completeness'
p708
assS'traced'
p709
(dp710
S'file4.txt,line.no:11'
p711
(lp712
S'during'
p713
assS'programming.'
p714
(dp715
g296
(lp716
S'In'
p717
assS'more,'
p718
(dp719
g490
(lp720
S'and'
p721
assS'exist,'
p722
(dp723
g566
(lp724
S'for'
p725
assS'exact'
p726
(dp727
g516
(lp728
S'position'
p729
assS'Implementing'
p730
(dp731
S'file2.txt,line.no:7'
p732
(lp733
S'Technologies'
p734
assg667
(dp735
g665
(lp736
S'savedInstanceState);'
p737
assS'entire'
p738
(dp739
g641
(lp740
S'process'
p741
assS'layer,'
p742
(dp743
g86
(lp744
S'including'
p745
assS'accelerometer,'
p746
(dp747
S'file2.txt,line.no:14'
p748
(lp749
S'proximity'
p750
assS'However,'
p751
(dp752
g123
(lp753
S'exploiting'
p754
assS'Reference'
p755
(dp756
g239
(lp757
g225
assS'presented'
p758
(dp759
g43
(lp760
S'without'
p761
asg289
(lp762
S'an'
p763
assS'Internet'
p764
(dp765
S'file4.txt,line.no:15'
p766
(lp767
S'access.'
p768
assg495
(dp769
g453
(lp770
S'which'
p771
asg493
(lp772
S'efficiently'
p773
assS'Testing'
p774
(dp775
g78
(lp776
S'is'
p777
assS'list'
p778
(dp779
g424
(lp780
S'of'
p781
asS'file3.txt,line.no:71'
p782
(lp783
S'of'
p784
asS'file4.txt,line.no:34'
p785
(lp786
S'of'
p787
assS'joined'
p788
(dp789
S'file2.txt,line.no:92'
p790
(lp791
S'the'
p792
assS'integrated'
p793
(dp794
g315
(lp795
S'software'
p796
assS'large'
p797
(dp798
S'file2.txt,line.no:32'
p799
(lp800
S'classroom'
p801
assS'4.3.4'
p802
(dp803
S'file2.txt,line.no:205'
p804
(lp805
S'Monitor'
p806
assS'session'
p807
(dp808
S'file2.txt,line.no:78'
p809
(lp810
S'address.'
p811
asg98
(lp812
S'and'
p813
asS'file2.txt,line.no:113'
p814
(lp815
S'for'
p816
asS'file2.txt,line.no:4'
p817
(lp818
S'details'
p819
asS'file2.txt,line.no:73'
p820
(lp821
S'has'
p822
asg175
(lp823
S'address.'
p824
asS'file2.txt,line.no:84'
p825
(lp826
S'address'
p827
asS'file2.txt,line.no:91'
p828
(lp829
S'is'
p830
asg790
(lp831
S'and'
p832
asS'file2.txt,line.no:79'
p833
(lp834
S'address'
p835
asS'file2.txt,line.no:64'
p836
(lp837
S'and'
p838
assS'4.3.2'
p839
(dp840
g634
(lp841
S'Socket'
p842
assS'4.3.3'
p843
(dp844
S'file2.txt,line.no:196'
p845
(lp846
S'SensorData'
p847
assS'4.3.1'
p848
(dp849
S'file2.txt,line.no:133'
p850
(lp851
S'Main'
p852
assS'small'
p853
(dp854
S'file4.txt,line.no:13'
p855
(lp856
S'Java'
p857
assS'radio'
p858
(dp859
g312
(lp860
S'signal'
p861
asS'file3.txt,line.no:27'
p862
(lp863
S'frequency'
p864
assS'Paul'
p865
(dp866
S'file3.txt,line.no:148'
p867
(lp868
S'Congdon2'
p869
assS'available.'
p870
(dp871
S'file2.txt,line.no:34'
p872
(lp873
S'We'
p874
assS'Select'
p875
(dp876
S'file2.txt,line.no:61'
p877
(lp878
S'Session'
p879
assS'location-based'
p880
(dp881
S'file3.txt,line.no:48'
p882
(lp883
S'service'
p884
assg120
(dp885
g118
(lp886
S'the'
p887
assS'3.1:'
p888
(dp889
S'file2.txt,line.no:45'
p890
(lp891
S'Use'
p892
assS'displayed.'
p893
(dp894
S'file3.txt,line.no:91'
p895
(lp896
S'The'
p897
asg392
(lp898
S'He'
p899
assS'slower'
p900
(dp901
S'file3.txt,line.no:63'
p902
(lp903
S'our'
p904
assS'portable'
p905
(dp906
S'file4.txt,line.no:33'
p907
(lp908
S'TomTom'
p909
asg354
(lp910
S'solution'
p911
assS'created.'
p912
(dp913
g17
(lp914
S'This'
p915
assS'March-'
p916
(dp917
g574
(lp918
S'2015,'
p919
asg577
(lp920
S'2015,'
p921
asg580
(lp922
S'2015,'
p923
asg583
(lp924
S'2015,'
p925
asg586
(lp926
S'2015,'
p927
asg526
(lp928
S'2015,'
p929
assS'phones'
p930
(dp931
S'file3.txt,line.no:129'
p932
(lp933
S'are'
p934
asS'file3.txt,line.no:35'
p935
(lp936
S'are'
p937
asg484
(lp938
S'more'
p939
assS'object.'
p940
(dp941
g236
(lp942
S'[8]'
p943
assS'past'
p944
(dp945
S'file2.txt,line.no:109'
p946
(lp947
S'report.'
p948
assS'pg.500'
p949
(dp950
S'file3.txt,line.no:6'
p951
(lp952
S'\xe2\x80\x93'
p953
assS'invention'
p954
(dp955
S'file3.txt,line.no:25'
p956
(lp957
S'of'
p958
assS'design'
p959
(dp960
S'file3.txt,line.no:118'
p961
(lp962
S'component.'
p963
assS'displays'
p964
(dp965
g322
(lp966
g80
asg319
(lp967
g80
assS'Establishes'
p968
(dp969
g233
(lp970
S'the'
p971
asg11
(lp972
S'the'
p973
assS'possibilities.'
p974
(dp975
g296
(lp976
S'System'
p977
assS'rbkrishna22@gmail.com'
p978
(dp979
S'file3.txt,line.no:10'
p980
(lp981
S'2'
p982
assS'further'
p983
(dp984
S'file3.txt,line.no:135'
p985
(lp986
S'be'
p987
assS'implemented'
p988
(dp989
S'file3.txt,line.no:51'
p990
(lp991
S'ALPS'
p992
assS'incompatible'
p993
(dp994
g411
(lp995
S'and'
p996
assS'MIPRO'
p997
(dp998
S'file3.txt,line.no:152'
p999
(lp1000
S'2011,'
p1001
assS'even'
p1002
(dp1003
g437
(lp1004
S'minute'
p1005
asg266
(lp1006
S'at'
p1007
asS'file2.txt,line.no:28'
p1008
(lp1009
S'when'
p1010
assS'established'
p1011
(dp1012
g598
(lp1013
S'[7]'
p1014
assS'what'
p1015
(dp1016
g296
(lp1017
S'kind'
p1018
asS'file4.txt,line.no:45'
p1019
(lp1020
g80
asS'file4.txt,line.no:41'
p1021
(lp1022
S'is'
p1023
asg3
(lp1024
S'actors'
p1025
assS'Experience'
p1026
(dp1027
g999
(lp1028
S'Report\xe2\x80\x9d,'
p1029
assS'4.1.1'
p1030
(dp1031
S'file2.txt,line.no:119'
p1032
(lp1033
S'Entity'
p1034
assS'4.1.2'
p1035
(dp1036
S'file2.txt,line.no:123'
p1037
(lp1038
S'Controller'
p1039
assS'4.1.3'
p1040
(dp1041
S'file2.txt,line.no:127'
p1042
(lp1043
S'Boundary'
p1044
assS'4'
p1045
(dp1046
S'file3.txt,line.no:81'
p1047
(lp1048
S'represents'
p1049
asS'file2.txt,line.no:114'
p1050
(lp1051
S'of'
p1052
asS'file2.txt,line.no:68'
p1053
(lp1054
S'of'
p1055
asS'file2.txt,line.no:83'
p1056
(lp1057
S'of'
p1058
asS'file2.txt,line.no:54'
p1059
(lp1060
S'in'
p1061
asS'file2.txt,line.no:66'
p1062
(lp1063
S'of'
p1064
assS'availability'
p1065
(dp1066
g799
(lp1067
S'of'
p1068
assS'current'
p1069
(dp1070
g128
(lp1071
g687
asS'file3.txt,line.no:85'
p1072
(lp1073
S'location'
p1074
asg33
(lp1075
S'location'
p1076
assS'This'
p1077
(dp1078
g546
(lp1079
S'paper'
p1080
asg22
(lp1081
g20
asS'file3.txt,line.no:11'
p1082
(lp1083
S'paper'
p1084
asg476
(lp1085
S'object'
p1086
asg93
(lp1087
S'is'
p1088
asS'file4.txt,line.no:51'
p1089
(lp1090
S'part'
p1091
asS'file4.txt,line.no:55'
p1092
(lp1093
S'web'
p1094
asg128
(lp1095
S'experience'
p1096
asg473
(lp1097
S'gives'
p1098
asg247
(lp1099
S'paper'
p1100
asg17
(lp1101
S'method'
p1102
assS'makes'
p1103
(dp1104
S'file3.txt,line.no:24'
p1105
(lp1106
S'life'
p1107
assg35
(dp1108
g33
(lp1109
S'which'
p1110
assS'above'
p1111
(dp1112
g53
(lp1113
S'purpose'
p1114
asS'file4.txt,line.no:54'
p1115
(lp1116
S'and'
p1117
assg1102
(dp1118
g17
(lp1119
S'instantiates'
p1120
assS'new'
p1121
(dp1122
g22
(lp1123
S'and'
p1124
asg424
(lp1125
S'student'
p1126
asg782
(lp1127
S'route'
p1128
asS'file2.txt,line.no:236'
p1129
(lp1130
S'sensor'
p1131
asg693
(lp1132
S'car'
p1133
asg487
(lp1134
S'applications.'
p1135
asg641
(lp1136
S'and'
p1137
assg558
(dp1138
g556
(lp1139
g80
asg641
(lp1140
S'something'
p1141
assS'increasing'
p1142
(dp1143
S'file3.txt,line.no:64'
p1144
(lp1145
S'the'
p1146
assS'True'
p1147
(dp1148
S'file2.txt,line.no:216'
p1149
(lp1150
S'if'
p1151
assS'public'
p1152
(dp1153
S'file2.txt,line.no:203'
p1154
(lp1155
S'float'
p1156
asg650
(lp1157
S'void'
p1158
asS'file2.txt,line.no:201'
p1159
(lp1160
S'float'
p1161
asg653
(lp1162
S'void'
p1163
asS'file2.txt,line.no:220'
p1164
(lp1165
S'Constructor:'
p1166
asS'file2.txt,line.no:247'
p1167
(lp1168
S'Constructor:'
p1169
asg659
(lp1170
S'void'
p1171
asg619
(lp1172
S'Socket'
p1173
asg662
(lp1174
S'void'
p1175
asS'file2.txt,line.no:180'
p1176
(lp1177
S'Constructor:'
p1178
asS'file2.txt,line.no:147'
p1179
(lp1180
S'View'
p1181
asS'file2.txt,line.no:145'
p1182
(lp1183
S'Student'
p1184
asg668
(lp1185
S'void'
p1186
asS'file2.txt,line.no:199'
p1187
(lp1188
S'float'
p1189
assS'(figure'
p1190
(dp1191
S'file4.txt,line.no:36'
p1192
(lp1193
S'2)'
p1194
assS'full'
p1195
(dp1196
g907
(lp1197
S'navigation'
p1198
assS'CALLED'
p1199
(dp1200
g153
(lp1201
S'BY:'
p1202
asg601
(lp1203
g596
asg159
(lp1204
S'BY:'
p1205
asg162
(lp1206
g151
asg165
(lp1207
S'BY:'
p1208
asg156
(lp1209
S'BY:'
p1210
assS'Professor'
p1211
(dp1212
g358
(lp1213
S'(both'
p1214
asS'file2.txt,line.no:102'
p1215
(lp1216
g610
asS'file2.txt,line.no:97'
p1217
(lp1218
g610
asg269
(lp1219
S'(both'
p1220
asg877
(lp1221
g610
asS'file2.txt,line.no:171'
p1222
(lp1223
S'devices.'
p1224
asS'file2.txt,line.no:63'
p1225
(lp1226
g610
assS'never'
p1227
(dp1228
g296
(lp1229
S'developed'
p1230
assS'modify'
p1231
(dp1232
S'file4.txt,line.no:53'
p1233
(lp1234
S'its'
p1235
asg432
(lp1236
S'or'
p1237
assg204
(dp1238
g202
(lp1239
g205
assS'gyroscope,'
p1240
(dp1241
g748
(lp1242
g746
assS'understanding'
p1243
(dp1244
g25
(lp1245
S'of'
p1246
assS'SensorEventListener'
p1247
(dp1248
S'file2.txt,line.no:217'
p1249
(lp1250
S'sel;'
p1251
assS'User\xe2\x80\x9d'
p1252
(dp1253
S'file3.txt,line.no:149'
p1254
(lp1255
S'2013'
p1256
assS'phone.'
p1257
(dp1258
g63
(lp1259
S'The'
p1260
assS'logged,'
p1261
(dp1262
g1233
(lp1263
S'the'
p1264
assS'address'
p1265
(dp1266
S'file2.txt,line.no:155'
p1267
(lp1268
S'and'
p1269
asg825
(lp1270
S'and'
p1271
asg539
(lp1272
S'and'
p1273
asg833
(lp1274
S'as'
p1275
asS'file2.txt,line.no:166'
p1276
(lp1277
S'and'
p1278
asS'file2.txt,line.no:165'
p1279
(lp1280
S'and'
p1281
assS'i.e'
p1282
(dp1283
S'file2.txt,line.no:52'
p1284
(lp1285
S'username'
p1286
assS'along'
p1287
(dp1288
g456
(lp1289
S'with'
p1290
asg156
(lp1291
S'with'
p1292
asg1267
(lp1293
S'with'
p1294
assS'30Note'
p1295
(dp1296
g673
(lp1297
S'of'
p1298
assS'name'
p1299
(dp1300
S'file5.txt,line.no:1'
p1301
(lp1302
S'is'
p1303
assS'104'
p1304
(dp1305
g194
(lp1306
g183
assS'Notifies'
p1307
(dp1308
g329
(lp1309
S'the'
p1310
assS'IT-enabled'
p1311
(dp1312
g799
(lp1313
g797
assS'search'
p1314
(dp1315
g418
(lp1316
S'for'
p1317
aS'bar.'
p1318
asg516
(lp1319
S'and'
p1320
asg785
(lp1321
S'on'
p1322
assS'Security'
p1323
(dp1324
g638
(lp1325
S'is'
p1326
assg306
(dp1327
g214
(lp1328
S'GPS'
p1329
asg1072
(lp1330
S'an'
p1331
assS'Communication'
p1332
(dp1333
g1105
(lp1334
S'is'
p1335
asS'file3.txt,line.no:150'
p1336
(lp1337
S'and'
p1338
assS'study'
p1339
(dp1340
g673
(lp1341
S'of'
p1342
assS'allows'
p1343
(dp1344
S'file2.txt,line.no:170'
p1345
(lp1346
S'establishment'
p1347
asg250
(lp1348
S'for'
p1349
asg300
(lp1350
g80
assS'everywhere,'
p1351
(dp1352
g932
(lp1353
S'it'
p1354
assS'experience'
p1355
(dp1356
g128
(lp1357
S'like'
p1358
aS'was'
p1359
assS'later'
p1360
(dp1361
g817
(lp1362
S'be'
p1363
assS'pooling'
p1364
(dp1365
g386
(lp1366
S'will'
p1367
assg879
(dp1368
g877
(lp1369
S'initiate'
p1370
assS'3.'
p1371
(dp1372
g766
(lp1373
S'Has'
p1374
asg1154
(lp1375
S'public'
p1376
asS'file2.txt,line.no:213'
p1377
(lp1378
S'private'
p1379
asS'file2.txt,line.no:122'
p1380
(lp1381
S'Professor'
p1382
asS'file2.txt,line.no:112'
p1383
(lp1384
S'User'
p1385
asS'file2.txt,line.no:126'
p1386
(lp1387
S'Monitor'
p1388
asg668
(lp1389
S'public'
p1390
asg1284
(lp1391
S'User'
p1392
asg1182
(lp1393
S'public'
p1394
asg833
(lp1395
S'Student'
p1396
asg1225
(lp1397
S'Professor'
p1398
asg329
(lp1399
S'System'
p1400
asg656
(lp1401
S'private'
p1402
assS'pictorial'
p1403
(dp1404
S'file2.txt,line.no:44'
p1405
(lp1406
S'view'
p1407
assS'3,'
p1408
(dp1409
g951
(lp1410
S'March'
p1411
assS'action'
p1412
(dp1413
g3
(lp1414
S'what'
p1415
assg469
(dp1416
g467
(lp1417
S'the'
p1418
assg1198
(dp1419
g907
(lp1420
S'system'
p1421
asg935
(lp1422
S'systems'
p1423
assS'options'
p1424
(dp1425
g424
(lp1426
S'to'
p1427
asg392
(lp1428
S'to'
p1429
assS'error.'
p1430
(dp1431
g511
(lp1432
S'A'
p1433
assS'composed'
p1434
(dp1435
S'file3.txt,line.no:109'
p1436
(lp1437
S'of'
p1438
asS'file3.txt,line.no:110'
p1439
(lp1440
S'of'
p1441
assS'appropriately'
p1442
(dp1443
S'file2.txt,line.no:226'
p1444
(lp1445
S'informs'
p1446
assS'via'
p1447
(dp1448
g211
(lp1449
S'the'
p1450
asS'file3.txt,line.no:52'
p1451
(lp1452
S'trace-based'
p1453
assg643
(dp1454
g641
(lp1455
S'because'
p1456
assS'extra'
p1457
(dp1458
S'file3.txt,line.no:58'
p1459
(lp1460
S'clarification'
p1461
assS'Mohapatra,1'
p1462
(dp1463
g867
(lp1464
S'and'
p1465
assg278
(dp1466
g276
(lp1467
S'not'
p1468
asS'file2.txt,line.no:172'
p1469
(lp1470
S'connection'
p1471
asg506
(lp1472
S'the'
p1473
assS'When'
p1474
(dp1475
g227
(lp1476
S'the'
p1477
asS'file3.txt,line.no:101'
p1478
(lp1479
S'the'
p1480
asS'file3.txt,line.no:87'
p1481
(lp1482
S'the'
p1483
assS'private'
p1484
(dp1485
S'file2.txt,line.no:215'
p1486
(lp1487
S'bool'
p1488
asg1249
(lp1489
g1247
asS'file2.txt,line.no:211'
p1490
(lp1491
S'SensorData'
p1492
asg1377
(lp1493
S'bool'
p1494
asS'file2.txt,line.no:242'
p1495
(lp1496
S'String'
p1497
asS'file2.txt,line.no:244'
p1498
(lp1499
S'Client'
p1500
asS'file2.txt,line.no:175'
p1501
(lp1502
S'String'
p1503
asS'file2.txt,line.no:140'
p1504
(lp1505
S'Monitor'
p1506
asg631
(lp1507
S'Socket'
p1508
asS'file2.txt,line.no:209'
p1509
(lp1510
S'SensorManager'
p1511
asg656
(lp1512
S'void'
p1513
asS'file2.txt,line.no:177'
p1514
(lp1515
S'String'
p1516
assS'wifi'
p1517
(dp1518
S'file2.txt,line.no:23'
p1519
(lp1520
S'will'
p1521
assS'Also'
p1522
(dp1523
g566
(lp1524
S'it'
p1525
asg462
(lp1526
S'It'
p1527
asS'file3.txt,line.no:59'
p1528
(lp1529
S'we'
p1530
assg1511
(dp1531
g1509
(lp1532
S'sm;'
p1533
assS'traker:'
p1534
(dp1535
S'file4.txt,line.no:22'
p1536
(lp1537
S'General'
p1538
assS'S.'
p1539
(dp1540
g38
(lp1541
S'Ravindranath,'
p1542
aS'Madden,'
p1543
assS'home'
p1544
(dp1545
S'file3.txt,line.no:77'
p1546
(lp1547
S'page'
p1548
asS'file3.txt,line.no:76'
p1549
(lp1550
S'page'
p1551
asg1481
(lp1552
S'Activity'
p1553
assS'prompt'
p1554
(dp1555
g293
(lp1556
S'to'
p1557
asg338
(lp1558
S'to'
p1559
asg319
(lp1560
S'to'
p1561
asg809
(lp1562
S'requesting'
p1563
assS'session.'
p1564
(dp1565
g296
(lp1566
S'During'
p1567
assS'should'
p1568
(dp1569
g711
(lp1570
S'be'
p1571
assg461
(dp1572
g459
(lp1573
g80
assS'estimate'
p1574
(dp1575
g462
(lp1576
S'remaining'
p1577
assg347
(dp1578
g227
(lp1579
S'it.'
p1580
asg344
(lp1581
S'it.'
p1582
asg782
(lp1583
S'the'
p1584
assS'presents'
p1585
(dp1586
g250
(lp1587
S'an'
p1588
assS'use'
p1589
(dp1590
g484
(lp1591
S'in'
p1592
asS'file4.txt,line.no:38'
p1593
(lp1594
S'case'
p1595
aS'cases.'
p1596
asS'file4.txt,line.no:23'
p1597
(lp1598
S'the'
p1599
asS'file4.txt,line.no:42'
p1600
(lp1601
S'cases'
p1602
asg214
(lp1603
g80
asg985
(lp1604
S'of'
p1605
asS'file4.txt,line.no:40'
p1606
(lp1607
S'case'
p1608
asg1192
(lp1609
S'cases'
p1610
asg3
(lp1611
S'cases'
p1612
assS'Elements'
p1613
(dp1614
S'file2.txt,line.no:161'
p1615
(lp1616
S'(Views)'
p1617
assS'from'
p1618
(dp1619
g1478
(lp1620
S'the'
p1621
asg782
(lp1622
S'the'
p1623
asg432
(lp1624
S'the'
p1625
asg407
(lp1626
S'the'
p1627
asg456
(lp1628
S'the'
p1629
asg1481
(lp1630
S'the'
p1631
asS'file4.txt,line.no:39'
p1632
(lp1633
S'the'
p1634
aS'the'
p1635
asg401
(lp1636
S'the'
p1637
asg53
(lp1638
S'using'
p1639
asS'file2.txt,line.no:167'
p1640
(lp1641
S'database'
p1642
asg1469
(lp1643
S'students'
p1644
asg1606
(lp1645
S'the'
p1646
assS'takes'
p1647
(dp1648
g404
(lp1649
S'actions'
p1650
asS'file2.txt,line.no:136'
p1651
(lp1652
S'care'
p1653
asg502
(lp1654
S'to'
p1655
assS'remains'
p1656
(dp1657
g244
(lp1658
S'challenging'
p1659
assS'positive'
p1660
(dp1661
g473
(lp1662
S'in'
p1663
assS'destination'
p1664
(dp1665
g462
(lp1666
S'using'
p1667
assS'Driver'
p1668
(dp1669
g263
(lp1670
S'to'
p1671
asg449
(lp1672
S'has'
p1673
asS'file3.txt,line.no:98'
p1674
(lp1675
S'Application'
p1676
asS'file3.txt,line.no:105'
p1677
(lp1678
S'Login'
p1679
assS'two'
p1680
(dp1681
g263
(lp1682
S'Android'
p1683
asg499
(lp1684
S'fields:'
p1685
asg467
(lp1686
S'way'
p1687
assS'Engineering'
p1688
(dp1689
S'file1.txt,line.no:2'
p1690
(lp1691
S'And'
p1692
assS'scenarios'
p1693
(dp1694
S'file2.txt,line.no:39'
p1695
(lp1696
S'where'
p1697
assS'authentication'
p1698
(dp1699
g429
(lp1700
S'and'
p1701
assS'handler'
p1702
(dp1703
g156
(lp1704
S'of'
p1705
asg162
(lp1706
S'of'
p1707
assS'client,'
p1708
(dp1709
S'file4.txt,line.no:21'
p1710
(lp1711
S'the'
p1712
assS'saurabh'
p1713
(dp1714
g1301
(lp1715
S'bazari.'
p1716
assS'taken'
p1717
(dp1718
S'file3.txt,line.no:128'
p1719
(lp1720
S'up'
p1721
assS'Goran'
p1722
(dp1723
S'file3.txt,line.no:151'
p1724
(lp1725
S'Brestovac'
p1726
assS'themselves'
p1727
(dp1728
g1008
(lp1729
S'as'
p1730
assS'stage'
p1731
(dp1732
g78
(lp1733
S'of'
p1734
assS'Information.'
p1735
(dp1736
g990
(lp1737
S'We'
p1738
assS'\xe2\x80\x9cAn'
p1739
(dp1740
g867
(lp1741
S'Adaptive'
p1742
assS'more'
p1743
(dp1744
g214
(lp1745
S'on'
p1746
asg484
(lp1747
S'sophisticated'
p1748
asg1089
(lp1749
S'than'
p1750
assS'b)'
p1751
(dp1752
S'file2.txt,line.no:230'
p1753
(lp1754
S'Shaking'
p1755
assS'LITERATURE'
p1756
(dp1757
S'file3.txt,line.no:41'
p1758
(lp1759
S'REVIEW'
p1760
assS'event.'
p1761
(dp1762
g1129
(lp1763
S'[9]'
p1764
assS'relay'
p1765
(dp1766
g312
(lp1767
S'and'
p1768
assS'sessions'
p1769
(dp1770
S'file2.txt,line.no:106'
p1771
(lp1772
S'data'
p1773
assS'started'
p1774
(dp1775
g1632
(lp1776
g1618
assS'local'
p1777
(dp1778
g1519
(lp1779
S'area'
p1780
assS'Domain'
p1781
(dp1782
S'file2.txt,line.no:118'
p1783
(lp1784
S'Modelling'
p1785
assS'visibility'
p1786
(dp1787
g247
(lp1788
S'of'
p1789
assS'telephone'
p1790
(dp1791
g487
(lp1792
S'that'
p1793
assS'phone'
p1794
(dp1795
g1082
(lp1796
S'application'
p1797
asg1105
(lp1798
S'for'
p1799
asg956
(lp1800
S'has'
p1801
asS'file2.txt,line.no:37'
p1802
(lp1803
S'does'
p1804
asg58
(lp1805
S'industry'
p1806
asg214
(lp1807
S'which'
p1808
assS'flag'
p1809
(dp1810
g1444
(lp1811
S'and'
p1812
assg737
(dp1813
g665
(lp1814
S'[6]'
p1815
assg561
(dp1816
g559
(lp1817
S'that'
p1818
assS'upgrades'
p1819
(dp1820
g862
(lp1821
S'in'
p1822
assS'particular'
p1823
(dp1824
S'file2.txt,line.no:115'
p1825
(lp1826
S'class'
p1827
asg502
(lp1828
S'stop'
p1829
assS'2.4.3'
p1830
(dp1831
S'file2.txt,line.no:16'
p1832
(lp1833
S'Software'
p1834
assS'2.4.2'
p1835
(dp1836
S'file2.txt,line.no:12'
p1837
(lp1838
S'Hardware'
p1839
assg1610
(dp1840
g1600
(lp1841
S'described'
p1842
aS'are'
p1843
asg473
(lp1844
S'when'
p1845
asg1192
(lp1846
S'for'
p1847
asg3
(lp1848
S'which'
p1849
assS'effort'
p1850
(dp1851
g961
(lp1852
S'on'
p1853
assS'algorithms,'
p1854
(dp1855
g300
(lp1856
S'and'
p1857
assS'must'
p1858
(dp1859
S'file4.txt,line.no:52'
p1860
(lp1861
S'be'
p1862
asg1089
(lp1863
S'be'
p1864
asS'file2.txt,line.no:228'
p1865
(lp1866
S'be'
p1867
asg1092
(lp1868
S'be'
p1869
assS'me'
p1870
(dp1871
S'file5.txt,line.no:2'
p1872
(lp1873
S'lab'
p1874
assS'high'
p1875
(dp1876
g511
(lp1877
S'probability'
p1878
assS'account'
p1879
(dp1880
g214
(lp1881
S'of'
p1882
asg429
(lp1883
S'after'
p1884
assS'hotels,'
p1885
(dp1886
g253
(lp1887
S'malls,'
p1888
assS'socket-client'
p1889
(dp1890
g1345
(lp1891
S'is'
p1892
assS'rights'
p1893
(dp1894
S'file4.txt,line.no:46'
p1895
(lp1896
S'that'
p1897
assS'this'
p1898
(dp1899
g386
(lp1900
S'database'
p1901
asg673
(lp1902
S'report'
p1903
asg748
(lp1904
S'will'
p1905
asg453
(lp1906
S'case'
p1907
asg28
(lp1908
S'project'
p1909
asS'file3.txt,line.no:56'
p1910
(lp1911
S'project'
p1912
asg63
(lp1913
S'work'
p1914
asg214
(lp1915
S'the'
p1916
assS'Text'
p1917
(dp1918
g1279
(lp1919
S'Views'
p1920
asg1267
(lp1921
S'Views'
p1922
assg1914
(dp1923
g63
(lp1924
S'was'
p1925
asg1695
(lp1926
S'as'
p1927
asg367
(lp1928
S'that'
p1929
assg1617
(dp1930
g1615
(lp1931
S'and'
p1932
assS'Login)'
p1933
(dp1934
g156
(lp1935
S'along'
p1936
assS'values'
p1937
(dp1938
g551
(lp1939
S'based'
p1940
assS'can'
p1941
(dp1942
g424
(lp1943
S'view'
p1944
asg211
(lp1945
S'send'
p1946
aS'also'
p1947
asg1233
(lp1948
g1231
asg782
(lp1949
S'select'
p1950
asg429
(lp1951
S'login'
p1952
asS'file2.txt,line.no:135'
p1953
(lp1954
S'do.'
p1955
asg487
(lp1956
S'be'
p1957
asg456
(lp1958
S'display'
p1959
asg1072
(lp1960
S'also'
p1961
asg817
(lp1962
g1360
asg1632
(lp1963
S'be'
p1964
asg1719
(lp1965
S'be'
p1966
asS'file4.txt,line.no:7'
p1967
(lp1968
S'be'
p1969
asg1019
(lp1970
S'do'
p1971
aS'do'
p1972
asg280
(lp1973
S'be'
p1974
asg1710
(lp1975
S'be'
p1976
asg286
(lp1977
S'also'
p1978
asg985
(lp1979
g983
asg256
(lp1980
S'be'
p1981
asg3
(lp1982
S'do'
p1983
assS'View'
p1984
(dp1985
S'file2.txt,line.no:104'
p1986
(lp1987
S'Past'
p1988
asg1179
(lp1989
S'view;'
p1990
assS'following'
p1991
(dp1992
g1865
(lp1993
g1858
asg138
(lp1994
g136
assg268
(dp1995
g266
(lp1996
S'our'
p1997
assS'my'
p1998
(dp1999
g1301
(lp2000
g1299
assS'example'
p2001
(dp2002
g902
(lp2003
S'in'
p2004
asS'file2.txt,line.no:38'
p2005
(lp2006
S'the'
p2007
assg1141
(dp2008
g641
(lp2009
g1121
assg302
(dp2010
g247
(lp2011
S'the'
p2012
asg300
(lp2013
S'the'
p2014
assS'uploaded'
p2015
(dp2016
g348
(lp2017
S'to'
p2018
assS'Different'
p2019
(dp2020
S'file4.txt,line.no:26'
p2021
(lp2022
S'kind'
p2023
assS'23-27,'
p2024
(dp2025
g999
(lp2026
S'2011.'
p2027
assS'activities.'
p2028
(dp2029
g280
(lp2030
S'These'
p2031
asg638
(lp2032
S'Freeride,'
p2033
assg1659
(dp2034
g244
(lp2035
S'for'
p2036
assS'figure'
p2037
(dp2038
g1549
(lp2039
S'3'
p2040
asS'file3.txt,line.no:104'
p2041
(lp2042
S'7'
p2043
asg1047
(lp2044
g1045
asS'file3.txt,line.no:97'
p2045
(lp2046
S'6'
p2047
asS'file3.txt,line.no:92'
p2048
(lp2049
S'5'
p2050
asg1600
(lp2051
S'2.'
p2052
assS'give'
p2053
(dp2054
g33
(lp2055
S'an'
p2056
assS'process'
p2057
(dp2058
g706
(lp2059
S'used'
p2060
asg78
(lp2061
S'of'
p2062
asg641
(lp2063
S'of'
p2064
assS'frequency,'
p2065
(dp2066
g398
(lp2067
S'distance'
p2068
assS'application.'
p2069
(dp2070
g449
(lp2071
S'Driver'
p2072
asg414
(lp2073
S'To'
p2074
asg1192
(lp2075
S'There'
p2076
assS'mainline'
p2077
(dp2078
S'file2.txt,line.no:86'
p2079
(lp2080
S'sequence:'
p2081
asg1050
(lp2082
S'sequence:'
p2083
asg1053
(lp2084
S'sequence:'
p2085
asg1056
(lp2086
S'sequence:'
p2087
asS'file2.txt,line.no:99'
p2088
(lp2089
S'sequence:'
p2090
asg1062
(lp2091
S'sequence:'
p2092
assS'application,'
p2093
(dp2094
g2005
(lp2095
S'for'
p2096
assS'proposed,'
p2097
(dp2098
g244
(lp2099
S'but'
p2100
assg1114
(dp2101
g53
(lp2102
S'of'
p2103
assS'Conference'
p2104
(dp2105
g1336
(lp2106
S'on'
p2107
assg1687
(dp2108
g467
(lp2109
S'socket'
p2110
assS'numbers'
p2111
(dp2112
S'file3.txt,line.no:12'
p2113
(lp2114
S'as'
p2115
assS'want'
p2116
(dp2117
g253
(lp2118
S'to'
p2119
asg490
(lp2120
S'to'
p2121
asS'file3.txt,line.no:23'
p2122
(lp2123
S'it'
p2124
asg432
(lp2125
S'to'
p2126
assS'are:'
p2127
(dp2128
g263
(lp2129
S'One'
p2130
assS'Several'
p2131
(dp2132
g73
(lp2133
S'location'
p2134
assS'ALGORITHM:'
p2135
(dp2136
g1865
(lp2137
S'For'
p2138
assS'Shows'
p2139
(dp2140
g825
(lp2141
S'an'
p2142
asg98
(lp2143
g80
assS'students\xe2\x80\x99'
p2144
(dp2145
S'file2.txt,line.no:149'
p2146
(lp2147
S'devices.'
p2148
asg386
(lp2149
S'device'
p2150
assS'huge'
p2151
(dp2152
g785
(lp2153
S'and'
p2154
assS'needs'
p2155
(dp2156
g367
(lp2157
S'to'
p2158
asg272
(lp2159
S'to'
p2160
assS'Scheme'
p2161
(dp2162
g1254
(lp2163
S'for'
p2164
assS'requirements'
p2165
(dp2166
g296
(lp2167
S'were'
p2168
asg437
(lp2169
S'of'
p2170
asg902
(lp2171
S'have'
p2172
assS'scenario'
p2173
(dp2174
S'file2.txt,line.no:3'
p2175
(lp2176
S'of'
p2177
assg1370
(dp2178
g877
(lp2179
S'option.'
p2180
assS'Journal'
p2181
(dp2182
g574
(lp2183
S'of'
p2184
asg1690
(lp2185
S'Of'
p2186
asg577
(lp2187
S'of'
p2188
asg580
(lp2189
S'of'
p2190
asg583
(lp2191
S'of'
p2192
asg48
(lp2193
S'of'
p2194
asS'file3.txt,line.no:3'
p2195
(lp2196
S'of'
p2197
asg586
(lp2198
S'of'
p2199
asg526
(lp2200
S'of'
p2201
assS'ISSN'
p2202
(dp2203
S'file3.txt,line.no:5'
p2204
(lp2205
S'2320\xe2\x80\x93088X'
p2206
assS'plug-ins,'
p2207
(dp2208
g335
(lp2209
S'and'
p2210
assS'1'
p2211
(dp2212
g980
(lp2213
g115
asg2088
(lp2214
S'of'
p2215
assS'maps'
p2216
(dp2217
g180
(lp2218
S'and'
p2219
aS'for'
p2220
asS'file3.txt,line.no:16'
p2221
(lp2222
S'with'
p2223
asS'file4.txt,line.no:24'
p2224
(lp2225
S'of'
p2226
assS'models'
p2227
(dp2228
S'file3.txt,line.no:49'
p2229
(lp2230
S'on'
p2231
assS'Balakrishnan,'
p2232
(dp2233
g38
(lp2234
S'S.'
p2235
assS'applications.'
p2236
(dp2237
S'file3.txt,line.no:62'
p2238
(lp2239
S'We'
p2240
asg487
(lp2241
S'Originally,'
p2242
assS'Previous'
p2243
(dp2244
g1771
(lp2245
g1769
assg1347
(dp2246
g1345
(lp2247
S'and'
p2248
asg253
(lp2249
S'that'
p2250
assS'adventurers'
p2251
(dp2252
S'file3.txt,line.no:36'
p2253
(lp2254
S'and'
p2255
assS'\xe2\x80\xa2'
p2256
(dp2257
g531
(lp2258
S'Orientation'
p2259
assg1433
(dp2260
g202
(lp2261
g200
asg616
(lp2262
S'Socket'
p2263
asg236
(lp2264
S'reference'
p2265
asg1593
(lp2266
S'track'
p2267
asS'file2.txt,line.no:158'
p2268
(lp2269
S'Bundle'
p2270
asg48
(lp2271
g46
asg511
(lp2272
S'good'
p2273
assS'map'
p2274
(dp2275
g1710
(lp2276
S'in'
p2277
asS'file4.txt,line.no:28'
p2278
(lp2279
S'for'
p2280
asg418
(lp2281
S'is'
p2282
asg895
(lp2283
S'will'
p2284
assS'product'
p2285
(dp2286
S'file2.txt,line.no:36'
p2287
(lp2288
S'is'
p2289
assS'intended'
p2290
(dp2291
g487
(lp2292
S'to'
p2293
assS'launched,'
p2294
(dp2295
g1478
(lp2296
S'the'
p2297
asg1481
(lp2298
S'the'
p2299
assS'may'
p2300
(dp2301
g1695
(lp2302
S'be'
p2303
assS'we?\xe2\x80\x9d'
p2304
(dp2305
g214
(lp2306
S'but'
p2307
assS'number,'
p2308
(dp2309
g449
(lp2310
S'route'
p2311
assg1884
(dp2312
g429
(lp2313
g1698
asS'file2.txt,line.no:5'
p2314
(lp2315
S'logging'
p2316
assS'different'
p2317
(dp2318
g882
(lp2319
S'quality'
p2320
asg2021
(lp2321
S'kind'
p2322
asg1528
(lp2323
S'interpretation'
p2324
asg3
(lp2325
g1412
assS'demanding'
p2326
(dp2327
g490
(lp2328
S'consumers'
p2329
assS'diagram'
p2330
(dp2331
g1192
(lp2332
g1190
assS'applications'
p2333
(dp2334
g22
(lp2335
S'involving'
p2336
asg263
(lp2337
S'designed'
p2338
asg932
(lp2339
S'like'
p2340
asg1597
(lp2341
S'which'
p2342
asg280
(lp2343
S'can'
p2344
asg286
(lp2345
S'can'
p2346
asg785
(lp2347
S'is'
p2348
asg2021
(lp2349
S'for'
p2350
asg559
(lp2351
S'require'
p2352
assS'implementation.'
p2353
(dp2354
g78
(lp2355
g774
assg2338
(dp2356
g263
(lp2357
g2127
asg315
(lp2358
S'to'
p2359
asg506
(lp2360
g80
assS'geo-positioning'
p2361
(dp2362
g785
(lp2363
g2333
assS'monitoring'
p2364
(dp2365
g123
(lp2366
S'and'
p2367
assS'data'
p2368
(dp2369
g404
(lp2370
S'and'
p2371
asS'file2.txt,line.no:17'
p2372
(lp2373
S'collected'
p2374
asS'file2.txt,line.no:197'
p2375
(lp2376
S'recordings'
p2377
asg1771
(lp2378
S'has'
p2379
asg148
(lp2380
S'and'
p2381
asg551
(lp2382
S'and'
p2383
asg1115
(lp2384
S'as'
p2385
asg1640
(lp2386
S'from'
p2387
assS'Message'
p2388
(dp2389
S'file2.txt,line.no:193'
p2390
(lp2391
S'string'
p2392
assg773
(dp2393
g493
(lp2394
S'and'
p2395
assg80
(dp2396
g227
(lp2397
S'route,'
p2398
asg701
(lp2399
S'number'
p2400
asg459
(lp2401
S'socket'
p2402
asg2175
(lp2403
S'change'
p2404
aS'socket'
p2405
asg418
(lp2406
S'bus,'
p2407
asg293
(lp2408
S'prompt'
p2409
asg1953
(lp2410
S'single,'
p2411
asg1651
(lp2412
S'window'
p2413
asg506
(lp2414
S'web'
p2415
asg1129
(lp2416
S'new'
p2417
asg1345
(lp2418
S'library'
p2419
asg244
(lp2420
S'user'
p2421
asg250
(lp2422
S'user'
p2423
asg123
(lp2424
S'mobile'
p2425
aS'user\xe2\x80\x99s'
p2426
asg546
(lp2427
S'present'
p2428
asg432
(lp2429
S'stop'
p2430
asg392
(lp2431
S'route.'
p2432
asg256
(lp2433
S'mobile'
p2434
asS'file3.txt,line.no:32'
p2435
(lp2436
S'user\xe2\x80\x99s'
p2437
asg443
(lp2438
S'web'
p2439
asg1519
(lp2440
S'wireless'
p2441
asg1597
(lp2442
S'lot'
p2443
asg83
(lp2444
S'special'
p2445
asg1710
(lp2446
S'web'
p2447
aS'map'
p2448
asg214
(lp2449
S'cell'
p2450
aS'server'
p2451
aS'register'
p2452
asg473
(lp2453
S'false'
p2454
aS'stand'
p2455
asg1606
(lp2456
S'position'
p2457
asS'file2.txt,line.no:67'
p2458
(lp2459
S'problem'
p2460
asg1254
(lp2461
S'Mobile'
p2462
asg22
(lp2463
S'lot'
p2464
asg693
(lp2465
S'GPS'
p2466
asS'file4.txt,line.no:14'
p2467
(lp2468
S'GPS'
p2469
asg855
(lp2470
g853
asg354
(lp2471
S'simple'
p2472
asg711
(lp2473
S'trip.'
p2474
asg706
(lp2475
g2057
asg383
(lp2476
S'message'
p2477
aS'student'
p2478
asg28
(lp2479
S'bit'
p2480
asg1019
(lp2481
S'standard'
p2482
asg93
(lp2483
S'reference'
p2484
asg1528
(lp2485
g2317
asg98
(lp2486
S'message'
p2487
asg481
(lp2488
S'reference'
p2489
asg556
(lp2490
S'student'
p2491
aS'simple'
p2492
asg300
(lp2493
S'scheme'
p2494
aS'user'
p2495
asg25
(lp2496
S'good'
p2497
asg799
(lp2498
S'system'
p2499
asg502
(lp2500
S'particular'
p2501
asg1105
(lp2502
S'mobile'
p2503
aS'part'
p2504
asg2372
(lp2505
S'relational'
p2506
asg118
(lp2507
S'person'
p2508
asg322
(lp2509
S'message'
p2510
asg1593
(lp2511
S'track'
p2512
asg487
(lp2513
g1790
asS'file4.txt,line.no:50'
p2514
(lp2515
S'user'
p2516
asg511
(lp2517
g1875
asg809
(lp2518
g1554
asg312
(lp2519
g858
asg907
(lp2520
g1195
asg785
(lp2521
S'simple'
p2522
asg820
(lp2523
S'session'
p2524
asg319
(lp2525
S'prompt'
p2526
asS'file3.txt,line.no:125'
p2527
(lp2528
S'yet'
p2529
assS'Privacy-Preserving'
p2530
(dp2531
g1254
(lp2532
g2161
assS'All'
p2533
(dp2534
S'file3.txt,line.no:106'
p2535
(lp2536
S'Rights'
p2537
asS'file3.txt,line.no:33'
p2538
(lp2539
S'Rights'
p2540
asS'file3.txt,line.no:78'
p2541
(lp2542
S'Rights'
p2543
asS'file3.txt,line.no:94'
p2544
(lp2545
S'Rights'
p2546
asS'file3.txt,line.no:155'
p2547
(lp2548
S'Rights'
p2549
asS'file3.txt,line.no:133'
p2550
(lp2551
S'Rights'
p2552
asg1600
(lp2553
S'use'
p2554
assS'Communications'
p2555
(dp2556
S'file2.txt,line.no:21'
p2557
(lp2558
S'Interfaces'
p2559
assS'effective'
p2560
(dp2561
g2238
(lp2562
S'teamwork'
p2563
assS'Initiate'
p2564
(dp2565
S'file2.txt,line.no:57'
p2566
(lp2567
S'Session'
p2568
assg2452
(dp2569
g414
(lp2570
S'number'
p2571
asg214
(lp2572
S'user'
p2573
asg272
(lp2574
S'in'
p2575
assS'explicit'
p2576
(dp2577
g43
(lp2578
S'specifications'
p2579
assS'After'
p2580
(dp2581
g138
(lp2582
S'analyzing'
p2583
assS'homeActivity'
p2584
(dp2585
g1478
(lp2586
S'fetches'
p2587
assS'One'
p2588
(dp2589
g263
(lp2590
S'for'
p2591
asg2287
(lp2592
S'assumption'
p2593
assS'switch'
p2594
(dp2595
S'file4.txt,line.no:30'
p2596
(lp2597
S'on'
p2598
assg475
(dp2599
g473
(lp2600
S'the'
p2601
assg1596
(dp2602
g1593
(lp2603
g1433
assS'allow'
p2604
(dp2605
g283
(lp2606
S'to'
p2607
asg459
(lp2608
S'the'
p2609
assg321
(dp2610
g449
(lp2611
S'the'
p2612
asg782
(lp2613
S'new'
p2614
asg411
(lp2615
S'the'
p2616
asg414
(lp2617
S'the'
p2618
asg418
(lp2619
S'the'
p2620
asg293
(lp2621
S'the'
p2622
asg496
(lp2623
S'details.'
p2624
asg175
(lp2625
S'the'
p2626
asg443
(lp2627
S'the'
p2628
asg338
(lp2629
S'course'
p2630
asg319
(lp2631
S'the'
p2632
assS'Developers,'
p2633
(dp2634
S'file3.txt,line.no:154'
p2635
(lp2636
S'http://www.androidin.com/.'
p2637
assS'acknowledges'
p2638
(dp2639
g1217
(lp2640
S'it.'
p2641
assS'order'
p2642
(dp2643
g499
(lp2644
S'to'
p2645
assg603
(dp2646
g601
(lp2647
S'event)'
p2648
assS'activity.'
p2649
(dp2650
g73
(lp2651
g2131
assS'J2EE'
p2652
(dp2653
g108
(lp2654
S'technology,'
p2655
asg25
(lp2656
S'and'
p2657
assS'Attention'
p2658
(dp2659
S'file2.txt,line.no:214'
p2660
(lp2661
S'status'
p2662
asg1149
(lp2663
S'Flag'
p2664
asS'file2.txt,line.no:89'
p2665
(lp2666
S'Detail'
p2667
assg2324
(dp2668
g1528
(lp2669
S'of'
p2670
assS'help'
p2671
(dp2672
g2221
(lp2673
S'of'
p2674
asg370
(lp2675
S'people'
p2676
assg1230
(dp2677
g296
(lp2678
S'mobile'
p2679
asg1436
(lp2680
S'software.'
p2681
asg138
(lp2682
S'systems,'
p2683
assS'insight'
p2684
(dp2685
g641
(lp2686
S'into'
p2687
assg372
(dp2688
g370
(lp2689
S'their'
p2690
assS'soon'
p2691
(dp2692
g2596
(lp2693
S'as'
p2694
assS'making'
p2695
(dp2696
g985
(lp2697
S'use'
p2698
assS'professors'
p2699
(dp2700
g389
(lp2701
S'device.'
p2702
assg2630
(dp2703
g338
(lp2704
S'and'
p2705
asg293
(lp2706
S'details'
p2707
assg1080
(dp2708
g546
(lp2709
S'also'
p2710
asg1082
(lp2711
S'proposes'
p2712
assS'including'
p2713
(dp2714
g86
(lp2715
S'the'
p2716
asg335
(lp2717
S'tools,'
p2718
assS'activity\xe2\x80\x99s'
p2719
(dp2720
g2268
(lp2721
S'previously'
p2722
assS'134'
p2723
(dp2724
g188
(lp2725
S'Object'
p2726
assS'permission'
p2727
(dp2728
g373
(lp2729
S'to'
p2730
asg377
(lp2731
S'to'
p2732
asg380
(lp2733
S'to'
p2734
asg326
(lp2735
S'to'
p2736
assS'pilots,'
p2737
(dp2738
g2278
(lp2739
S'etc.'
p2740
assS'its'
p2741
(dp2742
g2467
(lp2743
S'mobile'
p2744
asg855
(lp2745
S'mobile'
p2746
asg462
(lp2747
g1664
assg1411
(dp2748
g951
(lp2749
S'2015,'
p2750
asS'file3.txt,line.no:147'
p2751
(lp2752
S'2011.'
p2753
assg328
(dp2754
g373
(lp2755
S'sensors.'
p2756
asg377
(lp2757
S'sensors.'
p2758
asg380
(lp2759
S'the'
p2760
asg326
(lp2761
S'the'
p2762
assg600
(dp2763
g598
(lp2764
S'when'
p2765
asg604
(lp2766
S'when'
p2767
assg1922
(dp2768
g1279
(lp2769
S'containing'
p2770
asg1267
(lp2771
S'containing'
p2772
assS'prompts'
p2773
(dp2774
g411
(lp2775
S'to'
p2776
asg175
(lp2777
S'to'
p2778
assS'Interfaces'
p2779
(dp2780
g732
(lp2781
S'and'
p2782
assg115
(dp2783
g980
(lp2784
g978
aS'johnvasu87@gmail.com'
p2785
aS'lingasangeeth.gj@gmail.com'
p2786
asg113
(lp2787
S'JACSI'
p2788
assS'2:'
p2789
(dp2790
g1059
(lp2791
S'At'
p2792
asg1050
(lp2793
S'At'
p2794
asg1056
(lp2795
S'At'
p2796
asg2088
(lp2797
S'At'
p2798
asg1062
(lp2799
S'At'
p2800
assS'Having'
p2801
(dp2802
g1105
(lp2803
g80
assS'destroyed'
p2804
(dp2805
g604
(lp2806
S'[7]'
p2807
assS'platform'
p2808
(dp2809
g2113
(lp2810
S'Android'
p2811
assS'user-controllable'
p2812
(dp2813
g1451
(lp2814
S'privacy'
p2815
assS'FUTURE'
p2816
(dp2817
S'file3.txt,line.no:126'
p2818
(lp2819
S'ENHANCEMENTS'
p2820
assS'5application.'
p2821
(dp2822
g1021
(lp2823
S'We'
p2824
assg1005
(dp2825
g437
(lp2826
S'shaking'
p2827
assS'communication'
p2828
(dp2829
g467
(lp2830
S'between'
p2831
asg1519
(lp2832
S'library'
p2833
assS'2.'
p2834
(dp2835
S'file2.txt,line.no:129'
p2836
(lp2837
S'SensorEventListener'
p2838
asg1490
(lp2839
S'private'
p2840
asg496
(lp2841
S'System'
p2842
asg1159
(lp2843
S'public'
p2844
asg653
(lp2845
g1152
asS'file2.txt,line.no:121'
p2846
(lp2847
S'Student'
p2848
asg619
(lp2849
S'public'
p2850
asg2467
(lp2851
S'Has'
p2852
asg622
(lp2853
S'Socket'
p2854
asg1215
(lp2855
S'Professor'
p2856
asg659
(lp2857
S'public'
p2858
asg1217
(lp2859
S'Professor'
p2860
asg665
(lp2861
S'protected'
p2862
asg809
(lp2863
S'System'
p2864
asg1600
(lp2865
S'All'
p2866
asg1498
(lp2867
S'private'
p2868
asg338
(lp2869
S'System'
p2870
asg293
(lp2871
S'System'
p2872
asg1514
(lp2873
S'private'
p2874
assS'Once'
p2875
(dp2876
g1233
(lp2877
g1261
assS'might'
p2878
(dp2879
g2005
(lp2880
S'have'
p2881
asg470
(lp2882
S'exploit'
p2883
assg1194
(dp2884
g1192
(lp2885
S'shows'
p2886
assg1256
(dp2887
g1254
(lp2888
S'IEEE'
p2889
assS'stopped.'
p2890
(dp2891
g2041
(lp2892
S'The'
p2893
assg1582
(dp2894
g227
(lp2895
S'When'
p2896
asg344
(lp2897
S'If'
p2898
asg956
(lp2899
S'The'
p2900
assS'then'
p2901
(dp2902
g211
(lp2903
S'he'
p2904
asg348
(lp2905
S'the'
p2906
asg782
(lp2907
S'the'
p2908
asg895
(lp2909
S'the'
p2910
asg593
(lp2911
S'the'
p2912
asg300
(lp2913
S'defined'
p2914
assS'them'
p2915
(dp2916
g2005
(lp2917
S'with'
p2918
asg214
(lp2919
S'to'
p2920
asg521
(lp2921
S'in'
p2922
assg2273
(dp2923
g511
(lp2924
S'test'
p2925
asg25
(lp2926
g1243
assS'greater'
p2927
(dp2928
g862
(lp2929
S'distances.'
p2930
assS'Scenario'
p2931
(dp2932
S'file2.txt,line.no:48'
p2933
(lp2934
S'1:'
p2935
asS'file2.txt,line.no:108'
p2936
(lp2937
S'1:'
p2938
asg2079
(lp2939
S'3:'
p2940
asg1050
(lp2941
S'2:'
p2942
asg1059
(lp2943
S'2:'
p2944
asS'file2.txt,line.no:94'
p2945
(lp2946
S'1:'
p2947
asg1053
(lp2948
S'3:'
p2949
asg1056
(lp2950
S'2:'
p2951
asS'file2.txt,line.no:60'
p2952
(lp2953
S'1:'
p2954
asS'file2.txt,line.no:75'
p2955
(lp2956
S'1:'
p2957
asg2088
(lp2958
g2789
asg1062
(lp2959
S'2:'
p2960
assS'Mobile'
p2961
(dp2962
g574
(lp2963
S'Computing,'
p2964
asg935
(lp2965
S'phones'
p2966
asg577
(lp2967
S'Computing,'
p2968
asg580
(lp2969
S'Computing,'
p2970
asg583
(lp2971
S'Computing,'
p2972
asg1254
(lp2973
g1252
asS'file3.txt,line.no:8'
p2974
(lp2975
S'Application'
p2976
asg103
(lp2977
g101
asg2195
(lp2978
S'Computing'
p2979
asg586
(lp2980
S'Computing,'
p2981
asg526
(lp2982
S'Computing,'
p2983
assg356
(dp2984
S'file3.txt,line.no:30'
p2985
(lp2986
S'an'
p2987
asg354
(lp2988
g80
assS'number'
p2989
(dp2990
g701
(lp2991
S'of'
p2992
asg449
(lp2993
S'to'
p2994
asg414
(lp2995
S'and'
p2996
aS'to'
p2997
asg418
(lp2998
S'in'
p2999
assS'framework'
p3000
(dp3001
g332
(lp3002
S'that'
p3003
assS'500G.'
p3004
(dp3005
g580
(lp3006
S'Jemilda'
p3007
assS'Also,'
p3008
(dp3009
g266
(lp3010
S'we'
p3011
assS'Sets'
p3012
(dp3013
g1444
(lp3014
S'the'
p3015
assS'not'
p3016
(dp3017
g22
(lp3018
S'new'
p3019
asS'file2.txt,line.no:69'
p3020
(lp3021
S'been'
p3022
asg1695
(lp3023
S'work'
p3024
asg1802
(lp3025
S'have'
p3026
asg28
(lp3027
S'focusing'
p3028
asg1860
(lp3029
S'register.'
p3030
asg276
(lp3031
S'only'
p3032
asg383
(lp3033
S'accepted'
p3034
assS'504G.'
p3035
(dp3036
g583
(lp3037
S'Jemilda'
p3038
assS'device\xe2\x80\x99s'
p3039
(dp3040
g351
(lp3041
S'sensors.'
p3042
assg2031
(dp3043
g280
(lp3044
S'Android'
p3045
assS'devices.'
p3046
(dp3047
g1222
(lp3048
S'It'
p3049
asg395
(lp3050
S'Thereafter'
p3051
asg2021
(lp3052
g2019
assS'developments'
p3053
(dp3054
g484
(lp3055
S'on'
p3056
assS'Zhu,1'
p3057
(dp3058
g867
(lp3059
S'Kyu-Han'
p3060
assg1049
(dp3061
g1047
(lp3062
S'the'
p3063
assS'Precondition'
p3064
(dp3065
S'file2.txt,line.no:59'
p3066
(lp3067
g610
asg1771
(lp3068
g610
asg820
(lp3069
g610
asg828
(lp3070
g610
assg2655
(dp3071
g108
(lp3072
S'refer'
p3073
assS'\xe2\x80\x9cStop\xe2\x80\x9d'
p3074
(dp3075
g348
(lp3076
S'then'
p3077
assS'system.'
p3078
(dp3079
g1593
(lp3080
S'The'
p3081
asg1092
(lp3082
S'The'
p3083
assS'all.'
p3084
(dp3085
g266
(lp3086
g3008
assg869
(dp3087
g867
(lp3088
g1739
assg2242
(dp3089
g487
(lp3090
S'it'
p3091
assS'identified'
p3092
(dp3093
g2229
(lp3094
S'key'
p3095
assS'establishing'
p3096
(dp3097
S'file2.txt,line.no:22'
p3098
(lp3099
S'the'
p3100
assS'Sends'
p3101
(dp3102
g440
(lp3103
S'the'
p3104
asg383
(lp3105
g80
assS'slide'
p3106
(dp3107
g456
(lp3108
S'transitions'
p3109
assg2587
(dp3110
g1478
(lp3111
S'the'
p3112
asg1481
(lp3113
S'the'
p3114
asg1276
(lp3115
S'student'
p3116
assg1029
(dp3117
g999
(lp3118
g997
assS'found'
p3119
(dp3120
g1459
(lp3121
S'out'
p3122
assg2827
(dp3123
g437
(lp3124
S'to'
p3125
asg398
(lp3126
g2065
assS'Event'
p3127
(dp3128
g153
(lp3129
S'Listener'
p3130
asg156
(lp3131
S'handler'
p3132
asg162
(lp3133
g1702
assS'referred'
p3134
(dp3135
g358
(lp3136
S'to'
p3137
asg269
(lp3138
S'to'
p3139
assg70
(dp3140
g68
(lp3141
S'based'
p3142
assg2662
(dp3143
g2660
(lp3144
S'of'
p3145
assS'domain'
p3146
(dp3147
g286
(lp3148
S'to'
p3149
assS'everyone'
p3150
(dp3151
g1528
(lp3152
S'had'
p3153
assg262
(dp3154
g259
(lp3155
S'the'
p3156
assS'Garmin,'
p3157
(dp3158
g2224
(lp3159
S'one'
p3160
assS'bank,'
p3161
(dp3162
g253
(lp3163
S'police'
p3164
assS'they'
p3165
(dp3166
g253
(lp3167
S'want'
p3168
asS'file3.txt,line.no:143'
p3169
(lp3170
S'cover.'
p3171
asg1008
(lp3172
S'are'
p3173
asg2122
(lp3174
S'want'
p3175
assS'Implementation'
p3176
(dp3177
S'file2.txt,line.no:25'
p3178
(lp3179
S'Constraints'
p3180
assS'idea'
p3181
(dp3182
g214
(lp3183
S'is'
p3184
assS'Display'
p3185
(dp3186
g338
(lp3187
S'prompt'
p3188
assg911
(dp3189
g354
(lp3190
S'for'
p3191
assS'8:'
p3192
(dp3193
S'file3.txt,line.no:137'
p3194
(lp3195
S'Google'
p3196
assS'manufacturer,'
p3197
(dp3198
g2224
(lp3199
S'proposes'
p3200
assg864
(dp3201
g862
(lp3202
S'and'
p3203
assS'remove'
p3204
(dp3205
g424
(lp3206
g80
asg432
(lp3207
g80
asg392
(lp3208
g80
assS'Modification'
p3209
(dp3210
g1233
(lp3211
S'of'
p3212
assS'et'
p3213
(dp3214
g574
(lp3215
g572
asg577
(lp3216
S'al,'
p3217
asg580
(lp3218
S'al,'
p3219
asg583
(lp3220
S'al,'
p3221
asg526
(lp3222
S'al,'
p3223
asg556
(lp3224
g554
asg586
(lp3225
S'al,'
p3226
asg559
(lp3227
S'al.'
p3228
assg1563
(dp3229
g809
(lp3230
S'the'
p3231
assS'now'
p3232
(dp3233
g935
(lp3234
S'equipped'
p3235
asS'file4.txt,line.no:43'
p3236
(lp3237
S'described'
p3238
assS'event'
p3239
(dp3240
g817
(lp3241
S'is'
p3242
asg11
(lp3243
S'listeners.'
p3244
asg14
(lp3245
S'listeners'
p3246
assg2445
(dp3247
g83
(lp3248
g644
assS'out'
p3249
(dp3250
g1436
(lp3251
S'of'
p3252
asg286
(lp3253
S'fleet'
p3254
asg1528
(lp3255
S'some'
p3256
asg1459
(lp3257
S'that'
p3258
assS'deals'
p3259
(dp3260
g33
(lp3261
S'with'
p3262
assS'Satellite'
p3263
(dp3264
g2253
(lp3265
S'that'
p3266
assS'(ALPS)'
p3267
(dp3268
g250
(lp3269
S'that'
p3270
assS'tracking,'
p3271
(dp3272
g180
(lp3273
S'topologic'
p3274
assS'route.'
p3275
(dp3276
g432
(lp3277
S'If'
p3278
asg392
(lp3279
S'He'
p3280
assS'Boston,'
p3281
(dp3282
g2751
(lp3283
S'MA,'
p3284
assS'Permission'
p3285
(dp3286
g401
(lp3287
S'to'
p3288
assS'nowadays'
p3289
(dp3290
g693
(lp3291
S'almost'
p3292
assg291
(dp3293
g289
(lp3294
S'have'
p3295
assS'sensors:'
p3296
(dp3297
g748
(lp3298
g1240
assS'Prasant'
p3299
(dp3300
g867
(lp3301
g1462
assS'32'
p3302
(dp3303
S'file2.txt,line.no:6'
p3304
(lp3305
S'Design'
p3306
assS'<='
p3307
(dp3308
g1753
(lp3309
S'2/min'
p3310
assS'content'
p3311
(dp3312
g86
(lp3313
S'providers,'
p3314
assS'specifications'
p3315
(dp3316
g43
(lp3317
S'of'
p3318
asg1459
(lp3319
S'needed'
p3320
assg2664
(dp3321
g1149
(lp3322
S'just'
p3323
assS'4.3.5'
p3324
(dp3325
S'file2.txt,line.no:232'
p3326
(lp3327
S'SensorEventListener'
p3328
assg2043
(dp3329
g2041
(lp3330
S'shows'
p3331
assS'internet'
p3332
(dp3333
g484
(lp3334
S'had'
p3335
assS'45\xc2\xb0,'
p3336
(dp3337
g531
(lp3338
S'Y'
p3339
asg534
(lp3340
g3339
assS'got'
p3341
(dp3342
g641
(lp3343
g2684
assS'adaptive'
p3344
(dp3345
g250
(lp3346
S'location'
p3347
assS'sensor'
p3348
(dp3349
g404
(lp3350
S'data'
p3351
asg446
(lp3352
S'Data'
p3353
asg1129
(lp3354
g1761
asg2375
(lp3355
S'data'
p3356
asS'file2.txt,line.no:15'
p3357
(lp3358
S'which'
p3359
asg2372
(lp3360
S'data'
p3361
asg148
(lp3362
S'data'
p3363
asg14
(lp3364
g81
asg476
(lp3365
S'data'
p3366
asg551
(lp3367
S'data'
p3368
assS'Class'
p3369
(dp3370
S'file2.txt,line.no:130'
p3371
(lp3372
S'Diagram'
p3373
asS'file2.txt,line.no:132'
p3374
(lp3375
S'Descriptions'
p3376
assS'shows'
p3377
(dp3378
g1549
(lp3379
S'the'
p3380
asg2041
(lp3381
S'the'
p3382
asg2048
(lp3383
S'the'
p3384
asg2045
(lp3385
S'the'
p3386
asg1072
(lp3387
S'the'
p3388
asg143
(lp3389
S'the'
p3390
asg1405
(lp3391
S'the'
p3392
asg1192
(lp3393
S'the'
p3394
assS'Rejects'
p3395
(dp3396
g373
(lp3397
S'the'
p3398
assg311
(dp3399
g309
(lp3400
S'the'
p3401
asS'file2.txt,line.no:71'
p3402
(lp3403
S'Session'
p3404
assS'application).'
p3405
(dp3406
g1606
(lp3407
S'The'
p3408
assg2537
(dp3409
g2535
(lp3410
S'Reserved'
p3411
asg2538
(lp3412
S'Reserved'
p3413
asg2541
(lp3414
S'Reserved'
p3415
asg2544
(lp3416
S'Reserved'
p3417
asg2547
(lp3418
S'Reserved'
p3419
asg2550
(lp3420
S'Reserved'
p3421
assS'CSE'
p3422
(dp3423
g113
(lp3424
g111
assg2404
(dp3425
g2175
(lp3426
S'in'
p3427
assS'possibility'
p3428
(dp3429
g118
(lp3430
S'to'
p3431
asg696
(lp3432
S'to'
p3433
assg2482
(dp3434
g1019
(lp3435
S'user'
p3436
assg2377
(dp3437
g2375
(lp3438
S'encapsulation.'
p3439
assS'carried'
p3440
(dp3441
g398
(lp3442
S'by'
p3443
assg1874
(dp3444
g1872
(lp3445
S'partner'
p3446
assg1726
(dp3447
g1724
(lp3448
S'and'
p3449
assS'flight\xe2\x80\x99s'
p3450
(dp3451
g2278
(lp3452
g2274
assS'equipped'
p3453
(dp3454
g693
(lp3455
S'with'
p3456
asg935
(lp3457
S'with'
p3458
assS'sensors'
p3459
(dp3460
g266
(lp3461
S'to'
p3462
asg367
(lp3463
S'trigger.'
p3464
asg470
(lp3465
S'used'
p3466
assS'wanted'
p3467
(dp3468
g296
(lp3469
S'to'
p3470
assS'beginning'
p3471
(dp3472
g296
(lp3473
S'of'
p3474
assg3073
(dp3475
g108
(lp3476
S'to'
p3477
assg1653
(dp3478
g1651
(lp3479
S'of'
p3480
assS'attention,'
p3481
(dp3482
g2175
(lp3483
S'professor'
p3484
asg1865
(lp3485
g1991
assS'attention.'
p3486
(dp3487
g470
(lp3488
S'[1]'
p3489
assg2316
(dp3490
g2314
(lp3491
S'into'
p3492
assg884
(dp3493
g882
(lp3494
S'(LBS).'
p3495
assS'client-server'
p3496
(dp3497
S'file3.txt,line.no:17'
p3498
(lp3499
S'Technology'
p3500
assS'automatic'
p3501
(dp3502
g566
(lp3503
S'sig-'
p3504
assS'could'
p3505
(dp3506
g128
(lp3507
S'improve'
p3508
assS'undiscovered'
p3509
(dp3510
g2527
(lp3511
S'error.'
p3512
assg2964
(dp3513
g574
(lp3514
S'Vol.4'
p3515
asg577
(lp3516
S'Vol.4'
p3517
asg580
(lp3518
S'Vol.4'
p3519
asg583
(lp3520
S'Vol.4'
p3521
asg586
(lp3522
S'Vol.4'
p3523
asg526
(lp3524
S'Vol.4'
p3525
assS'count'
p3526
(dp3527
g1215
(lp3528
S'of'
p3529
assS'map-matching'
p3530
(dp3531
g2985
(lp3532
S'algorithm'
p3533
assS'feasible'
p3534
(dp3535
g546
(lp3536
S'and'
p3537
assg1988
(dp3538
g1986
(lp3539
S'reports'
p3540
assS'thing'
p3541
(dp3542
g1953
(lp3543
S'that'
p3544
assS'specifications.'
p3545
(dp3546
g1528
(lp3547
g1522
assS'\xe2\x80\x9cGet'
p3548
(dp3549
g593
(lp3550
g591
assS'routes'
p3551
(dp3552
g1478
(lp3553
S'from'
p3554
asg1481
(lp3555
S'from'
p3556
asg782
(lp3557
S'and'
p3558
asg506
(lp3559
S'and'
p3560
asg2113
(lp3561
S'both'
p3562
assS'uses'
p3563
(dp3564
g453
(lp3565
S'an'
p3566
asg473
(lp3567
g80
assS'Listens'
p3568
(dp3569
g446
(lp3570
S'to'
p3571
assS'sensing,'
p3572
(dp3573
g1336
(lp3574
S'Communication'
p3575
assS'interact'
p3576
(dp3577
g1651
(lp3578
S'with'
p3579
assS'first'
p3580
(dp3581
g1092
(lp3582
S'one'
p3583
asg17
(lp3584
g912
assS'Vol.'
p3585
(dp3586
g951
(lp3587
S'4,'
p3588
assS'fetched'
p3589
(dp3590
g407
(lp3591
S'from'
p3592
assS'IO'
p3593
(dp3594
S'file2.txt,line.no:169'
p3595
(lp3596
S'[7]'
p3597
assg1878
(dp3598
g511
(lp3599
S'of'
p3600
assS'ever-growing'
p3601
(dp3602
g490
(lp3603
S'and'
p3604
assg2076
(dp3605
g701
(lp3606
S'exist'
p3607
asg1192
(lp3608
S'are'
p3609
assS'powerful'
p3610
(dp3611
g2229
(lp3612
S'map-'
p3613
assg2681
(dp3614
g1436
(lp3615
S'Software'
p3616
assS'owned'
p3617
(dp3618
g872
(lp3619
S'by'
p3620
assS'one'
p3621
(dp3622
g58
(lp3623
S'of'
p3624
asg790
(lp3625
S'student'
p3626
asg1092
(lp3627
S'in'
p3628
asS'file3.txt,line.no:121'
p3629
(lp3630
S'program.'
p3631
asg511
(lp3632
S'that'
p3633
asg2224
(lp3634
S'of'
p3635
assg196
(dp3636
g185
(lp3637
S'Model'
p3638
asg188
(lp3639
S'Model'
p3640
asg191
(lp3641
S'Model'
p3642
asg194
(lp3643
S'Model'
p3644
asg197
(lp3645
S'Model'
p3646
assS'Start'
p3647
(dp3648
g1593
(lp3649
g80
asg162
(lp3650
S'Connection)'
p3651
assS'documentation.'
p3652
(dp3653
S'file3.txt,line.no:66'
p3654
(lp3655
S'The'
p3656
assS'U1:'
p3657
(dp3658
S'file2.txt,line.no:46'
p3659
(lp3660
S'Login'
p3661
assS'done'
p3662
(dp3663
g748
(lp3664
S'by'
p3665
asg1089
(lp3666
S'on'
p3667
asg1021
(lp3668
S'where'
p3669
asg367
(lp3670
S'when'
p3671
assS'least'
p3672
(dp3673
g790
(lp3674
g3621
assS'such'
p3675
(dp3676
g253
(lp3677
S'as'
p3678
asg935
(lp3679
S'as'
p3680
assg288
(dp3681
g286
(lp3682
S'out'
p3683
assg2510
(dp3684
g211
(lp3685
S'to'
p3686
asg825
(lp3687
S'when'
p3688
asg440
(lp3689
S'string'
p3690
asg1825
(lp3691
S'that'
p3692
asg364
(lp3693
S'to'
p3694
asg3020
(lp3695
S'if'
p3696
asg322
(lp3697
S'to'
p3698
asg1217
(lp3699
S'and'
p3700
asg98
(lp3701
g96
asg383
(lp3702
S'to'
p3703
assS'open'
p3704
(dp3705
g1910
(lp3706
S'source'
p3707
asg1719
(lp3708
S'which'
p3709
assS'author:'
p3710
(dp3711
g673
(lp3712
S'Before'
p3713
assS'Kit,'
p3714
(dp3715
g1144
(lp3716
S'OpenGL,'
p3717
assS'city'
p3718
(dp3719
g370
(lp3720
S'or'
p3721
assS'given'
p3722
(dp3723
g484
(lp3724
S'mobile'
p3725
assS'management'
p3726
(dp3727
g286
(lp3728
S'efficiently.'
p3729
assg2484
(dp3730
g481
(lp3731
S'to'
p3732
asg93
(lp3733
S'to'
p3734
asg236
(lp3735
S'to'
p3736
assg2320
(dp3737
g882
(lp3738
S'of'
p3739
assS'privacy'
p3740
(dp3741
g256
(lp3742
S'adversaries'
p3743
asg882
(lp3744
S'disclosure'
p3745
asg300
(lp3746
S'of'
p3747
assg2786
(dp3748
g980
(lp3749
g1045
assS'family,'
p3750
(dp3751
S'file4.txt,line.no:9'
p3752
(lp3753
S'relatives'
p3754
assS'sub-systems'
p3755
(dp3756
g1436
(lp3757
S'that'
p3758
assg1421
(dp3759
g332
(lp3760
S'services'
p3761
asg907
(lp3762
S'with'
p3763
asg569
(lp3764
S'is'
p3765
asg2314
(lp3766
S'portal.'
p3767
asg443
(lp3768
S'first.'
p3769
asg250
(lp3770
g3267
asg985
(lp3771
S'can'
p3772
asg820
(lp3773
S'and'
p3774
assg2270
(dp3775
g2268
(lp3776
S'containing'
p3777
assS'response'
p3778
(dp3779
S'file4.txt,line.no:1'
p3780
(lp3781
S'.'
p3782
assS'indicate'
p3783
(dp3784
g312
(lp3785
S'the'
p3786
assS'returns'
p3787
(dp3788
g836
(lp3789
S'server'
p3790
assg982
(dp3791
g1593
(lp3792
S'use'
p3793
asg980
(lp3794
g115
assS'binded'
p3795
(dp3796
g407
(lp3797
S'to'
p3798
assS'accessed'
p3799
(dp3800
g817
(lp3801
S'by'
p3802
assS'hundred'
p3803
(dp3804
S'file4.txt,line.no:35'
p3805
(lp3806
S'web'
p3807
assS'Data'
p3808
(dp3809
g446
(lp3810
S'[9]'
p3811
asS'file2.txt,line.no:212'
p3812
(lp3813
S'Values.'
p3814
assg3495
(dp3815
g882
(lp3816
S'We'
p3817
assS'gives'
p3818
(dp3819
g1082
(lp3820
S'information'
p3821
asg473
(lp3822
g80
asg3805
(lp3823
g3803
assg801
(dp3824
g799
(lp3825
S'with'
p3826
assS'schemes'
p3827
(dp3828
g244
(lp3829
S'have'
p3830
assS'Scholar'
p3831
(dp3832
g113
(lp3833
S'in'
p3834
assg3769
(dp3835
g443
(lp3836
S'The'
p3837
assg3258
(dp3838
g1825
(lp3839
S'the'
p3840
asg1953
(lp3841
S'the'
p3842
asg1345
(lp3843
S'allows'
p3844
asg128
(lp3845
g3505
asg250
(lp3846
S'allows'
p3847
asg332
(lp3848
S'agnostically'
p3849
asg559
(lp3850
S'many'
p3851
asg253
(lp3852
S'they'
p3853
asg1082
(lp3854
S'gives'
p3855
asg256
(lp3856
S'can'
p3857
asg2253
(lp3858
S'aids'
p3859
asg276
(lp3860
S'belong'
p3861
asg1895
(lp3862
S'the'
p3863
asg1436
(lp3864
S'are'
p3865
asg593
(lp3866
S'route'
p3867
asg367
(lp3868
g2155
asg148
(lp3869
S'the'
p3870
asg93
(lp3871
g91
asg1459
(lp3872
S'some'
p3873
asg300
(lp3874
g1343
asg487
(lp3875
S'can'
p3876
asg456
(lp3877
S'can'
p3878
asg2287
(lp3879
S'it'
p3880
asg1802
(lp3881
S'have'
p3882
asg872
(lp3883
S'the'
p3884
asg932
(lp3885
S'applications'
p3886
asg511
(lp3887
S'has'
p3888
assS'pg.'
p3889
(dp3890
g574
(lp3891
S'500-507'
p3892
asg577
(lp3893
S'500-507'
p3894
asg580
(lp3895
S'500-507'
p3896
asg583
(lp3897
S'500-507'
p3898
asg586
(lp3899
S'500-507'
p3900
asg526
(lp3901
S'500-507'
p3902
assS'continuous'
p3903
(dp3904
g123
(lp3905
g2364
assS'Map.'
p3906
(dp3907
g8
(lp3908
S'They'
p3909
assS'\xe2\x80\x9cShow'
p3910
(dp3911
g895
(lp3912
S'Map\xe2\x80\x9d'
p3913
assS'instance,'
p3914
(dp3915
g2985
(lp3916
S'authors'
p3917
assS'tokens'
p3918
(dp3919
g539
(lp3920
S'and'
p3921
assg2593
(dp3922
g2287
(lp3923
S'about'
p3924
assg2504
(dp3925
g1105
(lp3926
S'of'
p3927
asg1089
(lp3928
S'is'
p3929
assg3917
(dp3930
g2985
(lp3931
S'in'
p3932
assS'easier.'
p3933
(dp3934
g1105
(lp3935
g1332
assS'threats.'
p3936
(dp3937
g247
(lp3938
S'This'
p3939
assS'Kim,2'
p3940
(dp3941
g867
(lp3942
g3299
assS'than'
p3943
(dp3944
g1089
(lp3945
g1045
asg2122
(lp3946
S'ever.'
p3947
assS'different.'
p3948
(dp3949
g28
(lp3950
S'We'
p3951
assS'10'
p3952
(dp3953
g3
(lp3954
S'use'
p3955
assg1018
(dp3956
g296
(lp3957
S'of'
p3958
asg2021
(lp3959
S'of'
p3960
aS'of'
p3961
assg2494
(dp3962
g300
(lp3963
S'that'
p3964
assS'determines'
p3965
(dp3966
g322
(lp3967
S'the'
p3968
asg148
(lp3969
S'that'
p3970
assS'sectors'
p3971
(dp3972
g58
(lp3973
S'today.'
p3974
assg2352
(dp3975
g559
(lp3976
S'the'
p3977
assg2935
(dp3978
g2933
(lp3979
S'Mainline'
p3980
asg2936
(lp3981
S'Mainline'
p3982
asg2945
(lp3983
S'Mainline'
p3984
asg1536
(lp3985
S'GPS'
p3986
asg2952
(lp3987
S'Mainline'
p3988
asg2955
(lp3989
S'Mainline'
p3990
assS'vocal'
p3991
(dp3992
g907
(lp3993
S'indication.'
p3994
assS'project'
p3995
(dp3996
g43
(lp3997
S'is'
p3998
asg354
(lp3999
S'is'
p4000
asg28
(lp4001
S'is'
p4002
asg296
(lp4003
S'we'
p4004
asg1910
(lp4005
S'we'
p4006
asg556
(lp4007
S'developing'
p4008
assS'binds'
p4009
(dp4010
g227
(lp4011
S'it'
p4012
asg344
(lp4013
S'it'
p4014
assg3246
(dp4015
g14
(lp4016
S'for'
p4017
assg2862
(dp4018
g665
(lp4019
g648
assS'correct'
p4020
(dp4021
g411
(lp4022
S'details'
p4023
assS'were'
p4024
(dp4025
g296
(lp4026
S'overwhelmed'
p4027
aS'defined'
p4028
assS'Keywords'
p4029
(dp4030
g3498
(lp4031
S'\xe2\x80\x93'
p4032
assS'Jemilda'
p4033
(dp4034
g574
(lp4035
S'et'
p4036
asg577
(lp4037
S'et'
p4038
asg580
(lp4039
S'et'
p4040
asg583
(lp4041
S'et'
p4042
asg586
(lp4043
S'et'
p4044
asg526
(lp4045
S'et'
p4046
assS'8th'
p4047
(dp4048
g103
(lp4049
S'USENIX'
p4050
assg3761
(dp4051
g332
(lp4052
S'to'
p4053
assS'Unit'
p4054
(dp4055
S'file3.txt,line.no:115'
p4056
(lp4057
S'Testing'
p4058
asS'file3.txt,line.no:112'
p4059
(lp4060
S'Testing'
p4061
asg961
(lp4062
S'test'
p4063
assS'1.'
p4064
(dp4065
g1495
(lp4066
S'private'
p4067
asg1164
(lp4068
S'public'
p4069
asg1167
(lp4070
S'public'
p4071
asg1509
(lp4072
S'private'
p4073
asg551
(lp4074
S'System'
p4075
asg631
(lp4076
g1484
asg3654
(lp4077
S'[4]'
p4078
asg1501
(lp4079
S'private'
p4080
asg1019
(lp4081
S'It'
p4082
asS'file2.txt,line.no:49'
p4083
(lp4084
S'User'
p4085
asg877
(lp4086
S'Professor'
p4087
asg1187
(lp4088
S'public'
p4089
asS'file2.txt,line.no:128'
p4090
(lp4091
S'Main'
p4092
asg946
(lp4093
S'User'
p4094
asg855
(lp4095
S'Run'
p4096
asg650
(lp4097
S'public'
p4098
asS'file2.txt,line.no:120'
p4099
(lp4100
S'SensorData'
p4101
asg148
(lp4102
S'System'
p4103
asg624
(lp4104
S'Socket'
p4105
asg1504
(lp4106
S'private'
p4107
asg1176
(lp4108
S'public'
p4109
asg309
(lp4110
S'Student'
p4111
assS'and'
p4112
(dp4113
g227
(lp4114
S'binds'
p4115
asS'file2.txt,line.no:152'
p4116
(lp4117
S'Token'
p4118
asg296
(lp4119
S'we'
p4120
asg539
(lp4121
S'server'
p4122
ag537
asg1267
(lp4123
S'tokens.'
p4124
asg63
(lp4125
S'development'
p4126
asg123
(lp4127
S'sharing'
p4128
asS'file3.txt,line.no:39'
p4129
(lp4130
S'other'
p4131
asg580
(lp4132
S'Mobile'
p4133
asg2253
(lp4134
S'navigators'
p4135
asg259
(lp4136
S'the'
p4137
aS'check'
p4138
asg990
(lp4139
S'evaluated'
p4140
asg83
(lp4141
S'is'
p4142
asg586
(lp4143
S'Mobile'
p4144
asg289
(lp4145
S'also'
p4146
asg1459
(lp4147
S'test'
p4148
asg1640
(lp4149
S'fills'
p4150
asg1276
(lp4151
S'password'
p4152
aS'fetches'
p4153
asg1279
(lp4154
S'password.'
p4155
asg1615
(lp4156
S'the'
p4157
asg300
(lp4158
g2901
asg338
(lp4159
S'class'
p4160
asg3780
(lp4161
S'server'
p4162
asg25
(lp4163
S'EJB'
p4164
asg312
(lp4165
g3783
asg516
(lp4166
S'often'
p4167
asg785
(lp4168
g80
asg820
(lp4169
g80
asg319
(lp4170
S'it'
p4171
asS'file3.txt,line.no:100'
p4172
(lp4173
S'stop'
p4174
asg1439
(lp4175
S'functions.'
p4176
asg344
(lp4177
g4009
asg551
(lp4178
S'evaluates'
p4179
asg86
(lp4180
S'location'
p4181
asg1217
(lp4182
g2638
asg828
(lp4183
S'professor'
p4184
asg790
(lp4185
S'at'
p4186
aS'the'
p4187
asg1345
(lp4188
S'management'
p4189
asg902
(lp4190
S'testing'
p4191
asg1469
(lp4192
S'manage'
p4193
asg641
(lp4194
g3341
asg1872
(lp4195
S'shreyanshi'
p4196
asg574
(lp4197
g2961
asg1910
(lp4198
S'we'
p4199
asg214
(lp4200
g209
asg180
(lp4201
g3271
asg836
(lp4202
g3787
asg22
(lp4203
g80
asg2467
(lp4204
S'its'
p4205
asg354
(lp4206
S'portable'
p4207
asg711
(lp4208
g1568
asg706
(lp4209
S'quality'
p4210
asg1771
(lp4211
S'the'
p4212
asg148
(lp4213
S'determines'
p4214
asg370
(lp4215
g2671
asg98
(lp4216
S'requests'
p4217
asg11
(lp4218
S'registers'
p4219
asg404
(lp4220
S'takes'
p4221
asg407
(lp4222
g3795
asg411
(lp4223
S'prompts'
p4224
asg414
(lp4225
S'mobile'
p4226
asg293
(lp4227
S'course'
p4228
asg424
(lp4229
S'can'
p4230
asg782
(lp4231
S'also'
p4232
aS'then'
p4233
asg429
(lp4234
S'authorization.'
p4235
asg577
(lp4236
S'Mobile'
p4237
asg449
(lp4238
S'mobile'
p4239
asg583
(lp4240
S'Mobile'
p4241
asS'file2.txt,line.no:30'
p4242
(lp4243
S'gyroscopic'
p4244
asS'file2.txt,line.no:31'
p4245
(lp4246
S'Dependencies'
p4247
asS'file3.txt,line.no:69'
p4248
(lp4249
S'sensors.'
p4250
asg48
(lp4251
S'Information'
p4252
asg2195
(lp4253
S'Mobile'
p4254
asg526
(lp4255
S'Mobile'
p4256
asg459
(lp4257
S'students'
p4258
asS'file2.txt,line.no:229'
p4259
(lp4260
S'device'
p4261
asg2175
(lp4262
S'this'
p4263
asg1444
(lp4264
S'checks'
p4265
ag1442
asg732
(lp4266
g730
asg14
(lp4267
S'registers'
p4268
asg2314
(lp4269
S'student'
p4270
asg1651
(lp4271
g1647
asg1222
(lp4272
S'Professor'
p4273
asg546
(lp4274
g80
asg2113
(lp4275
S'offline.'
p4276
asg2514
(lp4277
S'is'
p4278
asg3178
(lp4279
g3176
asg1724
(lp4280
S'TihanaGalinacGrbac,'
p4281
asg1336
(lp4282
S'networking.'
p4283
asg1519
(lp4284
S'Node.JS'
p4285
asg3098
(lp4286
S'instructor'
p4287
asS'file2.txt,line.no:144'
p4288
(lp4289
S'instructor'
p4290
asg487
(lp4291
S'new'
p4292
asg956
(lp4293
S'we'
p4294
asg490
(lp4295
S'the'
p4296
ag2326
asg58
(lp4297
S'most'
p4298
asg493
(lp4299
S'instantaneously'
p4300
asg1284
(lp4301
S'password.'
p4302
asS'file2.txt,line.no:53'
p4303
(lp4304
S'available'
p4305
asg867
(lp4306
g865
asS'file2.txt,line.no:55'
p4307
(lp4308
S'password'
p4309
asg1115
(lp4310
S'same'
p4311
asg38
(lp4312
S'L.'
p4313
asg502
(lp4314
S'also'
p4315
asg506
(lp4316
S'the'
p4317
assg4252
(dp4318
g48
(lp4319
S'Technology'
p4320
assS'(tracked'
p4321
(dp4322
g214
(lp4323
S'person).'
p4324
assS'Enters'
p4325
(dp4326
g1383
(lp4327
S'the'
p4328
asg833
(lp4329
S'the'
p4330
assg2454
(dp4331
g473
(lp4332
g1660
assS'enhanced'
p4333
(dp4334
g985
(lp4335
S'by'
p4336
assS'83'
p4337
(dp4338
S'file2.txt,line.no:103'
p4339
(lp4340
S'Use'
p4341
assS'well'
p4342
(dp4343
g2113
(lp4344
S'as'
p4345
asg247
(lp4346
S'as'
p4347
asg33
(lp4348
S'as'
p4349
assS'that,'
p4350
(dp4351
g521
(lp4352
S'it'
p4353
assS'leaps'
p4354
(dp4355
g956
(lp4356
S'in'
p4357
assS'comfortable'
p4358
(dp4359
g3752
(lp4360
S'for'
p4361
assS'talking'
p4362
(dp4363
g3805
(lp4364
S'about'
p4365
assg435
(dp4366
g432
(lp4367
S'any'
p4368
assS'J.F.'
p4369
(dp4370
g202
(lp4371
S'DiMarzio,'
p4372
assS'have'
p4373
(dp4374
g2005
(lp4375
S'allocated'
p4376
asg696
(lp4377
S'the'
p4378
asg25
(lp4379
g80
asg490
(lp4380
g718
asg1802
(lp4381
S'enough'
p4382
aS'enough'
p4383
asg266
(lp4384
S'sophisticated'
p4385
asg506
(lp4386
S'also'
p4387
asg244
(lp4388
S'been'
p4389
asg902
(lp4390
g900
asg990
(lp4391
g988
asg289
(lp4392
g758
assg2411
(dp4393
g1953
(lp4394
S'focused'
p4395
assS'need'
p4396
(dp4397
g398
(lp4398
S'to'
p4399
asg493
(lp4400
S'to'
p4401
assg4092
(dp4402
g4090
(lp4403
S'Activity'
p4404
asg850
(lp4405
S'Activity'
p4406
asg165
(lp4407
S'Activity::StartConnection'
p4408
assS'503G.'
p4409
(dp4410
g577
(lp4411
S'Jemilda'
p4412
assg2690
(dp4413
g68
(lp4414
S'needs.'
p4415
asg521
(lp4416
S'present'
p4417
asg395
(lp4418
S'devices.'
p4419
asg341
(lp4420
S'panel'
p4421
asg370
(lp4422
S'road.'
p4423
assS'tourists,'
p4424
(dp4425
g2253
(lp4426
g2251
assS'option'
p4427
(dp4428
g946
(lp4429
S'of'
p4430
asg432
(lp4431
S'to'
p4432
assS'institution.'
p4433
(dp4434
g276
(lp4435
S'These'
p4436
assg2718
(dp4437
g335
(lp4438
g2207
assg652
(dp4439
g650
(lp4440
S'event)'
p4441
assg1955
(dp4442
g1953
(lp4443
S'Activity'
p4444
assS'built'
p4445
(dp4446
g1436
(lp4447
S'out'
p4448
assS'505G.'
p4449
(dp4450
g574
(lp4451
g4033
assS'63'
p4452
(dp4453
S'file2.txt,line.no:50'
p4454
(lp4455
S'Use'
p4456
assS'database.'
p4457
(dp4458
g2372
(lp4459
S'Node-mysql'
p4460
assS'offer'
p4461
(dp4462
g280
(lp4463
S'simple'
p4464
asg443
(lp4465
g80
assS'-'
p4466
(dp4467
g1082
(lp4468
S'This'
p4469
asg156
(lp4470
g1933
asg153
(lp4471
S'Trigger'
p4472
asg162
(lp4473
g3647
assS'[3]'
p4474
(dp4475
g1724
(lp4476
S'RobiGrgurina,'
p4477
assS'4:'
p4478
(dp4479
S'file3.txt,line.no:82'
p4480
(lp4481
S'Flow'
p4482
assS'Diagram'
p4483
(dp4484
g4480
(lp4485
S'of'
p4486
asg1674
(lp4487
S'of'
p4488
assS'also'
p4489
(dp4490
g211
(lp4491
S'enter'
p4492
asg782
(lp4493
S'he'
p4494
asg392
(lp4495
S'has'
p4496
asg1072
(lp4497
S'receive'
p4498
asg521
(lp4499
S'assists'
p4500
asg276
(lp4501
S'the'
p4502
asg286
(lp4503
S'be'
p4504
asg502
(lp4505
S'to'
p4506
asg506
(lp4507
S'designed'
p4508
asg289
(lp4509
S'to'
p4510
assg3754
(dp4511
g3752
(lp4512
S'or'
p4513
assS'Manages'
p4514
(dp4515
g404
(lp4516
S'the'
p4517
assS'performance.'
p4518
(dp4519
g1802
(lp4520
S'If'
p4521
assS'Gyroscope'
p4522
(dp4523
S'file2.txt,line.no:204'
p4524
(lp4525
S'reading'
p4526
assS'which'
p4527
(dp4528
g546
(lp4529
S'is'
p4530
asg33
(lp4531
S'are'
p4532
asg3357
(lp4533
S'will'
p4534
asg453
(lp4535
S'is'
p4536
asg1439
(lp4537
S'in'
p4538
asg1719
(lp4539
S'can'
p4540
asg817
(lp4541
S'can'
p4542
asg1072
(lp4543
S'shows'
p4544
asg1597
(lp4545
S'use'
p4546
asg1651
(lp4547
S'UI'
p4548
asg2596
(lp4549
g2594
asg214
(lp4550
S'accepts'
p4551
asg3
(lp4552
g1
assS'bus'
p4553
(dp4554
g2113
(lp4555
S'routes'
p4556
asg449
(lp4557
g2308
asg348
(lp4558
S'will'
p4559
asg2041
(lp4560
S'is'
p4561
asg462
(lp4562
S'to'
p4563
asg33
(lp4564
S'as'
p4565
asg502
(lp4566
S'takes'
p4567
aS'on'
p4568
asg895
(lp4569
S'on'
p4570
asg593
(lp4571
S'for'
p4572
asg418
(lp4573
S'number'
p4574
asg421
(lp4575
S'came'
p4576
asg259
(lp4577
S'and'
p4578
asg985
(lp4579
S'tracking'
p4580
asg506
(lp4581
S'routes'
p4582
assS'finding'
p4583
(dp4584
g511
(lp4585
S'an'
p4586
asg2527
(lp4587
g80
assS'effectiveness'
p4588
(dp4589
g1451
(lp4590
S'of'
p4591
assS'='
p4592
(dp4593
g4259
(lp4594
S'25cm(approx.)'
p4595
assS'rider'
p4596
(dp4597
g2596
(lp4598
S'get'
p4599
assS'Available'
p4600
(dp4601
S'file3.txt,line.no:2'
p4602
(lp4603
S'Online'
p4604
assS'privacy-preserving'
p4605
(dp4606
g244
(lp4607
g3827
asg250
(lp4608
S'system'
p4609
assS'exactly'
p4610
(dp4611
g1019
(lp4612
S'what'
p4613
assS'fundamental'
p4614
(dp4615
g616
(lp4616
S'class'
p4617
assg2512
(dp4618
g1593
(lp4619
S'is'
p4620
asg289
(lp4621
S'the'
p4622
asg33
(lp4623
S'the'
p4624
assS'who'
p4625
(dp4626
g696
(lp4627
S'have'
p4628
asg272
(lp4629
S'wants'
p4630
assg464
(dp4631
g502
(lp4632
g80
asg462
(lp4633
g2741
assg703
(dp4634
g701
(lp4635
S'Every'
p4636
assS'EJB'
p4637
(dp4638
g43
(lp4639
g41
asg25
(lp4640
S'technologies.'
p4641
assg125
(dp4642
g521
(lp4643
g519
asg123
(lp4644
g751
assS'most'
p4645
(dp4646
g546
(lp4647
g3534
asg58
(lp4648
g56
assg2336
(dp4649
g22
(lp4650
S'GPS'
p4651
assS'73'
p4652
(dp4653
S'file2.txt,line.no:77'
p4654
(lp4655
S'Use'
p4656
assS'long.'
p4657
(dp4658
g1860
(lp4659
S'Any'
p4660
assS'(cell'
p4661
(dp4662
g1632
(lp4663
S'phone'
p4664
assg4261
(dp4665
g2467
(lp4666
S'and'
p4667
asg1469
(lp4668
S'and'
p4669
asg386
(lp4670
S'emit'
p4671
asg4259
(lp4672
g4592
assS'threats'
p4673
(dp4674
g247
(lp4675
S'as'
p4676
assg1679
(dp4677
S'file3.txt,line.no:93'
p4678
(lp4679
S'Page'
p4680
asg4303
(lp4681
S'acknowledgement'
p4682
asg1677
(lp4683
S'Page'
p4684
assS'7:'
p4685
(dp4686
g1677
(lp4687
g1668
assg1543
(dp4688
g38
(lp4689
S'and'
p4690
assS'slides'
p4691
(dp4692
g456
(lp4693
S'from'
p4694
assg3196
(dp4695
g8
(lp4696
g3906
asg3194
(lp4697
S'Map'
p4698
assg2329
(dp4699
g490
(lp4700
S'always'
p4701
assg4150
(dp4702
g1640
(lp4703
S'stud'
p4704
assg2679
(dp4705
g211
(lp4706
S'via'
p4707
asg1082
(lp4708
S'phone'
p4709
asg414
(lp4710
S'number'
p4711
asg855
(lp4712
S'phone.'
p4713
asg484
(lp4714
g930
asg256
(lp4715
S'user'
p4716
asg2467
(lp4717
S'phone.'
p4718
asg1105
(lp4719
S'phone'
p4720
asg956
(lp4721
S'phone'
p4722
asg2287
(lp4723
S'phones'
p4724
asg449
(lp4725
g2989
asg58
(lp4726
S'phone'
p4727
asg1632
(lp4728
S'application'
p4729
asg296
(lp4730
g714
asg481
(lp4731
S'application'
p4732
asg63
(lp4733
g1257
asg559
(lp4734
S'applications'
p4735
asg123
(lp4736
g121
assg1806
(dp4737
g58
(lp4738
S'is'
p4739
assg4184
(dp4740
g153
(lp4741
S'to'
p4742
asg2175
(lp4743
S'is'
p4744
asg2314
(lp4745
S'and'
p4746
asg828
(lp4747
S'are'
p4748
asg790
(lp4749
S'and'
p4750
asg3066
(lp4751
S'has'
p4752
asg383
(lp4753
S'showing'
p4754
assS'Creation'
p4755
(dp4756
g272
(lp4757
S'of'
p4758
assS'acknowledgement'
p4759
(dp4760
g4303
(lp4761
S'and'
p4762
asg836
(lp4763
S'of'
p4764
assg3980
(dp4765
g2955
(lp4766
S'Sequence:'
p4767
asg2945
(lp4768
S'Sequence:'
p4769
asg2933
(lp4770
S'Sequence:'
p4771
asg2936
(lp4772
S'Sequence:'
p4773
asg2952
(lp4774
S'Sequence:'
p4775
assS'jemildajeba@yahoo.com'
p4776
(dp4777
g980
(lp4778
g2211
assS'travelers,'
p4779
(dp4780
g2253
(lp4781
g4424
assg3060
(dp4782
g867
(lp4783
g3940
assS'Client'
p4784
(dp4785
g4678
(lp4786
S'Login'
p4787
asg453
(lp4788
S'to'
p4789
asg414
(lp4790
S'has'
p4791
asg1498
(lp4792
S'socketClient;'
p4793
asg236
(lp4794
g940
assS'Development:'
p4795
(dp4796
g999
(lp4797
S'an'
p4798
assS'link'
p4799
(dp4800
g2467
(lp4801
S'between'
p4802
assS'left'
p4803
(dp4804
g1528
(lp4805
g3249
assS'sequence'
p4806
(dp4807
g569
(lp4808
S'of'
p4809
assS'technical'
p4810
(dp4811
g180
(lp4812
S'job'
p4813
assS'fact'
p4814
(dp4815
g1593
(lp4816
g982
assg100
(dp4817
g98
(lp4818
S'the'
p4819
assS'sector'
p4820
(dp4821
g490
(lp4822
S'and'
p4823
assS'Web'
p4824
(dp4825
g1144
(lp4826
g3714
assS'walking'
p4827
(dp4828
g638
(lp4829
S'or'
p4830
assS'Monitor'
p4831
(dp4832
g1504
(lp4833
S'monitor;'
p4834
asg2665
(lp4835
S'Attention'
p4836
assS'didn\xe2\x80\x99t'
p4837
(dp4838
g296
(lp4839
S'know'
p4840
assS'able'
p4841
(dp4842
g214
(lp4843
S'to'
p4844
asg395
(lp4845
S'to'
p4846
assg3314
(dp4847
g86
(lp4848
S'telephony,'
p4849
assg3028
(dp4850
g28
(lp4851
S'on'
p4852
assS'fatal.'
p4853
(dp4854
g1967
(lp4855
S'Having'
p4856
assg4268
(dp4857
g11
(lp4858
S'all'
p4859
asg14
(lp4860
g6
assS'Actors'
p4861
(dp4862
g358
(lp4863
g610
asS'file2.txt,line.no:72'
p4864
(lp4865
g610
asS'file2.txt,line.no:90'
p4866
(lp4867
g610
asg269
(lp4868
g610
asS'file2.txt,line.no:58'
p4869
(lp4870
g610
assS'solutions'
p4871
(dp4872
g280
(lp4873
S'to'
p4874
assS'otherwise.uding'
p4875
(dp4876
g1144
(lp4877
S'SQLite,'
p4878
assS'MySQL'
p4879
(dp4880
g2372
(lp4881
g4457
assS'application).use'
p4882
(dp4883
g1600
(lp4884
S'cases'
p4885
assg2852
(dp4886
g2467
(lp4887
g4799
asg766
(lp4888
g764
assS'Sensor'
p4889
(dp4890
g3357
(lp4891
S'Manager'
p4892
asS'file2.txt,line.no:202'
p4893
(lp4894
S'reading'
p4895
asg3812
(lp4896
g3808
assg4027
(dp4897
g296
(lp4898
S'with'
p4899
assS'accelGravityData[3];'
p4900
(dp4901
g1187
(lp4902
S'[9]'
p4903
assS'impact'
p4904
(dp4905
g247
(lp4906
S'of'
p4907
assg2450
(dp4908
g214
(lp4909
S'phone'
p4910
assS'We'
p4911
(dp4912
g799
(lp4913
S'assume'
p4914
asg872
(lp4915
S'assume'
p4916
asg28
(lp4917
S'are'
p4918
asg2238
(lp4919
S'understand'
p4920
asg882
(lp4921
S'have'
p4922
asg506
(lp4923
S'have'
p4924
asg296
(lp4925
g4024
asg1021
(lp4926
S'will'
p4927
asg990
(lp4928
S'have'
p4929
assS'Z'
p4930
(dp4931
g531
(lp4932
S'0\xc2\xb0)'
p4933
asg534
(lp4934
S'0\xc2\xb0)'
p4935
assS'based'
p4936
(dp4937
g68
(lp4938
S'on'
p4939
asg1910
(lp4940
S'on'
p4941
asg711
(lp4942
S'and'
p4943
asg872
(lp4944
S'on'
p4945
asg551
(lp4946
S'on'
p4947
assg3323
(dp4948
g1149
(lp4949
S'changed.'
p4950
assS'much'
p4951
(dp4952
g502
(lp4953
S'time'
p4954
assS'undying'
p4955
(dp4956
g493
(lp4957
S'necessity.'
p4958
assS'specified'
p4959
(dp4960
g814
(lp4961
S'class.'
p4962
assg2040
(dp4963
g1549
(lp4964
S'shows'
p4965
asg980
(lp4966
g115
asg83
(lp4967
S'actors,'
p4968
asg3
(lp4969
S'actors,'
p4970
assS'controls'
p4971
(dp4972
g476
(lp4973
S'the'
p4974
assg4704
(dp4975
g1640
(lp4976
S'object.'
p4977
assS'only'
p4978
(dp4979
g4172
(lp4980
S'start'
p4981
asg276
(lp4982
S'college'
p4983
asg1606
(lp4984
S'available'
p4985
asg521
(lp4986
g4350
assg1503
(dp4987
g1495
(lp4988
S'socketId;'
p4989
asg1501
(lp4990
S'url;'
p4991
asg1514
(lp4992
S'socket.id;'
p4993
assS'geologist'
p4994
(dp4995
g180
(lp4996
g178
assS'506G.'
p4997
(dp4998
g586
(lp4999
S'Jemilda'
p5000
assg3859
(dp5001
g2253
(lp5002
g4779
assS'GPS,'
p5003
(dp5004
g3498
(lp5005
g3496
assS'meant'
p5006
(dp5007
g354
(lp5008
S'to'
p5009
assg282
(dp5010
g1019
(lp5011
g4610
aS'but'
p5012
asg280
(lp5013
S'our'
p5014
assS'network,'
p5015
(dp5016
g1519
(lp5017
g1517
assS'his'
p5018
(dp5019
g3066
(lp5020
S'credentials.'
p5021
assS'A.'
p5022
(dp5023
g38
(lp5024
g36
asg4056
(lp5025
g4054
assg4599
(dp5026
g2596
(lp5027
S'cought'
p5028
asg395
(lp5029
S'real'
p5030
assS'Position'
p5031
(dp5032
g2253
(lp5033
g3263
assS'IJCSMC'
p5034
(dp5035
g2535
(lp5036
g2533
asg2538
(lp5037
S'All'
p5038
asg2541
(lp5039
S'All'
p5040
asg2544
(lp5041
S'All'
p5042
asg2547
(lp5043
S'All'
p5044
asg2550
(lp5045
S'All'
p5046
assS'connections'
p5047
(dp5048
g93
(lp5049
S'between'
p5050
assS'[2]'
p5051
(dp5052
g867
(lp5053
S'Jindan'
p5054
assg4174
(dp5055
g4172
(lp5056
S'the'
p5057
asg502
(lp5058
S'and'
p5059
asg432
(lp5060
S'from'
p5061
assS'Midlet:'
p5062
(dp5063
g3780
(lp5064
S'Send'
p5065
assS'respective'
p5066
(dp5067
g68
(lp5068
S'test'
p5069
assS'famous'
p5070
(dp5071
g2224
(lp5072
S'GPS'
p5073
assS'cannot'
p5074
(dp5075
g956
(lp5076
S'avoid'
p5077
assS'124'
p5078
(dp5079
g185
(lp5080
S'Object'
p5081
assS'fastest'
p5082
(dp5083
g58
(lp5084
S'and'
p5085
assg2506
(dp5086
g2372
(lp5087
g4879
assS'U4:'
p5088
(dp5089
g2665
(lp5090
g4831
assS'during'
p5091
(dp5092
g296
(lp5093
S'the'
p5094
asg711
(lp5095
g80
assS'procedures'
p5096
(dp5097
g1439
(lp5098
S'and'
p5099
assS'already'
p5100
(dp5101
g1597
(lp5102
g80
assS'GPS'
p5103
(dp5104
g22
(lp5105
S'are'
p5106
asg693
(lp5107
S'on'
p5108
asg2467
(lp5109
S'device'
p5110
asg214
(lp5111
S'coordinates'
p5112
asg935
(lp5113
S'or'
p5114
asg1536
(lp5115
g1534
asg907
(lp5116
S'proposes'
p5117
asg2021
(lp5118
g3046
asg2224
(lp5119
g3197
assg2033
(dp5120
g638
(lp5121
S'mountain'
p5122
assS'processes'
p5123
(dp5124
g2238
(lp5125
S'for'
p5126
asg63
(lp5127
S'and'
p5128
assg2437
(dp5129
g2435
(lp5130
S'actual'
p5131
assg700
(dp5132
g341
(lp5133
S'in'
p5134
assg5028
(dp5135
g2596
(lp5136
S'by'
p5137
assS'fields'
p5138
(dp5139
g1860
(lp5140
S'must'
p5141
assg3051
(dp5142
g395
(lp5143
S'the'
p5144
assS'students.'
p5145
(dp5146
g424
(lp5147
S'He'
p5148
assS'\xe2\x80\x9cAccurate,'
p5149
(dp5150
g103
(lp5151
S'Low-Energy'
p5152
assS'us'
p5153
(dp5154
g1105
(lp5155
g1103
assS'email'
p5156
(dp5157
g1276
(lp5158
S'address'
p5159
asg1279
(lp5160
S'address'
p5161
asS'file2.txt,line.no:163'
p5162
(lp5163
S'address,'
p5164
assg1492
(dp5165
g1490
(lp5166
S'sd;'
p5167
assS'2.4.4'
p5168
(dp5169
g2557
(lp5170
g2555
assS'Assumptions'
p5171
(dp5172
g4245
(lp5173
S'and'
p5174
assS'bus.'
p5175
(dp5176
g1072
(lp5177
S'He'
p5178
assS'architecture'
p5179
(dp5180
g3654
(lp5181
S'of'
p5182
asg1021
(lp5183
S'what'
p5184
assg2407
(dp5185
g418
(lp5186
S'client'
p5187
assS'activity'
p5188
(dp5189
g1953
(lp5190
S'is'
p5191
asg17
(lp5192
S'is'
p5193
assS'6:'
p5194
(dp5195
g1674
(lp5196
S'Flow'
p5197
assS'Instantiates'
p5198
(dp5199
g14
(lp5200
S'the'
p5201
assg1697
(dp5202
g1695
(lp5203
S'the'
p5204
asg1021
(lp5205
S'(mobile'
p5206
asg1967
(lp5207
S'accidents'
p5208
assg1407
(dp5209
g424
(lp5210
S'the'
p5211
asg361
(lp5212
S'the'
p5213
asg521
(lp5214
S'on'
p5215
asg1405
(lp5216
S'of'
p5217
assS'searching'
p5218
(dp5219
g521
(lp5220
S'for'
p5221
assg1001
(dp5222
g999
(lp5223
S'May'
p5224
assS'Within'
p5225
(dp5226
g83
(lp5227
S'the'
p5228
assg3339
(dp5229
g531
(lp5230
S'0\xc2\xb0,'
p5231
asg534
(lp5232
S'0\xc2\xb0,'
p5233
assg2138
(dp5234
g2985
(lp5235
g3914
asg214
(lp5236
S'this'
p5237
asg1865
(lp5238
S'proper'
p5239
asg53
(lp5240
S'the'
p5241
asg3098
(lp5242
g3096
assg1156
(dp5243
g1187
(lp5244
g4900
asg1154
(lp5245
S'rotationMatrix[16];'
p5246
asg1159
(lp5247
S'proximityData;'
p5248
assS'Zhu'
p5249
(dp5250
g559
(lp5251
S'et'
p5252
assS'station'
p5253
(dp5254
g4129
(lp5255
S'and'
p5256
assS'testing'
p5257
(dp5258
g706
(lp5259
S'is'
p5260
asg78
(lp5261
S'is'
p5262
asg569
(lp5263
S'activities'
p5264
assS'[4]'
p5265
(dp5266
g202
(lp5267
g4369
asg3654
(lp5268
S'[5]'
p5269
assS'Send'
p5270
(dp5271
g1606
(lp5272
g80
asg3780
(lp5273
S'position'
p5274
assg1721
(dp5275
g1719
(lp5276
S'as'
p5277
assg208
(dp5278
g202
(lp5279
S'Jul.'
p5280
assS'collectively'
p5281
(dp5282
g358
(lp5283
S'referred'
p5284
asg269
(lp5285
g3134
assS'see'
p5286
(dp5287
g502
(lp5288
S'the'
p5289
asg1021
(lp5290
S'in'
p5291
assS'focuses'
p5292
(dp5293
g961
(lp5294
S'verification'
p5295
assg4983
(dp5296
g276
(lp5297
S'buses'
p5298
asg289
(lp5299
S'buses'
p5300
assS'are'
p5301
(dp5302
g22
(lp5303
S'available'
p5304
asg407
(lp5305
g3589
asg932
(lp5306
S'widely'
p5307
asg33
(lp5308
S'used'
p5309
asg358
(lp5310
S'collectively'
p5311
asg1436
(lp5312
g1434
asg392
(lp5313
g893
asg935
(lp5314
g3232
asg1967
(lp5315
S'those'
p5316
asg138
(lp5317
S'still'
p5318
asg53
(lp5319
g51
asg269
(lp5320
g5281
asg828
(lp5321
S'logged'
p5322
asg1439
(lp5323
S'composed'
p5324
asg1597
(lp5325
g5100
asg315
(lp5326
S'designed'
p5327
asg28
(lp5328
S'not'
p5329
asg1825
(lp5330
S'incomplete'
p5331
asg1008
(lp5332
S'not.'
p5333
asg8
(lp5334
S'displayed'
p5335
assg1453
(dp5336
g1451
(lp5337
S'simulation,'
p5338
assg3613
(dp5339
g2229
(lp5340
S'matching'
p5341
assS'Android'
p5342
(dp5343
g2113
(lp5344
g2808
aS'requires'
p5345
asg1082
(lp5346
S'mobile'
p5347
asg999
(lp5348
S'Application'
p5349
asg3357
(lp5350
S'Sensor'
p5351
asS'file2.txt,line.no:35'
p5352
(lp5353
S'Operating'
p5354
asg202
(lp5355
g1433
asg263
(lp5356
S'applications'
p5357
asg932
(lp5358
S'phones'
p5359
asg2635
(lp5360
g2633
asg280
(lp5361
S'applications'
p5362
asg3654
(lp5363
S'is'
p5364
asg990
(lp5365
S'OS'
p5366
asg289
(lp5367
S'Application'
p5368
assS'2.6'
p5369
(dp5370
g4245
(lp5371
g5171
assS'2.5'
p5372
(dp5373
g3178
(lp5374
S'Design'
p5375
assS'2.4'
p5376
(dp5377
g732
(lp5378
S'System'
p5379
assS'nalling'
p5380
(dp5381
g2596
(lp5382
S'systems'
p5383
assS'error'
p5384
(dp5385
g1825
(lp5386
S'message'
p5387
asg825
(lp5388
S'message'
p5389
asg4307
(lp5390
S'in'
p5391
asg2458
(lp5392
S'if'
p5393
assg4096
(dp5394
g855
(lp5395
g80
assS'interacting'
p5396
(dp5397
g616
(lp5398
S'with'
p5399
assS'mentioned'
p5400
(dp5401
g1597
(lp5402
S'above,'
p5403
assS'don\xe2\x80\x99t'
p5404
(dp5405
g1895
(lp5406
S'have.'
p5407
assg1220
(dp5408
g358
(lp5409
S'are'
p5410
asg269
(lp5411
g5301
assS'Advances'
p5412
(dp5413
g862
(lp5414
S'in'
p5415
assS'sites'
p5416
(dp5417
g3805
(lp5418
g4362
assg2930
(dp5419
g862
(lp5420
g5412
assg3130
(dp5421
g153
(lp5422
g4466
assS'he/she'
p5423
(dp5424
g214
(lp5425
S'is?\xe2\x80\x9d.'
p5426
assg1039
(dp5427
g1037
(lp5428
S'Objects'
p5429
assS'future'
p5430
(dp5431
g1719
(lp5432
S'enhancements.'
p5433
assS'between'
p5434
(dp5435
g2467
(lp5436
g80
asg4259
(lp5437
S'student'
p5438
asg395
(lp5439
S'their'
p5440
asg467
(lp5441
S'the'
p5442
asg93
(lp5443
S'the'
p5444
asg143
(lp5445
S'the'
p5446
asg3098
(lp5447
S'the'
p5448
asg1222
(lp5449
S'the'
p5450
assS'probably'
p5451
(dp5452
g546
(lp5453
S'the'
p5454
assg4265
(dp5455
g1444
(lp5456
S'if'
p5457
assg3913
(dp5458
g895
(lp5459
S'then'
p5460
assS'available'
p5461
(dp5462
g22
(lp5463
S'on'
p5464
asg2005
(lp5465
S'for'
p5466
asg4303
(lp5467
S'options.'
p5468
asg1606
(lp5469
S'from'
p5470
asg711
(lp5471
S'for'
p5472
assg3011
(dp5473
g956
(lp5474
g5074
asg266
(lp5475
S'assume'
p5476
asg53
(lp5477
S'are'
p5478
asg1528
(lp5479
g4803
asg1459
(lp5480
g3119
asg296
(lp5481
g4837
ag3467
aS'needed'
p5482
asg1910
(lp5483
S'used'
p5484
aS'have'
p5485
asg641
(lp5486
S'learned'
p5487
assS'creating'
p5488
(dp5489
g1651
(lp5490
g80
asg2458
(lp5491
S'the'
p5492
assS'missing'
p5493
(dp5494
g319
(lp5495
S'information.'
p5496
assS'importance'
p5497
(dp5498
g2238
(lp5499
S'of'
p5500
assS'component'
p5501
(dp5502
g68
(lp5503
S'is'
p5504
asg701
(lp5505
S'is'
p5506
assS'attention'
p5507
(dp5508
g1444
(lp5509
g1809
asS'file2.txt,line.no:11'
p5510
(lp5511
S'span'
p5512
asg814
(lp5513
S'statistics'
p5514
asg322
(lp5515
S'to'
p5516
asg1008
(lp5517
S'even'
p5518
assg4372
(dp5519
g202
(lp5520
S'Android'
p5521
assS'flow'
p5522
(dp5523
g1047
(lp5524
S'of'
p5525
asg2045
(lp5526
S'of'
p5527
assS'Server'
p5528
(dp5529
g4116
(lp5530
S'Address'
p5531
asg233
(lp5532
S'to'
p5533
asS'file2.txt,line.no:181'
p5534
(lp5535
S'Address'
p5536
assS'implementing'
p5537
(dp5538
g53
(lp5539
S'the'
p5540
assg4813
(dp5541
g180
(lp5542
S'like'
p5543
assg426
(dp5544
g424
(lp5545
S'or'
p5546
asg392
(lp5547
S'or'
p5548
assg3095
(dp5549
g2229
(lp5550
S'attack'
p5551
assg2788
(dp5552
g113
(lp5553
S'College'
p5554
assS'interface'
p5555
(dp5556
g459
(lp5557
S'will'
p5558
asg443
(lp5559
S'to'
p5560
assg299
(dp5561
g296
(lp5562
g4911
assS'interfaced'
p5563
(dp5564
g3357
(lp5565
S'using'
p5566
assS'regular'
p5567
(dp5568
g118
(lp5569
S'basis'
p5570
assg3508
(dp5571
g128
(lp5572
S'user'
p5573
assg3562
(dp5574
g2113
(lp5575
S'online'
p5576
asg2314
(lp5577
S'the'
p5578
assS'positioning.'
p5579
(dp5580
g2224
(lp5581
g3157
assS'Integration'
p5582
(dp5583
g315
(lp5584
S'tests'
p5585
asS'file3.txt,line.no:113'
p5586
(lp5587
S'Testing'
p5588
asS'file3.txt,line.no:119'
p5589
(lp5590
S'Testing'
p5591
assS'admin'
p5592
(dp5593
g506
(lp5594
S'to'
p5595
asg429
(lp5596
S'account'
p5597
asg432
(lp5598
S'want'
p5599
assS'country'
p5600
(dp5601
g370
(lp5602
S'side'
p5603
assS'U5:'
p5604
(dp5605
g1986
(lp5606
g1984
assS'ternet'
p5607
(dp5608
g3805
(lp5609
g3818
assg5280
(dp5610
g202
(lp5611
S'2008.'
p5612
assg2785
(dp5613
g980
(lp5614
g2040
assg4671
(dp5615
g2175
(lp5616
S'call'
p5617
asg386
(lp5618
S'socket'
p5619
assS'sensitive'
p5620
(dp5621
g73
(lp5622
S'information'
p5623
assg630
(dp5624
S'file2.txt,line.no:191'
p5625
(lp5626
S'problem.'
p5627
asg598
(lp5628
S'is'
p5629
asg239
(lp5630
S'object'
p5631
asg11
(lp5632
S'and'
p5633
asg3098
(lp5634
S'between'
p5635
asg1222
(lp5636
S'between'
p5637
asg1469
(lp5638
S'from'
p5639
asg604
(lp5640
S'is'
p5641
assS'Computer'
p5642
(dp5643
g574
(lp5644
S'Science'
p5645
asg1690
(lp5646
S'Science'
p5647
asg577
(lp5648
S'Science'
p5649
asg580
(lp5650
S'Science'
p5651
asg583
(lp5652
S'Science'
p5653
asg48
(lp5654
S'Science'
p5655
asg2195
(lp5656
S'Science'
p5657
asg586
(lp5658
S'Science'
p5659
asg526
(lp5660
S'Science'
p5661
assS'Design'
p5662
(dp5663
g3178
(lp5664
S'and'
p5665
asS'file2.txt,line.no:40'
p5666
(lp5667
S'Overview'
p5668
asg3304
(lp5669
S'Overview'
p5670
assS'RobiGrgurina'
p5671
(dp5672
g556
(lp5673
g3213
assS'receives'
p5674
(dp5675
g2514
(lp5676
g80
assg4395
(dp5677
g1953
(lp5678
g3541
assS'login'
p5679
(dp5680
g449
(lp5681
S'the'
p5682
asg2041
(lp5683
S'page.'
p5684
asg429
(lp5685
S'to'
p5686
asg2048
(lp5687
S'page.'
p5688
asg414
(lp5689
S'the'
p5690
asg1092
(lp5691
S'This'
p5692
asg4083
(lp5693
S'page.'
p5694
assS'browser'
p5695
(dp5696
g616
(lp5697
S'clients.'
p5698
assS'otherwise'
p5699
(dp5700
g1860
(lp5701
S'the'
p5702
assS'Then'
p5703
(dp5704
g2514
(lp5705
S'the'
p5706
asg214
(lp5707
S'from'
p5708
asg418
(lp5709
S'map'
p5710
assS'requency'
p5711
(dp5712
g1753
(lp5713
g3307
assg2798
(dp5714
g2079
(lp5715
S'step'
p5716
asg1050
(lp5717
S'step'
p5718
asg1053
(lp5719
S'step'
p5720
asg1059
(lp5721
S'step'
p5722
asg1056
(lp5723
S'step'
p5724
asg2088
(lp5725
S'step'
p5726
asg1062
(lp5727
S'step'
p5728
assS'point'
p5729
(dp5730
g1469
(lp5731
S'of'
p5732
assg2492
(dp5733
g280
(lp5734
g4871
asg556
(lp5735
S'application'
p5736
asg785
(lp5737
S'search'
p5738
asg354
(lp5739
S'and'
p5740
assS'logged'
p5741
(dp5742
g3066
(lp5743
S'in'
p5744
asg1771
(lp5745
S'in'
p5746
asg820
(lp5747
S'into'
p5748
asg828
(lp5749
S'in,'
p5750
assS'others'
p5751
(dp5752
g1895
(lp5753
g5404
assg4324
(dp5754
g214
(lp5755
g5703
assS'6.'
p5756
(dp5757
g383
(lp5758
S'System'
p5759
assg2883
(dp5760
g470
(lp5761
S'the'
p5762
assS'written'
p5763
(dp5764
S'file2.txt,line.no:20'
p5765
(lp5766
S'in'
p5767
assg5112
(dp5768
g214
(lp5769
S'and'
p5770
assS'Enter'
p5771
(dp5772
g1225
(lp5773
S'the'
p5774
asg1284
(lp5775
S'the'
p5776
assg4604
(dp5777
g4602
(lp5778
S'at'
p5779
assg1044
(dp5780
g1042
(lp5781
S'Objects'
p5782
assS'actually'
p5783
(dp5784
g3629
(lp5785
S'run'
p5786
assS'Checks'
p5787
(dp5788
g551
(lp5789
S'the'
p5790
asg148
(lp5791
S'sensor'
p5792
assS'better'
p5793
(dp5794
g2122
(lp5795
g3943
assS'Issue.'
p5796
(dp5797
g951
(lp5798
g1408
assS'instantiated'
p5799
(dp5800
g1222
(lp5801
S'on'
p5802
assS'C.'
p5803
(dp5804
S'file3.txt,line.no:122'
p5805
(lp5806
S'System'
p5807
asS'file3.txt,line.no:96'
p5808
(lp5809
S'Driver'
p5810
assS'accelerometer'
p5811
(dp5812
g4242
(lp5813
S'and'
p5814
assS'\xe2\x80\x9cDevelopment'
p5815
(dp5816
g1724
(lp5817
S'Environment'
p5818
assS'\xe2\x80\x9dwhere'
p5819
(dp5820
g214
(lp5821
g5423
asg28
(lp5822
S'are'
p5823
assS'Bus'
p5824
(dp5825
g2974
(lp5826
S'Tracking'
p5827
assg337
(dp5828
g335
(lp5829
S'applications,'
p5830
assS'lets'
p5831
(dp5832
g351
(lp5833
S'access'
p5834
assS'been'
p5835
(dp5836
g244
(lp5837
g2097
asg1771
(lp5838
S'recorded'
p5839
asg820
(lp5840
S'initiated'
p5841
assg3782
(dp5842
g3780
(lp5843
g3782
assS'underlying'
p5844
(dp5845
g453
(lp5846
S'Client'
p5847
asg236
(lp5848
S'Client'
p5849
assS'profile.'
p5850
(dp5851
g1233
(lp5852
g2875
assg2563
(dp5853
g2238
(lp5854
S'as'
p5855
assS'U2:'
p5856
(dp5857
g2566
(lp5858
g2564
assS'Trajectory'
p5859
(dp5860
g103
(lp5861
S'Mapping'
p5862
assg2374
(dp5863
g2372
(lp5864
S'will'
p5865
assS'Admin'
p5866
(dp5867
g1546
(lp5868
g1544
asg429
(lp5869
S'can'
p5870
assS'entered'
p5871
(dp5872
g319
(lp5873
S'and'
p5874
assg1318
(dp5875
g418
(lp5876
S'Then'
p5877
assS'date'
p5878
(dp5879
g293
(lp5880
S'and'
p5881
assS'empty'
p5882
(dp5883
g1860
(lp5884
g5699
asg4307
(lp5885
S'username'
p5886
assg5383
(dp5887
g2596
(lp5888
g4527
asg935
(lp5889
S'such'
p5890
asg289
(lp5891
S'and'
p5892
assg1286
(dp5893
g1284
(lp5894
S'and'
p5895
asg4307
(lp5896
S'and'
p5897
assg1107
(dp5898
g1105
(lp5899
g3933
assg243
(dp5900
g73
(lp5901
g5620
assg2480
(dp5902
g28
(lp5903
g3948
assS'driver\xe2\x80\x99s'
p5904
(dp5905
g211
(lp5906
S'mobile'
p5907
assS'f'
p5908
(dp5909
g1753
(lp5910
g5711
assg2949
(dp5911
g1053
(lp5912
S'At'
p5913
asg1546
(lp5914
g5866
asg2079
(lp5915
S'At'
p5916
assS'options.'
p5917
(dp5918
g499
(lp5919
S'The'
p5920
assg2311
(dp5921
g449
(lp5922
S'id,'
p5923
asg593
(lp5924
S'is'
p5925
asg782
(lp5926
S'details'
p5927
aS'from'
p5928
assg4482
(dp5929
g4480
(lp5930
g4483
asg1674
(lp5931
S'Diagram'
p5932
assg4920
(dp5933
g2238
(lp5934
S'the'
p5935
assg1542
(dp5936
g38
(lp5937
S'H.'
p5938
assS'turn'
p5939
(dp5940
g1439
(lp5941
S'are'
p5942
assS'classes/objects'
p5943
(dp5944
g143
(lp5945
S'pictorially.'
p5946
assS'instructor'
p5947
(dp5948
g456
(lp5949
S'to'
p5950
asg459
(lp5951
S'and'
p5952
asg395
(lp5953
S'will'
p5954
asg4288
(lp5955
S'devices'
p5956
asg3098
(lp5957
S'devices'
p5958
assg1755
(dp5959
g1753
(lp5960
g5908
assg2428
(dp5961
g546
(lp5962
S'user'
p5963
asg481
(lp5964
S'in'
p5965
asg521
(lp5966
S'location.'
p5967
assS'Software'
p5968
(dp5969
g706
(lp5970
g5257
asg1436
(lp5971
S'is'
p5972
asg1832
(lp5973
S'Interfaces'
p5974
asg335
(lp5975
S'development'
p5976
assg1595
(dp5977
g453
(lp5978
S'[8]'
p5979
asg1593
(lp5980
S'Start'
p5981
asg4307
(lp5982
S'of'
p5983
asg902
(lp5984
S'insufficiency'
p5985
asg1606
(lp5986
g5270
asg511
(lp5987
S'is'
p5988
assg822
(dp5989
g424
(lp5990
S'the'
p5991
asg449
(lp5992
S'to'
p5993
asg1771
(lp5994
S'been'
p5995
asg392
(lp5996
S'the'
p5997
aS'the'
p5998
asg956
(lp5999
S'gone'
p6000
asg418
(lp6001
S'to'
p6002
asg3020
(lp6003
S'not'
p6004
asg1019
(lp6005
S'special'
p6006
asg790
(lp6007
g788
aS'given'
p6008
asg83
(lp6009
g80
asg414
(lp6010
S'to'
p6011
asg3066
(lp6012
S'logged'
p6013
asg820
(lp6014
g5835
asg511
(lp6015
g80
asg383
(lp6016
S'not'
p6017
assg255
(dp6018
g253
(lp6019
S'for'
p6020
assg4008
(dp6021
g556
(lp6022
g80
assS'frozen'
p6023
(dp6024
g2268
(lp6025
S'state'
p6026
assS'Tamil'
p6027
(dp6028
g113
(lp6029
S'Nadu,'
p6030
assg4140
(dp6031
g990
(lp6032
S'the'
p6033
assg1538
(dp6034
g1536
(lp6035
S'schema'
p6036
assg4559
(dp6037
g348
(lp6038
S'be'
p6039
asg386
(lp6040
S'be'
p6041
asg395
(lp6042
S'be'
p6043
asg748
(lp6044
S'be'
p6045
asg3357
(lp6046
S'be'
p6047
asg895
(lp6048
S'be'
p6049
asg2372
(lp6050
S'be'
p6051
asg2287
(lp6052
S'always'
p6053
asg872
(lp6054
S'be'
p6055
asg467
(lp6056
S'be'
p6057
asg459
(lp6058
S'allow'
p6059
asg443
(lp6060
S'offer'
p6061
asg5765
(lp6062
S'be'
p6063
asg1519
(lp6064
S'be'
p6065
asg1222
(lp6066
S'be'
p6067
asg283
(lp6068
g2604
asg1021
(lp6069
g5286
assg3821
(dp6070
g3020
(lp6071
S'has'
p6072
asg73
(lp6073
S'about'
p6074
asg1082
(lp6075
S'about'
p6076
asg432
(lp6077
S'to'
p6078
assS'while'
p6079
(dp6080
g2458
(lp6081
S'creating'
p6082
assg5554
(dp6083
g113
(lp6084
S'of'
p6085
asg2974
(lp6086
g5824
assS'Student,'
p6087
(dp6088
g358
(lp6089
S'Professor'
p6090
asg269
(lp6091
g1211
assg1903
(dp6092
g673
(lp6093
S'the'
p6094
assg3254
(dp6095
g286
(lp6096
g3726
assS'life,'
p6097
(dp6098
g956
(lp6099
S'and'
p6100
assg4660
(dp6101
g1860
(lp6102
g5138
asg272
(lp6103
S'user'
p6104
assS'4.3.6'
p6105
(dp6106
g608
(lp6107
S'Socket'
p6108
assS'Implements'
p6109
(dp6110
g367
(lp6111
S'the'
p6112
assg40
(dp6113
g38
(lp6114
g1539
aS'Girod,'
p6115
assS'orientation'
p6116
(dp6117
g4242
(lp6118
S'rendering'
p6119
assg6030
(dp6120
g113
(lp6121
S'India'
p6122
assS'almost'
p6123
(dp6124
g693
(lp6125
S'every'
p6126
asg341
(lp6127
g691
assS'B.'
p6128
(dp6129
S'file3.txt,line.no:80'
p6130
(lp6131
S'Client'
p6132
asg5589
(lp6133
S'Integration'
p6134
assg4620
(dp6135
g68
(lp6136
g66
asg22
(lp6137
S'not'
p6138
asg569
(lp6139
S'as'
p6140
asg693
(lp6141
g3453
asg2175
(lp6142
S'notified'
p6143
asg418
(lp6144
S'displayed'
p6145
asg817
(lp6146
S'recorded'
p6147
asg1481
(lp6148
S'launched,'
p6149
asg1953
(lp6150
g80
asg872
(lp6151
g870
asg2238
(lp6152
S'for'
p6153
asg701
(lp6154
S'tested'
p6155
asg3654
(lp6156
S'shown'
p6157
asg1129
(lp6158
g80
asg546
(lp6159
g5451
asg598
(lp6160
g1011
asg1872
(lp6161
S'samyak'
p6162
asg932
(lp6163
S'obvious'
p6164
asg83
(lp6165
S'automatically'
p6166
asg1345
(lp6167
g80
asg214
(lp6168
S'to'
p6169
asg1021
(lp6170
S'done'
p6171
asg1606
(lp6172
S'only'
p6173
asg2458
(lp6174
S'encountered'
p6175
asg4172
(lp6176
g4978
asg1478
(lp6177
g2294
asg1771
(lp6178
S'logged'
p6179
asg2041
(lp6180
g2890
asg1860
(lp6181
S'not'
p6182
asg354
(lp6183
g5006
asg711
(lp6184
S'web'
p6185
asg706
(lp6186
g80
asg1436
(lp6187
g4445
asg453
(lp6188
S'the'
p6189
asg593
(lp6190
S'fetched.'
p6191
asg148
(lp6192
g146
asg28
(lp6193
g80
asg616
(lp6194
S'the'
p6195
asg93
(lp6196
g80
asg481
(lp6197
g80
asg17
(lp6198
g3580
asg43
(lp6199
S'presented'
p6200
asg638
(lp6201
S'very'
p6202
asg785
(lp6203
g2151
asg1105
(lp6204
S'always'
p6205
asg2287
(lp6206
S'that'
p6207
asg58
(lp6208
S'one'
p6209
asg493
(lp6210
S'always'
p6211
asg1593
(lp6212
S'in'
p6213
asg2514
(lp6214
S'recorded'
p6215
asg1089
(lp6216
S'done'
p6217
asg1092
(lp6218
S'the'
p6219
asg78
(lp6220
S'the'
p6221
aS'the'
p6222
asg1301
(lp6223
g1713
asg604
(lp6224
g2804
asg820
(lp6225
g5741
asg511
(lp6226
S'one'
p6227
asg828
(lp6228
S'initiated'
p6229
assg1034
(dp6230
g1032
(lp6231
S'Objects'
p6232
assg4014
(dp6233
g227
(lp6234
S'to'
p6235
asg344
(lp6236
S'to'
p6237
asg487
(lp6238
S'was'
p6239
asg1444
(lp6240
S'changes'
p6241
asg2287
(lp6242
S'will'
p6243
asg2122
(lp6244
g5793
asg521
(lp6245
S'also'
p6246
asg566
(lp6247
g722
asg932
(lp6248
S'is'
p6249
asg244
(lp6250
g1656
asg985
(lp6251
S'in'
p6252
asg319
(lp6253
g964
assg6175
(dp6254
g2458
(lp6255
g6079
assS'hardware'
p6256
(dp6257
g1802
(lp6258
S'resources'
p6259
assS'unit'
p6260
(dp6261
g961
(lp6262
S'of'
p6263
assg6213
(dp6264
g701
(lp6265
S'every'
p6266
asg1439
(lp6267
g5939
asg2175
(lp6268
S'attention,'
p6269
asg418
(lp6270
S'the'
p6271
asg817
(lp6272
S'the'
p6273
asg1651
(lp6274
S'which'
p6275
asg902
(lp6276
S'our'
p6277
asg3654
(lp6278
S'Figure'
p6279
asg2985
(lp6280
S'[1]'
p6281
asg521
(lp6282
g5218
asg5765
(lp6283
S'Node.JS'
p6284
asg3098
(lp6285
S'the'
p6286
asg499
(lp6287
g2642
asg1710
(lp6288
S'real'
p6289
asg286
(lp6290
S'any'
p6291
asg473
(lp6292
S'cases'
p6293
asg341
(lp6294
S'the'
p6295
asg1021
(lp6296
S'the'
p6297
asg453
(lp6298
S'this'
p6299
asg370
(lp6300
g3718
asg280
(lp6301
S'future'
p6302
asg481
(lp6303
S'the'
p6304
asg985
(lp6305
S'BMTC'
p6306
asg638
(lp6307
S'some'
p6308
asg862
(lp6309
S'communications,'
p6310
aS'radio'
p6311
asg2372
(lp6312
g80
asg1593
(lp6313
g4814
asg2514
(lp6314
S'the'
p6315
asg1059
(lp6316
S'mainline:'
p6317
asg4307
(lp6318
S'case'
p6319
asg113
(lp6320
g3422
asg1092
(lp6321
S'the'
p6322
asg3066
(lp6323
S'with'
p6324
asg103
(lp6325
g4047
asg1600
(lp6326
S'figure'
p6327
assS'ready'
p6328
(dp6329
g341
(lp6330
S'to'
p6331
assg3446
(dp6332
g1872
(lp6333
S'is'
p6334
assS'2015,'
p6335
(dp6336
g2535
(lp6337
g5034
asg574
(lp6338
g3889
asg2538
(lp6339
S'IJCSMC'
p6340
asg577
(lp6341
S'pg.'
p6342
asg2541
(lp6343
S'IJCSMC'
p6344
asg583
(lp6345
S'pg.'
p6346
asg580
(lp6347
S'pg.'
p6348
asg2547
(lp6349
S'IJCSMC'
p6350
asg951
(lp6351
g949
asg2550
(lp6352
S'IJCSMC'
p6353
asg2544
(lp6354
S'IJCSMC'
p6355
asg586
(lp6356
S'pg.'
p6357
asg526
(lp6358
S'pg.'
p6359
assS'details.'
p6360
(dp6361
g1549
(lp6362
S'The'
p6363
assg5457
(dp6364
g3020
(lp6365
S'some'
p6366
asg1444
(lp6367
S'it'
p6368
asg1149
(lp6369
S'the'
p6370
asg315
(lp6371
S'they'
p6372
asg2458
(lp6373
g80
assg2772
(dp6374
g2268
(lp6375
S'the'
p6376
asg1279
(lp6377
S'the'
p6378
asg1267
(lp6379
S'the'
p6380
assg298
(dp6381
g296
(lp6382
S'and'
p6383
assS'preservation.'
p6384
(dp6385
S'file3.txt,line.no:53'
p6386
(lp6387
S'[2]'
p6388
assS'paying'
p6389
(dp6390
g1008
(lp6391
S'attention'
p6392
asg1215
(lp6393
S'attention'
p6394
assS'INPUT:'
p6395
(dp6396
g4116
(lp6397
g5528
asg5534
(lp6398
S'Server'
p6399
asg2268
(lp6400
g1433
asg5162
(lp6401
S'email'
p6402
asg2390
(lp6403
g2388
assg331
(dp6404
g329
(lp6405
S'attention.'
p6406
assg439
(dp6407
g437
(lp6408
S'the'
p6409
assg3861
(dp6410
g276
(lp6411
S'to'
p6412
assg909
(dp6413
g907
(lp6414
g5103
assg6291
(dp6415
g43
(lp6416
S'doubt'
p6417
asg286
(lp6418
S'other'
p6419
asg499
(lp6420
g5917
asg432
(lp6421
S'information'
p6422
assS'when'
p6423
(dp6424
g386
(lp6425
g2144
asg1129
(lp6426
S'there'
p6427
asg604
(lp6428
S'the'
p6429
asg367
(lp6430
S'sensors'
p6431
asg1072
(lp6432
S'the'
p6433
asg598
(lp6434
S'the'
p6435
asg825
(lp6436
S'he'
p6437
asg473
(lp6438
S'the'
p6439
asg1008
(lp6440
g3165
asg17
(lp6441
S'the'
p6442
assg5403
(dp6443
g1597
(lp6444
S'there'
p6445
assS'potentially'
p6446
(dp6447
g256
(lp6448
S'used'
p6449
assg5307
(dp6450
g932
(lp6451
S'used'
p6452
assg5531
(dp6453
g4116
(lp6454
g4112
asS'file2.txt,line.no:176'
p6455
(lp6456
S'of'
p6457
assS'alert'
p6458
(dp6459
g1072
(lp6460
S'notification'
p6461
assg5551
(dp6462
g2229
(lp6463
g2227
assS'SOFTWARE'
p6464
(dp6465
S'file2.txt,line.no:1'
p6466
(lp6467
S'DESIGN'
p6468
assS'development'
p6469
(dp6470
g546
(lp6471
S'which'
p6472
asg902
(lp6473
S'and'
p6474
asg63
(lp6475
g221
asg335
(lp6476
S'kit'
p6477
asg1459
(lp6478
S'and'
p6479
assS'Distance'
p6480
(dp6481
g4259
(lp6482
g5434
assg5484
(dp6483
g386
(lp6484
S'to'
p6485
asg33
(lp6486
S'to'
p6487
asg706
(lp6488
S'for'
p6489
asg256
(lp6490
S'by'
p6491
asg2287
(lp6492
S'on'
p6493
asg467
(lp6494
S'to'
p6495
asg470
(lp6496
S'to'
p6497
asg932
(lp6498
g1351
asg1519
(lp6499
S'and'
p6500
asg280
(lp6501
S'in'
p6502
asg1910
(lp6503
S'within'
p6504
asg286
(lp6505
S'in'
p6506
asg335
(lp6507
S'to'
p6508
assS'same'
p6509
(dp6510
g1115
(lp6511
S'data'
p6512
aS'constraints.'
p6513
assS'closest'
p6514
(dp6515
g312
(lp6516
g1765
assS'mountain'
p6517
(dp6518
g566
(lp6519
g562
asg638
(lp6520
g4827
assg5233
(dp6521
g531
(lp6522
g4930
asg534
(lp6523
g4930
assS'driver'
p6524
(dp6525
g211
(lp6526
S'then'
p6527
asg344
(lp6528
S'to'
p6529
aS'selects'
p6530
asg348
(lp6531
S'selects'
p6532
asg2041
(lp6533
S'login'
p6534
assg1166
(dp6535
g1164
(lp6536
S'Monitor();'
p6537
asg1176
(lp6538
S'Socket(string);'
p6539
asg1167
(lp6540
S'Socket();'
p6541
assg6477
(dp6542
g335
(lp6543
S'used'
p6544
assS'viewing'
p6545
(dp6546
g946
(lp6547
S'the'
p6548
assS'(Button'
p6549
(dp6550
g156
(lp6551
g4466
asg162
(lp6552
g4466
assS'portal'
p6553
(dp6554
g5765
(lp6555
S'for'
p6556
asg506
(lp6557
S'for'
p6558
assg2495
(dp6559
g546
(lp6560
g544
asg1860
(lp6561
S'is'
p6562
asg250
(lp6563
S'to'
p6564
asg1233
(lp6565
g5850
aS'can'
p6566
asg256
(lp6567
S'that'
p6568
asg1771
(lp6569
S'is'
p6570
asg2514
(lp6571
g5674
aS'Id'
p6572
asg259
(lp6573
S'to'
p6574
asg1953
(lp6575
S'can'
p6576
asg1651
(lp6577
S'and'
p6578
asg459
(lp6579
S'interface'
p6580
asg272
(lp6581
S'who'
p6582
asg1092
(lp6583
S'must'
p6584
asg1019
(lp6585
S'Id'
p6586
aS'can'
p6587
asg244
(lp6588
S'to'
p6589
asg128
(lp6590
g1355
asg214
(lp6591
g4321
asg1710
(lp6592
S'can'
p6593
asg300
(lp6594
S'to'
p6595
assg2491
(dp6596
g424
(lp6597
S'details'
p6598
asg377
(lp6599
S'accepts'
p6600
asg1549
(lp6601
g6360
asg351
(lp6602
g3039
asg473
(lp6603
g3563
asg4288
(lp6604
S'and'
p6605
asg5625
(lp6606
S'about'
p6607
asg148
(lp6608
S'is'
p6609
asg383
(lp6610
S'has'
p6611
asg2314
(lp6612
S'after'
p6613
asg828
(lp6614
S'and'
p6615
asg790
(lp6616
S'has'
p6617
aS'has'
p6618
asg3098
(lp6619
S'and'
p6620
asg1222
(lp6621
S'and'
p6622
asg1469
(lp6623
S'device'
p6624
asg556
(lp6625
S'project'
p6626
asg329
(lp6627
S'to'
p6628
asg453
(lp6629
S'in'
p6630
asg4259
(lp6631
S'and'
p6632
assS'Activity'
p6633
(dp6634
S'file2.txt,line.no:134'
p6635
(lp6636
S'[6]'
p6637
asg1481
(lp6638
S'fetches'
p6639
assS'Each'
p6640
(dp6641
g68
(lp6642
g5501
assS'4.1'
p6643
(dp6644
g143
(lp6645
S'shows'
p6646
asg1783
(lp6647
g1781
assg4217
(dp6648
g98
(lp6649
S'for'
p6650
assS'Users'
p6651
(dp6652
g73
(lp6653
S'daily'
p6654
assg992
(dp6655
g990
(lp6656
S'on'
p6657
assS'Jindan'
p6658
(dp6659
g867
(lp6660
g3057
asg559
(lp6661
g5249
assS'tracking'
p6662
(dp6663
g256
(lp6664
S'of'
p6665
asg2229
(lp6666
S'using'
p6667
asg569
(lp6668
S'system'
p6669
assS'Figure'
p6670
(dp6671
g1546
(lp6672
S'3:'
p6673
asg1674
(lp6674
g5194
asg1677
(lp6675
g4685
asg4678
(lp6676
S'5:'
p6677
asg4480
(lp6678
g4478
asg143
(lp6679
g6643
asg890
(lp6680
g888
asg1405
(lp6681
S'3.1'
p6682
asg1536
(lp6683
S'1:'
p6684
asg3654
(lp6685
S'1.'
p6686
asg8
(lp6687
S'8.'
p6688
asg3194
(lp6689
g3192
assg2648
(dp6690
g601
(lp6691
S'[9]'
p6692
assg6241
(dp6693
g1444
(lp6694
S'and'
p6695
assg4477
(dp6696
g1724
(lp6697
g1722
assS'uploading'
p6698
(dp6699
g263
(lp6700
S'the'
p6701
asg348
(lp6702
S'of'
p6703
assS'It'
p6704
(dp6705
g351
(lp6706
g5831
asS'file2.txt,line.no:146'
p6707
(lp6708
S'stores'
p6709
asg1019
(lp6710
S'can'
p6711
asg312
(lp6712
S'transmits'
p6713
asg1222
(lp6714
S'will'
p6715
asg481
(lp6716
S'is'
p6717
asg516
(lp6718
g514
assS'manager,'
p6719
(dp6720
g86
(lp6721
g3311
assg761
(dp6722
g43
(lp6723
g2576
assg4630
(dp6724
g272
(lp6725
S'to'
p6726
assg2508
(dp6727
g118
(lp6728
S'on'
p6729
assg4892
(dp6730
g3357
(lp6731
S'Library.'
p6732
assS'client'
p6733
(dp6734
g227
(lp6735
S'to'
p6736
aS'selects'
p6737
asg407
(lp6738
S'to'
p6739
asg462
(lp6740
S'\xe2\x80\x93server'
p6741
asg2048
(lp6742
S'login'
p6743
asg4480
(lp6744
S'application'
p6745
asg593
(lp6746
S'selects'
p6747
asg418
(lp6748
S'has'
p6749
asg1632
(lp6750
S'or'
p6751
asg1089
(lp6752
S'side.'
p6753
asg895
(lp6754
S'selects'
p6755
assS'a)'
p6756
(dp6757
g4259
(lp6758
g6480
assS'components'
p6759
(dp6760
g701
(lp6761
S'in'
p6762
asg315
(lp6763
S'to'
p6764
assg717
(dp6765
g296
(lp6766
S'the'
p6767
asg2175
(lp6768
g2173
assg729
(dp6769
g516
(lp6770
S'of'
p6771
asg118
(lp6772
S'of'
p6773
asg1606
(lp6774
S'is'
p6775
asg3780
(lp6776
S'and'
p6777
assS'the'
p6778
(dp6779
g227
(lp6780
S'spinner'
p6781
aS'client'
p6782
aS'client'
p6783
asg233
(lp6784
S'socket'
p6785
asg236
(lp6786
g5844
asg539
(lp6787
g3918
aS'socket'
p6788
asg162
(lp6789
S'UI'
p6790
asg1267
(lp6791
S'server'
p6792
asg73
(lp6793
g6651
asg2268
(lp6794
g2719
asg63
(lp6795
g5123
asg1895
(lp6796
g5751
asg2253
(lp6797
S'most'
p6798
asg259
(lp6799
S'server'
p6800
aS'other'
p6801
aS'user'
p6802
aS'location'
p6803
aS'bus'
p6804
asg263
(lp6805
S'Driver'
p6806
asg266
(lp6807
S'devices'
p6808
asg269
(lp6809
S'user)'
p6810
asg990
(lp6811
S'implementation'
p6812
asg1405
(lp6813
g1403
aS'Use'
p6814
asg276
(lp6815
S'vehicles'
p6816
ag4433
asg83
(lp6817
g2040
aS'manager'
p6818
asg4083
(lp6819
g5679
asg300
(lp6820
g3740
asg1021
(lp6821
g5179
asg1606
(lp6822
S'mobile'
p6823
asg289
(lp6824
S'college'
p6825
asg414
(lp6826
S'register'
p6827
aS'application.'
p6828
asg1383
(lp6829
S'required'
p6830
aS'needed'
p6831
asg814
(lp6832
S'attention'
p6833
aS'session'
p6834
ag4959
asg293
(lp6835
S'course'
p6836
ag5878
asg1528
(lp6837
g3545
asg296
(lp6838
g3471
ag3995
aS'brainstorming'
p6839
asg1276
(lp6840
g5156
asg1279
(lp6841
S'email'
p6842
asg156
(lp6843
S'UI'
p6844
asg5162
(lp6845
S'student'
p6846
asg1451
(lp6847
g4588
asg1615
(lp6848
S'Student'
p6849
asg17
(lp6850
g5188
asg43
(lp6851
S'project'
p6852
asg696
(lp6853
g3428
asg673
(lp6854
g3710
ag1339
ag671
asg25
(lp6855
S'J2EE'
p6856
asg118
(lp6857
S'possibility'
p6858
aS'position'
p6859
asg1593
(lp6860
g3078
asg1632
(lp6861
S'web'
p6862
aS'mobile'
p6863
asg2458
(lp6864
S'session.'
p6865
asg809
(lp6866
g807
asg833
(lp6867
S'session'
p6868
aS'professor.'
p6869
asg309
(lp6870
S'session.'
p6871
asg312
(lp6872
g6514
asS'file2.txt,line.no:74'
p6873
(lp6874
S'professor.'
p6875
asg785
(lp6876
S'In-'
p6877
asg820
(lp6878
S'system'
p6879
asg319
(lp6880
g5493
asg569
(lp6881
S'tracking'
p6882
asg693
(lp6883
S'market:'
p6884
asg882
(lp6885
S'level'
p6886
asg961
(lp6887
S'smallest'
p6888
aS'software'
p6889
asg551
(lp6890
S'sensor'
p6891
ag1937
asg322
(lp6892
S'attention'
p6893
aS'professor.'
p6894
asg1217
(lp6895
S'message'
p6896
asg828
(lp6897
S'session'
p6898
asg790
(lp6899
S'professor'
p6900
aS'session'
p6901
aS'student'
p6902
asg326
(lp6903
S'sensors.'
p6904
asg2238
(lp6905
g5497
asg2041
(lp6906
S'bus'
p6907
aS'driver'
p6908
asg1469
(lp6909
S'student'
p6910
asg641
(lp6911
g738
asg329
(lp6912
S'student'
p6913
asg247
(lp6914
S'associated'
p6915
ag4904
asg1144
(lp6916
g4875
asg1225
(lp6917
S'required'
p6918
asg3020
(lp6919
S'message'
p6920
aS'required'
p6921
asg358
(lp6922
S'user)'
p6923
asg1910
(lp6924
S'project.'
p6925
asg1597
(lp6926
S'geo-'
p6927
asg1710
(lp6928
S'user'
p6929
asg214
(lp6930
g3181
ag1879
asg341
(lp6931
S'world'
p6932
asg2224
(lp6933
g5070
asg4172
(lp6934
S'bus.'
p6935
asg1478
(lp6936
S'application'
p6937
ag2584
ag3551
aS'server'
p6938
asg344
(lp6939
S'spinner'
p6940
ag6524
aS'driver'
p6941
aS'location'
p6942
asg1149
(lp6943
S'Attention'
p6944
asg946
(lp6945
g4427
ag944
asg351
(lp6946
S'student'
p6947
asg706
(lp6948
g704
asg1436
(lp6949
S'developed'
p6950
asg361
(lp6951
S'report.'
p6952
asg1771
(lp6953
S'user'
p6954
asg364
(lp6955
S'message'
p6956
asg367
(lp6957
S'work'
p6958
asg148
(lp6959
S'student'
p6960
asg373
(lp6961
S'permission'
p6962
asg2596
(lp6963
g4596
asg175
(lp6964
S'session'
p6965
asg377
(lp6966
S'request'
p6967
asg380
(lp6968
S'sensors.'
p6969
asg78
(lp6970
g1731
aS'process'
p6971
asg1215
(lp6972
S'total'
p6973
aS'students'
p6974
asg516
(lp6975
S'victim.'
p6976
ag1314
asg383
(lp6977
S'professor'
p6978
asg389
(lp6979
g2699
asg748
(lp6980
g3296
asg3357
(lp6981
S'Android'
p6982
asg392
(lp6983
S'options'
p6984
asg395
(lp6985
S'instructor'
p6986
asg5510
(lp6987
S'attention'
p6988
aS'attendees.'
p6989
asg3805
(lp6990
S'topic.'
p6991
asg598
(lp6992
S'connection'
p6993
asg401
(lp6994
S'student.'
p6995
asg1192
(lp6996
S'use'
p6997
ag2069
asg11
(lp6998
S'socket'
p6999
aS'event'
p7000
asg604
(lp7001
S'connection'
p7002
asg404
(lp7003
S'sensor'
p7004
aS'recordings.'
p7005
asg407
(lp7006
S'server'
p7007
aS'spinner'
p7008
aS'client'
p7009
asg411
(lp7010
g4020
asg1047
(lp7011
g5522
asg98
(lp7012
S'session'
p7013
asg418
(lp7014
S'bus'
p7015
aS'search'
p7016
asg1072
(lp7017
S'current'
p7018
ag5175
asg421
(lp7019
S'nearest'
p7020
asg138
(lp7021
S'test'
p7022
aS'developed'
p7023
aS'following'
p7024
asg424
(lp7025
S'list'
p7026
ag1424
asg211
(lp7027
S'message'
p7028
ag5904
ag679
asg1549
(lp7029
S'home'
p7030
asg782
(lp7031
S'route'
p7032
aS'list'
p7033
asg429
(lp7034
g5592
asg432
(lp7035
g3275
asg437
(lp7036
S'software'
p7037
asg511
(lp7038
S'intent'
p7039
asg440
(lp7040
S'message'
p7041
asg443
(lp7042
S'system'
p7043
aS'following'
p7044
asg446
(lp7045
S'sensor'
p7046
asg449
(lp7047
S'bus'
p7048
aS'application.'
p7049
asg2048
(lp7050
S'client'
p7051
asg895
(lp7052
S'client'
p7053
aS'location'
p7054
aS'bus'
p7055
aS'map'
p7056
asg593
(lp7057
S'client'
p7058
aS'location'
p7059
aS'bus'
p7060
asg2045
(lp7061
S'flow'
p7062
asg1019
(lp7063
S'user'
p7064
asg817
(lp7065
S'database'
p7066
aS'session'
p7067
asg2005
(lp7068
g2093
aS'users'
p7069
asg1695
(lp7070
S'application'
p7071
asg348
(lp7072
g4553
aS'server.'
p7073
aS'driver'
p7074
ag6698
asg799
(lp7075
S'presence'
p7076
ag1065
asg456
(lp7077
g5947
aS'students'
p7078
asg4242
(lp7079
g5811
asg2287
(lp7080
g2285
asg1802
(lp7081
g1794
asg872
(lp7082
S'devices'
p7083
aS'students'
p7084
asg86
(lp7085
S'window'
p7086
asg6455
(lp7087
S'server'
p7088
asg459
(lp7089
S'instructor'
p7090
asg1444
(lp7091
g5507
asS'file2.txt,line.no:227'
p7092
(lp7093
S'Professor.'
p7094
asg14
(lp7095
g3348
ag3239
asg2314
(lp7096
S'professor'
p7097
aS'system'
p7098
asg1953
(lp7099
S'user'
p7100
asg1651
(lp7101
S'user'
p7102
asg143
(lp7103
g141
ag5943
asg1222
(lp7104
S'connection'
p7105
aS'student'
p7106
asg398
(lp7107
S'students'
p7108
aS'shaking'
p7109
asg546
(lp7110
g4645
asg2221
(lp7111
S'required'
p7112
aS'help'
p7113
asg462
(lp7114
S'tracked'
p7115
aS'client'
p7116
asg33
(lp7117
g1069
aS'bus'
p7118
asg1284
(lp7119
S'details'
p7120
asg332
(lp7121
S'application'
p7122
asg1481
(lp7123
S'application'
p7124
aS'home'
p7125
aS'routes'
p7126
aS'server'
p7127
asg467
(lp7128
S'two'
p7129
aS'devices.'
p7130
asg470
(lp7131
g3486
aS'sensors'
p7132
asg53
(lp7133
g1111
aS'app,'
p7134
aS'camera'
p7135
asg5765
(lp7136
g6553
asg3098
(lp7137
S'connection'
p7138
aS'student'
p7139
aS'form'
p7140
asg473
(lp7141
S'student'
p7142
asg453
(lp7143
S'student'
p7144
asg616
(lp7145
g4614
asg1825
(lp7146
g1823
asg476
(lp7147
S'activities'
p7148
aS'sensor'
p7149
asg93
(lp7150
S'class'
p7151
ag5047
asg6707
(lp7152
S'details'
p7153
aS'student.'
p7154
asg481
(lp7155
S'UI'
p7156
aS'mobile'
p7157
asg484
(lp7158
g3332
asg490
(lp7159
g3601
asg58
(lp7160
g5082
asg1860
(lp7161
S'user'
p7162
asg1233
(lp7163
S'user'
p7164
aS'user'
p7165
asg2514
(lp7166
S'user'
p7167
aS'database.'
p7168
asg1089
(lp7169
S'web'
p7170
asg1115
(lp7171
g6509
asg1092
(lp7172
S'first'
p7173
aS'system.'
p7174
asg502
(lp7175
S'bus'
p7176
aS'location'
p7177
aS'bus'
p7178
asg8
(lp7179
S'Google'
p7180
asg506
(lp7181
S'admin'
p7182
aS'bus'
p7183
aS'stops'
p7184
assg6572
(dp7185
g1019
(lp7186
S'1.'
p7187
asg2514
(lp7188
S'(integer)'
p7189
assg2898
(dp7190
g43
(lp7191
S'any'
p7192
asg344
(lp7193
S'the'
p7194
asg348
(lp7195
S'the'
p7196
asg432
(lp7197
S'admin'
p7198
asg895
(lp7199
S'the'
p7200
asg593
(lp7201
S'the'
p7202
asg1802
(lp7203
S'the'
p7204
assS'OUTPUT:'
p7205
(dp7206
g239
(lp7207
g755
asS'file2.txt,line.no:194'
p7208
(lp7209
S'Void'
p7210
asS'file2.txt,line.no:159'
p7211
(lp7212
S'Void'
p7213
asS'file2.txt,line.no:190'
p7214
(lp7215
S'Void'
p7216
asS'file2.txt,line.no:186'
p7217
(lp7218
S'Void'
p7219
assg6932
(dp7220
g341
(lp7221
g6328
assg6925
(dp7222
g1910
(lp7223
S'Before'
p7224
assg6709
(dp7225
g6707
(lp7226
S'the'
p7227
assS'Receives'
p7228
(dp7229
g1217
(lp7230
S'the'
p7231
asg1215
(lp7232
S'the'
p7233
assS'proposed'
p7234
(dp7235
g985
(lp7236
S'system'
p7237
assS'freeride,'
p7238
(dp7239
g566
(lp7240
S'hicking,'
p7241
assS'buses,'
p7242
(dp7243
g1082
(lp7244
S'bus'
p7245
assS'accurate'
p7246
(dp7247
g2985
(lp7248
g3530
asg521
(lp7249
S'view'
p7250
assS'starting'
p7251
(dp7252
g673
(lp7253
S'the'
p7254
assg1650
(dp7255
g404
(lp7256
S'appropriate'
p7257
asg1047
(lp7258
S'of'
p7259
asg2045
(lp7260
S'of'
p7261
assg5862
(dp7262
g103
(lp7263
S'for'
p7264
assg4472
(dp7265
g153
(lp7266
S'by'
p7267
assg5117
(dp7268
g1082
(lp7269
S'an'
p7270
asg907
(lp7271
g80
asg2224
(lp7272
S'maps'
p7273
assS'stored'
p7274
(dp7275
g2372
(lp7276
S'in'
p7277
assS'identify'
p7278
(dp7279
g499
(lp7280
S'in'
p7281
assS'Inherited'
p7282
(dp7283
g3595
(lp7284
S'From:'
p7285
assg6976
(dp7286
g516
(lp7287
S'It'
p7288
assS'lives.'
p7289
(dp7290
g516
(lp7291
S'The'
p7292
assg2529
(dp7293
g2527
(lp7294
g3509
assg6862
(dp7295
g711
(lp7296
S'based'
p7297
asg1632
(lp7298
g6733
asg1089
(lp7299
S'client'
p7300
asg499
(lp7301
S'page'
p7302
asg1092
(lp7303
S'page'
p7304
asg443
(lp7305
g5555
asg1710
(lp7306
g1708
asg3805
(lp7307
g5416
asg506
(lp7308
S'portal'
p7309
assg536
(dp7310
g531
(lp7311
S'45\xc2\xb0,'
p7312
asg534
(lp7313
g3336
assS'enters'
p7314
(dp7315
g825
(lp7316
S'an'
p7317
assS'restaurants,'
p7318
(dp7319
g253
(lp7320
g1885
assS'Informs'
p7321
(dp7322
g5625
(lp7323
S'student'
p7324
assS'[5]'
p7325
(dp7326
g2635
(lp7327
S'Android'
p7328
assg5298
(dp7329
g276
(lp7330
S'but'
p7331
assg3153
(dp7332
g484
(lp7333
g3722
asg1528
(lp7334
g80
assg6940
(dp7335
g227
(lp7336
S'for'
p7337
asg407
(lp7338
S'for'
p7339
asg344
(lp7340
S'for'
p7341
assg3707
(dp7342
g546
(lp7343
S'development'
p7344
asg1910
(lp7345
S'software'
p7346
assS'Reason'
p7347
(dp7348
g2113
(lp7349
S'for'
p7350
assg6839
(dp7351
g296
(lp7352
g1564
assg6942
(dp7353
g344
(lp7354
S'of'
p7355
asg33
(lp7356
S'of'
p7357
asg895
(lp7358
S'of'
p7359
asg593
(lp7360
S'details'
p7361
asg1072
(lp7362
S'of'
p7363
asg259
(lp7364
S'to'
p7365
aS'of'
p7366
asg86
(lp7367
g6719
asg2229
(lp7368
g6662
asg73
(lp7369
g71
asg250
(lp7370
S'privacy-preserving'
p7371
asg502
(lp7372
S'of'
p7373
assS'easy'
p7374
(dp7375
g484
(lp7376
S'to'
p7377
assg5354
(dp7378
g5352
(lp7379
S'System.'
p7380
assS'save'
p7381
(dp7382
g516
(lp7383
g7289
assg1577
(dp7384
g462
(lp7385
S'time'
p7386
assg6289
(dp7387
g1710
(lp7388
S'time'
p7389
asg395
(lp7390
S'time'
p7391
assS'Both'
p7392
(dp7393
g828
(lp7394
S'student'
p7395
assg5585
(dp7396
g315
(lp7397
S'are'
p7398
assS'Tracking'
p7399
(dp7400
g1254
(lp7401
S'of'
p7402
assg3909
(dp7403
g8
(lp7404
S'all'
p7405
assg3743
(dp7406
g256
(lp7407
S'to'
p7408
assg754
(dp7409
g123
(lp7410
g80
assS'characters'
p7411
(dp7412
g1860
(lp7413
g4657
assg2186
(dp7414
g1690
(lp7415
g1688
assS'showing'
p7416
(dp7417
g1451
(lp7418
S'the'
p7419
asg383
(lp7420
g80
assg5576
(dp7421
g2113
(lp7422
S'and'
p7423
assS'combination'
p7424
(dp7425
g1276
(lp7426
S'and'
p7427
assg5164
(dp7428
g5162
(lp7429
S'password'
p7430
assg4840
(dp7431
g296
(lp7432
g1015
assg1667
(dp7433
g68
(lp7434
g5066
asg462
(lp7435
S'the'
p7436
asg748
(lp7437
S'the'
p7438
asg3357
(lp7439
S'the'
p7440
asg53
(lp7441
S'the'
p7442
asg2229
(lp7443
g3610
asg1115
(lp7444
S'the'
p7445
assS'Requests'
p7446
(dp7447
g309
(lp7448
S'to'
p7449
asg4083
(lp7450
S'the'
p7451
assg4152
(dp7452
g1276
(lp7453
g7424
asg1089
(lp7454
S'must'
p7455
asg5162
(lp7456
S'of'
p7457
assg3690
(dp7458
g440
(lp7459
S'to'
p7460
assS'formal'
p7461
(dp7462
g2238
(lp7463
S'processes'
p7464
assg1358
(dp7465
g128
(lp7466
g126
asg932
(lp7467
S'these'
p7468
asg180
(lp7469
g4994
asg566
(lp7470
g7238
asg293
(lp7471
S'the'
p7472
assg1133
(dp7473
g693
(lp7474
S'is'
p7475
assg6677
(dp7476
g4678
(lp7477
S'Client'
p7478
assS'reconstruct'
p7479
(dp7480
g2435
(lp7481
g80
assg6164
(dp7482
g932
(lp7483
S'that'
p7484
assg861
(dp7485
g312
(lp7486
S'to'
p7487
assS'technology.'
p7488
(dp7489
g462
(lp7490
S'Also'
p7491
assS'53'
p7492
(dp7493
S'file2.txt,line.no:43'
p7494
(lp7495
S'Use'
p7496
assg4122
(dp7497
g407
(lp7498
S'and'
p7499
asg3780
(lp7500
g3778
asg259
(lp7501
S'and'
p7502
asg539
(lp7503
g1265
asg1267
(lp7504
S'address'
p7505
asg214
(lp7506
g4841
asg836
(lp7507
S'ad-'
p7508
asg1600
(lp7509
g4882
assg6284
(dp7510
g5765
(lp7511
S'framework.'
p7512
asg1519
(lp7513
S'socket'
p7514
assS'verifying'
p7515
(dp7516
g706
(lp7517
S'the'
p7518
assS'5.'
p7519
(dp7520
g373
(lp7521
S'Student'
p7522
asg1249
(lp7523
S'private'
p7524
asg377
(lp7525
S'Student'
p7526
assg6053
(dp7527
g490
(lp7528
g2116
asg1105
(lp7529
g80
asg2287
(lp7530
S'be'
p7531
asg493
(lp7532
S'an'
p7533
assS'popular'
p7534
(dp7535
g559
(lp7536
S'mobile'
p7537
assg6741
(dp7538
g462
(lp7539
g7488
assg4281
(dp7540
g1724
(lp7541
g5815
assS'works'
p7542
(dp7543
g4172
(lp7544
S'is'
p7545
assg5366
(dp7546
g990
(lp7547
S'and'
p7548
assg7302
(dp7549
g1549
(lp7550
S'of'
p7551
asg499
(lp7552
S'contains'
p7553
asg1092
(lp7554
S'is'
p7555
assg3489
(dp7556
g2985
(lp7557
S'propose'
p7558
asg470
(lp7559
S'The'
p7560
asg38
(lp7561
S'A.'
p7562
assg7224
(dp7563
g1910
(lp7564
g1898
asg673
(lp7565
g7251
assg7189
(dp7566
g2514
(lp7567
S'and'
p7568
assS'because'
p7569
(dp7570
g641
(lp7571
S'we'
p7572
asg1528
(lp7573
g3150
assg857
(dp7574
g855
(lp7575
S'application'
p7576
assg4167
(dp7577
g516
(lp7578
g7381
assS'IJCSMC,'
p7579
(dp7580
g951
(lp7581
g3585
assg2676
(dp7582
g696
(lp7583
g4625
asg354
(lp7584
S'to'
p7585
asg370
(lp7586
S'in'
p7587
assS'sends'
p7588
(dp7589
g364
(lp7590
S'the'
p7591
assS'Engineering,'
p7592
(dp7593
g113
(lp7594
g6027
assg3873
(dp7595
g296
(lp7596
S'time'
p7597
asg3020
(lp7598
S'of'
p7599
asg638
(lp7600
S'activities.'
p7601
asg1459
(lp7602
g3315
assg977
(dp7603
S'file3.txt,line.no:114'
p7604
(lp7605
S'Testing'
p7606
asg1825
(lp7607
g610
asg814
(lp7608
g610
asg293
(lp7609
g610
asg551
(lp7610
g610
asg329
(lp7611
g610
asg3020
(lp7612
g610
asg338
(lp7613
g610
asg836
(lp7614
g610
asg2458
(lp7615
g610
asg148
(lp7616
g610
asg732
(lp7617
g2779
asg825
(lp7618
g610
asg98
(lp7619
g610
asg296
(lp7620
S'requirements'
p7621
asg383
(lp7622
g610
asg496
(lp7623
g610
asg4303
(lp7624
g610
asg4307
(lp7625
g610
asg809
(lp7626
g610
asg5805
(lp7627
S'Testing'
p7628
asg78
(lp7629
S'testing'
p7630
assg2419
(dp7631
g1345
(lp7632
S'class'
p7633
assg2583
(dp7634
g138
(lp7635
S'the'
p7636
assS'exposes'
p7637
(dp7638
g332
(lp7639
S'system'
p7640
assg2976
(dp7641
g999
(lp7642
g4795
asg289
(lp7643
S'to'
p7644
asg2974
(lp7645
S'for'
p7646
assS'3.4'
p7647
(dp7648
g2665
(lp7649
g5088
assS'3.5'
p7650
(dp7651
g1986
(lp7652
g5604
assS'3.2'
p7653
(dp7654
g2566
(lp7655
g5856
assS'DESC:'
p7656
(dp7657
g4524
(lp7658
S'The'
p7659
asg233
(lp7660
S'Establishes'
p7661
asg4893
(lp7662
S'The'
p7663
asg170
(lp7664
S'The'
p7665
asg611
(lp7666
S'Socket'
p7667
asg1444
(lp7668
g3012
asg14
(lp7669
g5198
asg236
(lp7670
g1433
asg626
(lp7671
S'Socket'
p7672
asg539
(lp7673
S'Verifies'
p7674
asg481
(lp7675
S'It'
p7676
asg6455
(lp7677
S'The'
p7678
asg1129
(lp7679
S'Called'
p7680
asg440
(lp7681
S'Sends'
p7682
asg5625
(lp7683
g7321
asg2660
(lp7684
g2658
asg1149
(lp7685
g1147
asg351
(lp7686
S'It'
p7687
asg3812
(lp7688
g4889
asg367
(lp7689
g6109
asg476
(lp7690
S'This'
p7691
asg93
(lp7692
S'This'
p7693
asg6707
(lp7694
S'It'
p7695
asg1276
(lp7696
S'Verifies'
p7697
asg17
(lp7698
S'Called'
p7699
asg401
(lp7700
S'Asks'
p7701
asg11
(lp7702
g968
assS'3.1'
p7703
(dp7704
g3659
(lp7705
g3657
asg1405
(lp7706
g3377
assg4244
(dp7707
g4242
(lp7708
S'functions'
p7709
assg576
(dp7710
g574
(lp7711
g2181
asg1690
(lp7712
S'Journal'
p7713
asg577
(lp7714
S'Journal'
p7715
asg580
(lp7716
S'Journal'
p7717
asg583
(lp7718
S'Journal'
p7719
asg1336
(lp7720
g2104
asg2195
(lp7721
S'Journal'
p7722
asg586
(lp7723
S'Journal'
p7724
asg526
(lp7725
S'Journal'
p7726
assg2050
(dp7727
g2079
(lp7728
S'of'
p7729
asg2048
(lp7730
S'shows'
p7731
assg4376
(dp7732
g2005
(lp7733
g2915
assg6973
(dp7734
g1215
(lp7735
g3526
assg7115
(dp7736
g462
(lp7737
S'bus'
p7738
assS'for'
p7739
(dp7740
g227
(lp7741
S'the'
p7742
asg407
(lp7743
S'the'
p7744
asg569
(lp7745
S'the'
p7746
asg506
(lp7747
S'the'
p7748
asg418
(lp7749
g80
asg814
(lp7750
S'the'
p7751
asg14
(lp7752
S'the'
p7753
asg2238
(lp7754
g2560
asg244
(lp7755
g80
asg250
(lp7756
g80
asg2113
(lp7757
S'Android'
p7758
asg462
(lp7759
S'the'
p7760
asg2985
(lp7761
S'location'
p7762
asg566
(lp7763
g6517
asg521
(lp7764
S'the'
p7765
asg259
(lp7766
S'the'
p7767
asg263
(lp7768
S'the'
p7769
asg470
(lp7770
S'measuring'
p7771
asg2278
(lp7772
g2737
asg5765
(lp7773
S'application'
p7774
asg180
(lp7775
g4810
asg2021
(lp7776
S'different'
p7777
asg344
(lp7778
S'the'
p7779
asg616
(lp7780
g5396
asg354
(lp7781
S'people'
p7782
asg253
(lp7783
g3675
asg706
(lp7784
g7515
asg593
(lp7785
S'that'
p7786
asg377
(lp7787
S'permission'
p7788
asg556
(lp7789
S'Android'
p7790
asg103
(lp7791
S'Mobile'
p7792
asg2005
(lp7793
S'the'
p7794
ag2001
asg1105
(lp7795
g5153
asg3752
(lp7796
g3750
asg401
(lp7797
g3285
asg1254
(lp7798
S'Location'
p7799
asg2974
(lp7800
S'College'
p7801
asg312
(lp7802
S'example.'
p7803
asg516
(lp7804
S'the'
p7805
asg1192
(lp7806
S'the'
p7807
asg3
(lp7808
S'different'
p7809
assS'Indicates'
p7810
(dp7811
g4307
(lp7812
S'error'
p7813
assg6461
(dp7814
g1072
(lp7815
S'when'
p7816
assg5077
(dp7817
g956
(lp7818
S'it.'
p7819
assg6215
(dp7820
g2514
(lp7821
S'in'
p7822
asg1771
(lp7823
S'and'
p7824
asg817
(lp7825
S'in'
p7826
assS'extensively'
p7827
(dp7828
g1451
(lp7829
g1447
assS'stops'
p7830
(dp7831
g407
(lp7832
S'are'
p7833
asg392
(lp7834
S'are'
p7835
assS'RESEARCH'
p7836
(dp7837
S'file3.txt,line.no:7'
p7838
(lp7839
S'ARTICLE'
p7840
assg5338
(dp7841
g1451
(lp7842
g7416
assg5923
(dp7843
g449
(lp7844
S'and'
p7845
assS'does'
p7846
(dp7847
g1695
(lp7848
g3016
asg1802
(lp7849
S'not'
p7850
assg6310
(dp7851
g862
(lp7852
g1819
assS'innovation'
p7853
(dp7854
g487
(lp7855
S'and'
p7856
assS'Sensors'
p7857
(dp7858
g401
(lp7859
S'from'
p7860
assS'bus\xe2\x80\x99s'
p7861
(dp7862
g259
(lp7863
S'location'
p7864
assS'Description:'
p7865
(dp7866
g446
(lp7867
g3568
asg404
(lp7868
g4514
asg2375
(lp7869
S'The'
p7870
asg616
(lp7871
g1433
asg1953
(lp7872
S'An'
p7873
asg1345
(lp7874
g1889
assg5335
(dp7875
g8
(lp7876
S'on'
p7877
assg5178
(dp7878
g424
(lp7879
S'has'
p7880
asg211
(lp7881
S'can'
p7882
asg392
(lp7883
S'has'
p7884
aS'also'
p7885
asg1072
(lp7886
S'can'
p7887
asg429
(lp7888
S'can'
p7889
assS'measuring'
p7890
(dp7891
g437
(lp7892
g1002
asg470
(lp7893
S'the'
p7894
assg1964
(dp7895
g1865
(lp7896
S'satisfied:'
p7897
asg395
(lp7898
S'able'
p7899
asg817
(lp7900
g3799
asg1222
(lp7901
g5799
asg256
(lp7902
g6446
asg467
(lp7903
S'used'
p7904
asg5765
(lp7905
g5763
asg1519
(lp7906
S'used'
p7907
asg280
(lp7908
S'used'
p7909
asg1710
(lp7910
S'followed'
p7911
asg286
(lp7912
S'used'
p7913
asg985
(lp7914
g4333
asg341
(lp7915
S'download'
p7916
asg272
(lp7917
S'followed'
p7918
aS'register'
p7919
asg348
(lp7920
g2015
asg711
(lp7921
S'available'
p7922
asg895
(lp7923
S'displayed.'
p7924
asg367
(lp7925
g3662
asg1967
(lp7926
S'serious'
p7927
asg748
(lp7928
S'done'
p7929
asg1695
(lp7930
g1693
asg386
(lp7931
S'used'
p7932
asg487
(lp7933
g80
aS'carried'
p7934
asg3357
(lp7935
g5563
asg2372
(lp7936
g7274
asg2287
(lp7937
S'used'
p7938
asg3752
(lp7939
g4358
asg872
(lp7940
S'based'
p7941
asg1860
(lp7942
g5882
asg1632
(lp7943
g1774
asg1719
(lp7944
g1717
asg1089
(lp7945
S'more'
p7946
assg1086
(dp7947
g476
(lp7948
g4971
assg5786
(dp7949
g3629
(lp7950
S'as'
p7951
assg1692
(dp7952
g1690
(lp7953
S'Computer'
p7954
assg60
(dp7955
g58
(lp7956
g3971
assg1642
(dp7957
g1640
(lp7958
S'and'
p7959
asg386
(lp7960
S'when'
p7961
asg817
(lp7962
S'with'
p7963
assg7803
(dp7964
g312
(lp7965
g6704
assS'Extends:'
p7966
(dp7967
g6635
(lp7968
g6633
assS'public:'
p7969
(dp7970
g2021
(lp7971
S'road'
p7972
assS'how'
p7973
(dp7974
g502
(lp7975
g4951
assg5726
(dp7976
g2079
(lp7977
g2050
asg1050
(lp7978
g1045
asg1053
(lp7979
g1045
asg1059
(lp7980
g1045
asg1056
(lp7981
g1045
asg2088
(lp7982
g2211
asg1062
(lp7983
g1045
assg4500
(dp7984
g521
(lp7985
S'them'
p7986
assg4135
(dp7987
g2253
(lp7988
S'on'
p7989
assg4235
(dp7990
g429
(lp7991
S'He'
p7992
assg1888
(dp7993
g253
(lp7994
g3161
assg5137
(dp7995
g153
(lp7996
S'professor'
p7997
asg748
(lp7998
S'using'
p7999
asg2175
(lp8000
g80
asg872
(lp8001
S'the'
p8002
asg398
(lp8003
S'the'
p8004
asg256
(lp8005
S'privacy'
p8006
asg833
(lp8007
S'the'
p8008
asg2596
(lp8009
S'an'
p8010
asg6873
(lp8011
S'the'
p8012
asg985
(lp8013
g2695
asg1144
(lp8014
g1142
assS'Further,'
p8015
(dp8016
g5765
(lp8017
S'the'
p8018
assg4421
(dp8019
g341
(lp8020
S'of'
p8021
assS'Location'
p8022
(dp8023
g1254
(lp8024
g7399
asg33
(lp8025
g31
assg4941
(dp8026
g68
(lp8027
S'their'
p8028
asg2287
(lp8029
S'mobile'
p8030
asg961
(lp8031
S'the'
p8032
asg551
(lp8033
S'our'
p8034
asg2229
(lp8035
S'location'
p8036
asg521
(lp8037
S'their'
p8038
asg2253
(lp8039
S'getting'
p8040
asg1336
(lp8041
g3572
asg1710
(lp8042
g80
asg214
(lp8043
g5819
asg693
(lp8044
S'board'
p8045
asg855
(lp8046
S'its'
p8047
asg895
(lp8048
S'the'
p8049
asg28
(lp8050
S'\xe2\x80\x9dwhere'
p8051
asg2146
(lp8052
S'students\xe2\x80\x99'
p8053
asg1910
(lp8054
g3704
asg63
(lp8055
S'the'
p8056
asg990
(lp8057
g5342
asg108
(lp8058
g2652
asg484
(lp8059
S'the'
p8060
asg118
(lp8061
g5567
asg872
(lp8062
S'the'
p8063
asg1089
(lp8064
S'the'
p8065
asg2596
(lp8066
S'as'
p8067
asg785
(lp8068
S'the'
p8069
asg8
(lp8070
S'Figure'
p8071
assg4365
(dp8072
g73
(lp8073
S'the'
p8074
asg1082
(lp8075
g7242
asg2287
(lp8076
S'the'
p8077
asg3805
(lp8078
S'the'
p8079
asg5625
(lp8080
S'connection'
p8081
assS'paragliding'
p8082
(dp8083
g1967
(lp8084
S'are'
p8085
assg5131
(dp8086
g2435
(lp8087
S'trace.'
p8088
assg6788
(dp8089
g233
(lp8090
S'Server'
p8091
asg386
(lp8092
S'message'
p8093
asg11
(lp8094
S'connection'
p8095
asg2175
(lp8096
S'emit'
p8097
asg467
(lp8098
g2828
asg459
(lp8099
S'connection'
p8100
asg539
(lp8101
S'object.'
p8102
asg1519
(lp8103
S'communication'
p8104
assg633
(dp8105
g631
(lp8106
S'string);'
p8107
assS'\xe2\x80\x9cStart\xe2\x80\x9d,'
p8108
(dp8109
g344
(lp8110
S'the'
p8111
assg4300
(dp8112
g493
(lp8113
S'is'
p8114
assg1707
(dp8115
g882
(lp8116
S'privacy'
p8117
ag880
asg162
(lp8118
S'the'
p8119
asg247
(lp8120
S'the'
p8121
aS'those'
p8122
asg123
(lp8123
g80
asg4129
(lp8124
S'interests.'
p8125
asg256
(lp8126
g80
asg580
(lp8127
S'Computer'
p8128
asg259
(lp8129
S'the'
p8130
asg437
(lp8131
g7890
asg272
(lp8132
S'users.'
p8133
asg1405
(lp8134
S'the'
p8135
asg985
(lp8136
S'it'
p8137
asg1050
(lp8138
S'mainline'
p8139
asg814
(lp8140
S'the'
p8141
asg1528
(lp8142
S'the'
p8143
asg296
(lp8144
S'the'
p8145
aS'application'
p8146
asg63
(lp8147
S'this'
p8148
asg156
(lp8149
S'the'
p8150
asg5162
(lp8151
S'the'
p8152
asg1451
(lp8153
g2812
asg300
(lp8154
S'tracking'
p8155
asg43
(lp8156
g4637
asg673
(lp8157
S'the'
p8158
aS'this'
p8159
asg25
(lp8160
S'the'
p8161
asg118
(lp8162
g80
asg2021
(lp8163
S'applications'
p8164
ag7969
asg78
(lp8165
g2353
ag76
asg516
(lp8166
S'the'
p8167
asg2224
(lp8168
S'the'
p8169
asg785
(lp8170
g2361
asg138
(lp8171
S'the'
p8172
asg511
(lp8173
g4583
asg701
(lp8174
S'components'
p8175
asg569
(lp8176
S'testing'
p8177
asg1439
(lp8178
g5096
asg961
(lp8179
S'the'
p8180
asg2238
(lp8181
g7461
asg1222
(lp8182
S'the'
p8183
asg1469
(lp8184
S'view.'
p8185
asg641
(lp8186
S'creating'
p8187
asg3654
(lp8188
S'Android'
p8189
asg2088
(lp8190
g2077
asg6455
(lp8191
S'the'
p8192
asg3020
(lp8193
S'the'
p8194
asg1053
(lp8195
S'mainline'
p8196
asg1597
(lp8197
S'applications'
p8198
asg214
(lp8199
g80
asg836
(lp8200
S'creation'
p8201
asg1062
(lp8202
S'mainline'
p8203
asg22
(lp8204
S'applications'
p8205
asg2660
(lp8206
S'student'
p8207
asg348
(lp8208
S'location'
p8209
asg946
(lp8210
g6545
asg574
(lp8211
g5642
asg1436
(lp8212
S'the'
p8213
ag3755
aS'modules,'
p8214
asg28
(lp8215
S'this'
p8216
asg2079
(lp8217
S'mainline'
p8218
asg1056
(lp8219
S'mainline'
p8220
asg1215
(lp8221
S'the'
p8222
asg5510
(lp8223
S'the'
p8224
aS'the'
p8225
asg1047
(lp8226
S'actions'
p8227
aS'client.'
p8228
asg4480
(lp8229
S'client'
p8230
asg1383
(lp8231
S'the'
p8232
asg1072
(lp8233
S'the'
p8234
asg424
(lp8235
g5145
asg1549
(lp8236
S'admin.'
p8237
asg782
(lp8238
S'routes'
p8239
asg577
(lp8240
S'Computer'
p8241
asg1674
(lp8242
S'Driver'
p8243
asg895
(lp8244
S'the'
p8245
asg593
(lp8246
S'the'
p8247
asg2045
(lp8248
S'actions'
p8249
aS'driver.'
p8250
asg583
(lp8251
S'Computer'
p8252
asg799
(lp8253
S'an'
p8254
ag80
asg586
(lp8255
S'Computer'
p8256
asg113
(lp8257
g7592
asg48
(lp8258
S'Computer'
p8259
asg2195
(lp8260
S'Computer'
p8261
asg526
(lp8262
S'Computer'
p8263
asg2041
(lp8264
S'the'
p8265
asg2175
(lp8266
g80
asg1651
(lp8267
g5488
asg2221
(lp8268
S'GPS.'
p8269
asg33
(lp8270
S'the'
p8271
asg53
(lp8272
g5537
asg1254
(lp8273
g80
asg6707
(lp8274
S'the'
p8275
asg1105
(lp8276
S'daily'
p8277
asg956
(lp8278
S'mobile'
p8279
asg58
(lp8280
S'the'
p8281
asg1233
(lp8282
S'the'
p8283
asg4307
(lp8284
S'incorrect'
p8285
asg502
(lp8286
S'the'
p8287
assS'Abstract'
p8288
(dp8289
g1082
(lp8290
g4466
assg5570
(dp8291
g118
(lp8292
S'can'
p8293
assg4551
(dp8294
g214
(lp8295
S'to'
p8296
asg377
(lp8297
S'the'
p8298
assS'o'
p8299
(dp8300
g7604
(lp8301
S'System'
p8302
asg5586
(lp8303
S'Integration'
p8304
asg4059
(lp8305
S'Unit'
p8306
assg5603
(dp8307
g370
(lp8308
S'to'
p8309
assS'Issue.3,'
p8310
(dp8311
g574
(lp8312
g916
asg577
(lp8313
S'March-'
p8314
asg580
(lp8315
S'March-'
p8316
asg583
(lp8317
S'March-'
p8318
asg586
(lp8319
S'March-'
p8320
asg526
(lp8321
S'March-'
p8322
assS'tremendous'
p8323
(dp8324
g956
(lp8325
g4354
assS'ISSN:'
p8326
(dp8327
g1690
(lp8328
S'2319-7242'
p8329
assg640
(dp8330
g638
(lp8331
S'in'
p8332
assg6790
(dp8333
g153
(lp8334
S'Event'
p8335
asg1651
(lp8336
S'elements'
p8337
asg162
(lp8338
S'Element'
p8339
asg481
(lp8340
S'elements'
p8341
asg156
(lp8342
S'Element'
p8343
asg1615
(lp8344
g1613
assg2455
(dp8345
g473
(lp8346
S'to'
p8347
assS'applications,'
p8348
(dp8349
g1695
(lp8350
S'there'
p8351
asg335
(lp8352
g2713
assg4050
(dp8353
g103
(lp8354
S'NSDI,'
p8355
assS'UG'
p8356
(dp8357
g113
(lp8358
g3831
assg3274
(dp8359
g180
(lp8360
S'maps'
p8361
assS'or'
p8362
(dp8363
g424
(lp8364
g3204
asg1967
(lp8365
g4853
asg432
(lp8366
S'remove'
p8367
asg392
(lp8368
S'remove'
p8369
asg411
(lp8370
g993
asg935
(lp8371
S'Global'
p8372
asg3752
(lp8373
S'others.'
p8374
asg370
(lp8375
g5600
asg1632
(lp8376
S'from'
p8377
asg266
(lp8378
S'even'
p8379
asg836
(lp8380
S'session'
p8381
assg6166
(dp8382
g83
(lp8383
S'created'
p8384
assg7037
(dp8385
g437
(lp8386
S'precise.'
p8387
asg315
(lp8388
g6759
asg961
(lp8389
g959
asg1910
(lp8390
S'and'
p8391
assg3745
(dp8392
g882
(lp8393
S'with'
p8394
assg7496
(dp8395
g4454
(lp8396
S'Cases'
p8397
asg4339
(lp8398
S'Cases'
p8399
asg7494
(lp8400
S'Cases'
p8401
asg890
(lp8402
S'Case'
p8403
asg1405
(lp8404
S'Cases.'
p8405
asg4654
(lp8406
S'Cases'
p8407
assg7553
(dp8408
g499
(lp8409
S'two'
p8410
assg7911
(dp8411
g1710
(lp8412
S'on'
p8413
asg272
(lp8414
S'needs'
p8415
assg7076
(dp8416
g799
(lp8417
S'of'
p8418
assg2722
(dp8419
g2268
(lp8420
g6023
assg548
(dp8421
g546
(lp8422
g1077
assg5748
(dp8423
g641
(lp8424
S'the'
p8425
asg820
(lp8426
S'the'
p8427
asg341
(lp8428
S'their'
p8429
asg2314
(lp8430
S'the'
p8431
assg6504
(dp8432
g1910
(lp8433
S'the'
p8434
assg658
(dp8435
g656
(lp8436
S'string);'
p8437
assg8040
(dp8438
g2253
(lp8439
S'the'
p8440
assg5818
(dp8441
g1724
(lp8442
S'for'
p8443
assg6119
(dp8444
g4242
(lp8445
S'the'
p8446
assg7257
(dp8447
g404
(lp8448
S'to'
p8449
assg7674
(dp8450
g1276
(lp8451
S'the'
p8452
asg539
(lp8453
g6778
assg318
(dp8454
g315
(lp8455
S'if'
p8456
assg3238
(dp8457
g3236
(lp8458
S'formally.'
p8459
asg1600
(lp8460
S'in'
p8461
assg6306
(dp8462
g985
(lp8463
S'bus'
p8464
assg1488
(dp8465
g1486
(lp8466
S'attentionFlagChanged;'
p8467
asg1377
(lp8468
S'attentionFlag'
p8469
assS'Selects'
p8470
(dp8471
g946
(lp8472
S'the'
p8473
assg164
(dp8474
g4524
(lp8475
g4522
asg956
(lp8476
g954
asg4893
(lp8477
S'Proximity'
p8478
asg170
(lp8479
g168
asg1047
(lp8480
S'below'
p8481
asg459
(lp8482
S'user'
p8483
asg162
(lp8484
g3127
asg398
(lp8485
S'devices'
p8486
asg3654
(lp8487
S'architecture'
p8488
asg6455
(lp8489
S'Address'
p8490
asg1549
(lp8491
S'below'
p8492
asg569
(lp8493
g4806
asg2375
(lp8494
S'sensor'
p8495
asg263
(lp8496
g1680
asg470
(lp8497
S'students'
p8498
asg443
(lp8499
S'application'
p8500
asg283
(lp8501
S'application'
p8502
asg985
(lp8503
g7234
asg1606
(lp8504
S'use'
p8505
asg2041
(lp8506
S'below'
p8507
asg354
(lp8508
S'project'
p8509
asg711
(lp8510
S'application'
p8511
asg2045
(lp8512
S'below'
p8513
asg28
(lp8514
S'concept'
p8515
asg377
(lp8516
S'student'
p8517
asg63
(lp8518
g61
asg156
(lp8519
S'Event'
p8520
asg25
(lp8521
S'concept'
p8522
asg2372
(lp8523
S'sensor'
p8524
asg58
(lp8525
S'mobile'
p8526
asg493
(lp8527
g4396
asg1593
(lp8528
g1589
asg1089
(lp8529
S'password'
p8530
asg499
(lp8531
S'web'
p8532
asg1092
(lp8533
S'user'
p8534
asg3066
(lp8535
S'professor'
p8536
asg785
(lp8537
g778
asg1192
(lp8538
g2330
assg5426
(dp8539
g214
(lp8540
S'For'
p8541
assg2474
(dp8542
g711
(lp8543
S'The'
p8544
assS'market'
p8545
(dp8546
g490
(lp8547
g4820
assg5514
(dp8548
g814
(lp8549
S'of'
p8550
assg5512
(dp8551
g5510
(lp8552
S'of'
p8553
assg6143
(dp8554
g2175
(lp8555
S'by'
p8556
assg1780
(dp8557
g1519
(lp8558
g5015
assg6884
(dp8559
g693
(lp8560
g3289
assg8351
(dp8561
g1597
(lp8562
S'are'
p8563
asg1695
(lp8564
g2300
asg1129
(lp8565
S'is'
p8566
assg7699
(dp8567
g598
(lp8568
S'By:'
p8569
asg604
(lp8570
S'By:'
p8571
asg1129
(lp8572
S'when'
p8573
asg17
(lp8574
g6423
assg4981
(dp8575
g4172
(lp8576
S'and'
p8577
asg263
(lp8578
S'uploading'
p8579
asg153
(lp8580
S'server.'
p8581
assg2683
(dp8582
g138
(lp8583
S'the'
p8584
assg2413
(dp8585
g1651
(lp8586
S'in'
p8587
asg86
(lp8588
S'manager'
p8589
assg4636
(dp8590
g701
(lp8591
S'component'
p8592
assg4085
(dp8593
g133
(lp8594
S'Interfaces'
p8595
asg946
(lp8596
g610
asg1383
(lp8597
g610
asg1284
(lp8598
g610
asg1092
(lp8599
S'login'
p8600
asg4083
(lp8601
g610
assg2443
(dp8602
g1597
(lp8603
S'of'
p8604
asg22
(lp8605
S'of'
p8606
assg5617
(dp8607
g2175
(lp8608
S'and'
p8609
assg610
(dp8610
g98
(lp8611
S'Shows'
p8612
asg1383
(lp8613
S'Enters'
p8614
asg814
(lp8615
S'Displays'
p8616
asg293
(lp8617
S'Displays'
p8618
asg551
(lp8619
g5787
asg1217
(lp8620
g7228
asg4866
(lp8621
S'Professor'
p8622
asg828
(lp8623
g7392
asg608
(lp8624
S'Server'
p8625
asg329
(lp8626
g1307
asg3020
(lp8627
S'Displays'
p8628
asg269
(lp8629
g6087
asg877
(lp8630
g875
asg1225
(lp8631
g5771
asg338
(lp8632
g3185
asg836
(lp8633
S'Displays'
p8634
asg2458
(lp8635
S'Displays'
p8636
asg1825
(lp8637
S'Displays'
p8638
asg946
(lp8639
g8470
asg358
(lp8640
S'Student,'
p8641
asg1771
(lp8642
g2243
asg148
(lp8643
S'Checks'
p8644
asg622
(lp8645
S'Client'
p8646
asg624
(lp8647
S'Server'
p8648
asg373
(lp8649
g3395
asg4869
(lp8650
S'Professor'
p8651
asg825
(lp8652
g2139
asg377
(lp8653
S'The'
p8654
asg634
(lp8655
S'IO.socket-client'
p8656
asg1215
(lp8657
S'Receives'
p8658
asg4083
(lp8659
g7446
asg383
(lp8660
g3101
asg496
(lp8661
S'Prompts'
p8662
asg1284
(lp8663
S'Enter'
p8664
asg4303
(lp8665
S'Displays'
p8666
asg4307
(lp8667
g7810
asg809
(lp8668
S'Displays'
p8669
asg833
(lp8670
g4325
asg309
(lp8671
S'Requests'
p8672
asg3066
(lp8673
S'The'
p8674
asg4864
(lp8675
S'Student'
p8676
asg820
(lp8677
S'Student'
p8678
assS'was'
p8679
(dp8680
g487
(lp8681
g2290
asg1910
(lp8682
g4936
asg63
(lp8683
S'on'
p8684
assg5152
(dp8685
g103
(lp8686
g5859
assg8201
(dp8687
g836
(lp8688
S'or'
p8689
assg7140
(dp8690
g3098
(lp8691
S'of'
p8692
assg4382
(dp8693
g1802
(lp8694
g4518
ag6256
assg5645
(dp8695
g574
(lp8696
S'and'
p8697
asg1690
(lp8698
g8326
asg577
(lp8699
S'and'
p8700
asg580
(lp8701
S'and'
p8702
asg583
(lp8703
S'and'
p8704
asg48
(lp8705
S'and'
p8706
asg2195
(lp8707
S'and'
p8708
asg586
(lp8709
S'and'
p8710
asg526
(lp8711
S'and'
p8712
assg2047
(dp8713
g2045
(lp8714
S'shows'
p8715
assS'procedures.'
p8716
(dp8717
g68
(lp8718
g6640
assg7331
(dp8719
g276
(lp8720
g4489
asg244
(lp8721
S'it'
p8722
asg214
(lp8723
g1743
asg484
(lp8724
g7374
asg1019
(lp8725
S'has'
p8726
assg4385
(dp8727
g266
(lp8728
g3459
asg484
(lp8729
S'but'
p8730
assg2441
(dp8731
g1519
(lp8732
g1777
assg7073
(dp8733
g348
(lp8734
S'If'
p8735
assS'profile'
p8736
(dp8737
g1115
(lp8738
S'using'
p8739
assg565
(dp8740
g476
(lp8741
S'to'
p8742
assg3284
(dp8743
g2751
(lp8744
S'March'
p8745
assg6886
(dp8746
g882
(lp8747
S'of'
p8748
assg1294
(dp8749
g693
(lp8750
g80
asg2005
(lp8751
S'other'
p8752
asg2221
(lp8753
S'the'
p8754
asg33
(lp8755
g8022
asg799
(lp8756
S'the'
p8757
asg456
(lp8758
g3106
asg616
(lp8759
g5695
asg935
(lp8760
S'navigation'
p8761
asg817
(lp8762
S'the'
p8763
asg1593
(lp8764
S'the'
p8765
asg1019
(lp8766
S'the'
p8767
asg1651
(lp8768
S'the'
p8769
asg882
(lp8770
S'different'
p8771
asg1267
(lp8772
g1917
asg296
(lp8773
g974
asg3066
(lp8774
g5018
asg907
(lp8775
g3991
asg511
(lp8776
S'the'
p8777
assg6437
(dp8778
g211
(lp8779
S'can'
p8780
asg825
(lp8781
g7314
asg782
(lp8782
S'can'
p8783
assS'directed'
p8784
(dp8785
g833
(lp8786
S'by'
p8787
assg5698
(dp8788
g616
(lp8789
g1433
assg6162
(dp8790
g1872
(lp8791
S'and'
p8792
assS'places'
p8793
(dp8794
g4129
(lp8795
S'of'
p8796
assS'114'
p8797
(dp8798
g191
(lp8799
S'Object'
p8800
assg8133
(dp8801
g272
(lp8802
S'Any'
p8803
assg6530
(dp8804
g227
(lp8805
g80
asg344
(lp8806
g8108
asg348
(lp8807
g3074
asg895
(lp8808
g3910
asg593
(lp8809
g3548
assg6713
(dp8810
g312
(lp8811
g80
assg5834
(dp8812
g401
(lp8813
g7857
asg499
(lp8814
S'any'
p8815
asg351
(lp8816
S'to'
p8817
assS'\xc2\xa9'
p8818
(dp8819
g2535
(lp8820
g6335
asg2538
(lp8821
S'2015,'
p8822
asg2541
(lp8823
S'2015,'
p8824
asg2544
(lp8825
S'2015,'
p8826
asg2547
(lp8827
S'2015,'
p8828
asg2550
(lp8829
S'2015,'
p8830
assg6808
(dp8831
g266
(lp8832
g4373
asg398
(lp8833
g3440
asg872
(lp8834
g3617
asg3098
(lp8835
S'in'
p8836
assS'nearest'
p8837
(dp8838
g253
(lp8839
S'establishment'
p8840
asg421
(lp8841
S'stop.'
p8842
assg8507
(dp8843
g2045
(lp8844
S'figure'
p8845
asg1047
(lp8846
S'figure'
p8847
asg1549
(lp8848
S'figure'
p8849
asg2041
(lp8850
g2037
asg2048
(lp8851
S'figure'
p8852
assg7134
(dp8853
g53
(lp8854
S'we'
p8855
assS'those'
p8856
(dp8857
g566
(lp8858
g3501
asg1967
(lp8859
S'where'
p8860
asg247
(lp8861
g3936
assg5295
(dp8862
g961
(lp8863
g1850
assg4958
(dp8864
g493
(lp8865
S'The'
p8866
assg2460
(dp8867
g2458
(lp8868
S'is'
p8869
assg3515
(dp8870
g574
(lp8871
g8310
asg577
(lp8872
S'Issue.3,'
p8873
asg580
(lp8874
S'Issue.3,'
p8875
asg583
(lp8876
S'Issue.3,'
p8877
asg586
(lp8878
S'Issue.3,'
p8879
asg526
(lp8880
S'Issue.3,'
p8881
assg1959
(dp8882
g456
(lp8883
g4691
asg2221
(lp8884
S'the'
p8885
assS'3.3'
p8886
(dp8887
g3402
(lp8888
S'U3:'
p8889
assg6753
(dp8890
g1089
(lp8891
S'The'
p8892
assg6000
(dp8893
g956
(lp8894
g8323
assg6816
(dp8895
g276
(lp8896
S'that'
p8897
assg6915
(dp8898
g247
(lp8899
g4673
assg7701
(dp8900
g401
(lp8901
S'for'
p8902
assg3851
(dp8903
g559
(lp8904
g7534
assg4028
(dp8905
g296
(lp8906
g5091
asg902
(lp8907
S'requirements'
p8908
asg300
(lp8909
g80
assg6967
(dp8910
g377
(lp8911
S'for'
p8912
assg400
(dp8913
g398
(lp8914
S'the'
p8915
assS'c)'
p8916
(dp8917
g534
(lp8918
g529
assg8010
(dp8919
g2113
(lp8920
S'open'
p8921
asg1082
(lp8922
S'Android'
p8923
asg799
(lp8924
g1311
asg2985
(lp8925
g7246
asg453
(lp8926
S'underlying'
p8927
asg1825
(lp8928
S'error'
p8929
asg1072
(lp8930
g6458
asg493
(lp8931
g4955
asg999
(lp8932
g1026
asg825
(lp8933
S'error'
p8934
aS'incorrect'
p8935
asg2596
(lp8936
S'avalanche'
p8937
asg250
(lp8938
g3344
asg511
(lp8939
g1430
asg289
(lp8940
S'Android'
p8941
assg5239
(dp8942
g1865
(lp8943
g3481
assg271
(dp8944
g2113
(lp8945
g4342
aS'bus'
p8946
asg1695
(lp8947
S'intended'
p8948
asg569
(lp8949
S'below:'
p8950
asg33
(lp8951
S'well'
p8952
ag2053
asg358
(lp8953
S'the'
p8954
asg935
(lp8955
S'GPS'
p8956
asg2238
(lp8957
S'is'
p8958
asg1719
(lp8959
g5430
asg269
(lp8960
S'the'
p8961
asg253
(lp8962
g7318
asg1115
(lp8963
S'above'
p8964
asg833
(lp8965
g8784
asg2596
(lp8966
g2691
aS'the'
p8967
asg247
(lp8968
S'well'
p8969
aS'to'
p8970
asg3629
(lp8971
S'one'
p8972
asg1008
(lp8973
g6389
assg4128
(dp8974
g123
(lp8975
S'of'
p8976
assg3607
(dp8977
g701
(lp8978
g80
assg1007
(dp8979
g862
(lp8980
g2927
asg266
(lp8981
g3084
asg4602
(lp8982
S'www.ijcsmc.com'
p8983
asg790
(lp8984
g3672
assS'climbing,'
p8985
(dp8986
g1967
(lp8987
g8082
assg5014
(dp8988
g902
(lp8989
S'case'
p8990
aS'development'
p8991
asg280
(lp8992
S'daily'
p8993
asg551
(lp8994
g549
assS'corresponding'
p8995
(dp8996
g407
(lp8997
S'stops'
p8998
asg392
(lp8999
g7830
assg7916
(dp9000
g341
(lp9001
S'into'
p9002
assS'orientation,'
p9003
(dp9004
g748
(lp9005
S'this'
p9006
assg8935
(dp9007
g825
(lp9008
S'session'
p9009
asg4307
(lp9010
S'and/or'
p9011
assg4641
(dp9012
g25
(lp9013
S'The'
p9014
assg7709
(dp9015
g4242
(lp9016
S'redundant.'
p9017
assg571
(dp9018
g569
(lp9019
S'for'
p9020
assg708
(dp9021
g706
(lp9022
S'and'
p9023
assg6229
(dp9024
g828
(lp9025
S'by'
p9026
assS'4.3'
p9027
(dp9028
g3374
(lp9029
S'Class'
p9030
assS'4.2'
p9031
(dp9032
g3371
(lp9033
g3369
assg5224
(dp9034
g999
(lp9035
g2024
assS'42'
p9036
(dp9037
g5666
(lp9038
g5662
assg3849
(dp9039
g332
(lp9040
g7637
assg8889
(dp9041
g3402
(lp9042
S'Join'
p9043
assS'4.'
p9044
(dp9045
g1486
(lp9046
S'private'
p9047
asg1825
(lp9048
S'System'
p9049
asg814
(lp9050
S'System'
p9051
asg4303
(lp9052
S'System'
p9053
asg3020
(lp9054
S'System'
p9055
asg825
(lp9056
S'System'
p9057
asg662
(lp9058
S'public'
p9059
asg4307
(lp9060
S'System'
p9061
asg1179
(lp9062
S'public'
p9063
asg98
(lp9064
S'System'
p9065
asg836
(lp9066
S'System'
p9067
asg2458
(lp9068
S'System'
p9069
assS'application'
p9070
(dp9071
g1478
(lp9072
S'is'
p9073
asg1082
(lp9074
S'that'
p9075
asg1695
(lp9076
g7846
asg855
(lp9077
S'on'
p9078
asg711
(lp9079
S'is'
p9080
asg1481
(lp9081
S'is'
p9082
asg1632
(lp9083
g4661
asg443
(lp9084
S'will'
p9085
asg5765
(lp9086
S'will'
p9087
asg1459
(lp9088
g6469
asg296
(lp9089
S'we'
p9090
asg481
(lp9091
S'running'
p9092
asg283
(lp9093
S'will'
p9094
asg556
(lp9095
g7739
asg332
(lp9096
g3000
assg3588
(dp9097
g951
(lp9098
g5796
assg6801
(dp9099
g259
(lp9100
S'for'
p9101
asg4129
(lp9102
g8793
asg286
(lp9103
g3146
assg1025
(dp9104
g3
(lp9105
S'can'
p9106
assS'details'
p9107
(dp9108
g424
(lp9109
S'and'
p9110
asg1825
(lp9111
S'are'
p9112
asg782
(lp9113
S'and'
p9114
asg593
(lp9115
S'of'
p9116
asg1383
(lp9117
S'of'
p9118
asg293
(lp9119
S'like'
p9120
asg1284
(lp9121
g1282
asg817
(lp9122
S'which'
p9123
asg6707
(lp9124
S'of'
p9125
asg128
(lp9126
S'that'
p9127
assg6849
(dp9128
g373
(lp9129
g610
asg1182
(lp9130
S'stud;'
p9131
asg377
(lp9132
g610
asg833
(lp9133
g610
asg309
(lp9134
g610
asg820
(lp9135
S'is'
p9136
asg1615
(lp9137
S'class.'
p9138
assg4148
(dp9139
g68
(lp9140
g8716
asg961
(lp9141
g5292
asg1459
(lp9142
S'we'
p9143
asg315
(lp9144
g793
asg138
(lp9145
g683
asg511
(lp9146
S'case'
p9147
assg7241
(dp9148
g566
(lp9149
g8856
assg4970
(dp9150
g83
(lp9151
S'the'
p9152
asg3
(lp9153
g3952
assg7285
(dp9154
g3595
(lp9155
g3593
assg8403
(dp9156
g890
(lp9157
S'Diagram'
p9158
assg8337
(dp9159
g481
(lp9160
S'present'
p9161
asg1651
(lp9162
S'are'
p9163
assg7069
(dp9164
g2005
(lp9165
g2878
assg4878
(dp9166
g1144
(lp9167
g4824
assg7078
(dp9168
g459
(lp9169
S'to'
p9170
asg456
(lp9171
S'along'
p9172
asg872
(lp9173
S'will'
p9174
asg398
(lp9175
S'need'
p9176
asg470
(lp9177
S'might'
p9178
asg1469
(lp9179
g5729
asg1215
(lp9180
S'paying'
p9181
assg7633
(dp9182
g1345
(lp9183
S'that'
p9184
asg616
(lp9185
S'for'
p9186
asg93
(lp9187
S'that'
p9188
asg338
(lp9189
S'details.'
p9190
asg1825
(lp9191
S'details'
p9192
assg2068
(dp9193
g398
(lp9194
S'and'
p9195
assg388
(dp9196
g386
(lp9197
S'this'
p9198
assg8339
(dp9199
g156
(lp9200
S'(Button'
p9201
asg162
(lp9202
g6549
assg5750
(dp9203
g828
(lp9204
S'the'
p9205
assg9011
(dp9206
g4307
(lp9207
S'empty'
p9208
assg7039
(dp9209
g511
(lp9210
S'of'
p9211
assg5938
(dp9212
g38
(lp9213
g2232
assS'wirelessly'
p9214
(dp9215
g862
(lp9216
S'at'
p9217
assg8662
(dp9218
g496
(lp9219
S'to'
p9220
assg3320
(dp9221
g296
(lp9222
S'some'
p9223
asg1383
(lp9224
S'class.'
p9225
asg1459
(lp9226
g1457
assg6157
(dp9227
g3654
(lp9228
S'in'
p9229
assg4179
(dp9230
g551
(lp9231
S'the'
p9232
assg953
(dp9233
g951
(lp9234
S'507'
p9235
asg3498
(lp9236
g5003
assg3533
(dp9237
g2985
(lp9238
S'for'
p9239
assg4276
(dp9240
g2113
(lp9241
g7347
assg5476
(dp9242
g799
(lp9243
S'the'
p9244
asg266
(lp9245
S'the'
p9246
asg872
(lp9247
S'that'
p9248
assg4576
(dp9249
g421
(lp9250
S'to'
p9251
assg8478
(dp9252
g4893
(lp9253
S'Sensor'
p9254
assg7112
(dp9255
g3020
(lp9256
S'information'
p9257
asg1225
(lp9258
S'values.'
p9259
asg1383
(lp9260
S'details'
p9261
asg2221
(lp9262
g2216
assg5985
(dp9263
g902
(lp9264
S'defined'
p9265
assg8993
(dp9266
g73
(lp9267
g2649
asg280
(lp9268
g2028
assg7873
(dp9269
g1953
(lp9270
S'activity'
p9271
asg332
(lp9272
S'application'
p9273
assg1839
(dp9274
g1837
(lp9275
S'Interfaces'
p9276
assg5206
(dp9277
g1021
(lp9278
S'vs'
p9279
assS'As'
p9280
(dp9281
g1597
(lp9282
g5400
asg932
(lp9283
S'Android'
p9284
assg8669
(dp9285
g1825
(lp9286
S'an'
p9287
asg814
(lp9288
S'the'
p9289
asg293
(lp9290
g80
asg3020
(lp9291
S'the'
p9292
asg4303
(lp9293
S'Login'
p9294
asg809
(lp9295
g80
asg836
(lp9296
g4759
asg2458
(lp9297
g5384
assg7597
(dp9298
g296
(lp9299
S'to'
p9300
asg502
(lp9301
S'the'
p9302
asg1710
(lp9303
S'mode.'
p9304
asg395
(lp9305
S'statistics'
p9306
asg462
(lp9307
S'for'
p9308
assg7927
(dp9309
g1967
(lp9310
S'or'
p9311
assg5208
(dp9312
g1967
(lp9313
S'can'
p9314
assg5345
(dp9315
g2113
(lp9316
S'an'
p9317
assg6888
(dp9318
g961
(lp9319
g6260
ass.