(dp0
S'represent'
p1
(dp2
S'file4.txt,line.no:37'
p3
I1
ssS'all'
p4
(dp5
S'file3.txt,line.no:155'
p6
I1
sS'file3.txt,line.no:106'
p7
I1
sS'file3.txt,line.no:33'
p8
I1
sS'file3.txt,line.no:78'
p9
I1
sS'file2.txt,line.no:222'
p10
I1
sS'file3.txt,line.no:94'
p11
I1
sS'file2.txt,line.no:41'
p12
I1
sS'file2.txt,line.no:183'
p13
I1
sS'file3.txt,line.no:133'
p14
I1
sS'file4.txt,line.no:42'
p15
I1
sS'file3.txt,line.no:141'
p16
I1
sS'file2.txt,line.no:160'
p17
I1
ssS'concept'
p18
(dp19
S'file4.txt,line.no:16'
p20
I1
sS'file4.txt,line.no:3'
p21
I1
sS'file4.txt,line.no:19'
p22
I1
ssS'aids'
p23
(dp24
S'file3.txt,line.no:36'
p25
I1
ssS'forbidden'
p26
(dp27
S'file2.txt,line.no:26'
p28
I1
ssS'global'
p29
(dp30
S'file3.txt,line.no:35'
p31
I1
ssS'people'
p32
(dp33
S'file4.txt,line.no:12'
p34
I1
sS'file4.txt,line.no:10'
p35
I1
sS'file4.txt,line.no:18'
p36
I1
ssS'focus'
p37
(dp38
S'file3.txt,line.no:55'
p39
I1
ssS'tested'
p40
(dp41
S'file3.txt,line.no:117'
p42
I1
sS'file3.txt,line.no:116'
p43
I1
ssS'extends'
p44
(dp45
S'file2.txt,line.no:134'
p46
I1
ssS'indicates'
p47
(dp48
S'file2.txt,line.no:55'
p49
I1
ssS'executing'
p50
(dp51
S'file3.txt,line.no:123'
p52
I1
ssS'avalanche'
p53
(dp54
S'file4.txt,line.no:30'
p55
I1
ssS'manages'
p56
(dp57
S'file2.txt,line.no:206'
p58
I1
sS'file2.txt,line.no:143'
p59
I1
ssS'acknowledging'
p60
(dp61
S'file2.txt,line.no:80'
p62
I1
ssS'follow'
p63
(dp64
S'file4.txt,line.no:8'
p65
I1
ssS'displaying'
p66
(dp67
S'file3.txt,line.no:60'
p68
I1
ssS'issues'
p69
(dp70
S'file3.txt,line.no:127'
p71
I1
ssS'relationships'
p72
(dp73
S'file2.txt,line.no:131'
p74
I1
ssS'attentive'
p75
(dp76
S'file2.txt,line.no:100'
p77
I1
ssS'later'
p78
(dp79
S'file2.txt,line.no:4'
p80
I1
ssS'clarification'
p81
(dp82
S'file3.txt,line.no:58'
p83
I1
ssS'classesobjects'
p84
(dp85
g74
I1
ssS're'
p86
(dp87
S'file2.txt,line.no:85'
p88
I1
ssS'(for'
p89
(dp90
S'file4.txt,line.no:27'
p91
I1
ssS'description'
p92
(dp93
S'file2.txt,line.no:233'
p94
I1
sg58
I1
sS'file2.txt,line.no:197'
p95
I1
sS'file2.txt,line.no:238'
p96
I1
sS'file2.txt,line.no:135'
p97
I1
sS'file2.txt,line.no:170'
p98
I1
ssS'location\xe2\x80\x9d'
p99
(dp100
S'file3.txt,line.no:90'
p101
I1
ssS'\xe2\x80\x9dwhere'
p102
(dp103
S'file4.txt,line.no:20'
p104
I1
sg22
I1
ssS'tomtom'
p105
(dp106
S'file4.txt,line.no:33'
p107
I1
ssS'created'
p108
(dp109
S'file4.txt,line.no:44'
p110
I1
sg17
I1
ssS'environment'
p111
(dp112
g39
I1
sS'file3.txt,line.no:151'
p113
I1
ssS'to'
p114
(dp115
S'file3.txt,line.no:88'
p116
I2
sS'file2.txt,line.no:248'
p117
I1
sS'file2.txt,line.no:249'
p118
I1
sS'file2.txt,line.no:245'
p119
I1
sS'file2.txt,line.no:153'
p120
I1
sS'file3.txt,line.no:44'
p121
I1
sS'file3.txt,line.no:45'
p122
I1
sS'file3.txt,line.no:46'
p123
I1
sS'file3.txt,line.no:47'
p124
I1
sS'file3.txt,line.no:38'
p125
I1
sS'file3.txt,line.no:31'
p126
I1
sS'file3.txt,line.no:139'
p127
I2
sS'file3.txt,line.no:138'
p128
I1
sg12
I1
sS'file2.txt,line.no:47'
p129
I1
sS'file4.txt,line.no:48'
p130
I2
sS'file3.txt,line.no:131'
p131
I2
sS'file3.txt,line.no:130'
p132
I1
sS'file4.txt,line.no:47'
p133
I1
sS'file3.txt,line.no:132'
p134
I1
sS'file3.txt,line.no:136'
p135
I2
sS'file2.txt,line.no:110'
p136
I1
sS'file3.txt,line.no:57'
p137
I2
sS'file3.txt,line.no:50'
p138
I1
sS'file4.txt,line.no:5'
p139
I1
sg104
I4
sg65
I1
sS'file2.txt,line.no:76'
p140
I1
sS'file4.txt,line.no:31'
p141
I1
sS'file3.txt,line.no:120'
p142
I2
sS'file2.txt,line.no:70'
p143
I1
sS'file2.txt,line.no:96'
p144
I2
sS'file2.txt,line.no:93'
p145
I1
sS'file2.txt,line.no:98'
p146
I1
sS'file3.txt,line.no:67'
p147
I1
sS'file3.txt,line.no:65'
p148
I1
sS'file2.txt,line.no:62'
p149
I1
sS'file4.txt,line.no:25'
p150
I1
sS'file3.txt,line.no:102'
p151
I2
sS'file3.txt,line.no:103'
p152
I1
sg34
I1
sS'file2.txt,line.no:210'
p153
I1
sg35
I2
sS'file2.txt,line.no:105'
p154
I1
sS'file2.txt,line.no:107'
p155
I1
sS'file2.txt,line.no:101'
p156
I1
sS'file2.txt,line.no:218'
p157
I1
sg36
I1
sS'file2.txt,line.no:87'
p158
I1
sg88
I1
sS'file2.txt,line.no:82'
p159
I1
sS'file2.txt,line.no:81'
p160
I1
sS'file2.txt,line.no:88'
p161
I1
sS'file2.txt,line.no:18'
p162
I1
sS'file2.txt,line.no:19'
p163
I1
sS'file3.txt,line.no:72'
p164
I1
sS'file2.txt,line.no:10'
p165
I1
sS'file2.txt,line.no:13'
p166
I1
sS'file2.txt,line.no:187'
p167
I1
sg58
I1
sS'file3.txt,line.no:89'
p168
I2
sS'file2.txt,line.no:116'
p169
I1
sS'file3.txt,line.no:83'
p170
I3
sS'file3.txt,line.no:84'
p171
I1
sS'file3.txt,line.no:86'
p172
I1
sS'file3.txt,line.no:75'
p173
I1
sS'file3.txt,line.no:74'
p174
I1
sS'file3.txt,line.no:70'
p175
I1
sS'file3.txt,line.no:73'
p176
I3
sS'file2.txt,line.no:42'
p177
I1
sS'file2.txt,line.no:195'
p178
I1
sS'file4.txt,line.no:49'
p179
I1
sg94
I1
sS'file3.txt,line.no:99'
p180
I2
sS'file2.txt,line.no:239'
p181
I1
sS'file2.txt,line.no:33'
p182
I1
sS'file2.txt,line.no:9'
p183
I1
sS'file3.txt,line.no:15'
p184
I1
sS'file3.txt,line.no:14'
p185
I1
sS'file2.txt,line.no:24'
p186
I1
sS'file2.txt,line.no:27'
p187
I1
sS'file2.txt,line.no:29'
p188
I1
sS'file2.txt,line.no:141'
p189
I1
sg59
I1
sS'file2.txt,line.no:148'
p190
I1
sS'file3.txt,line.no:28'
p191
I1
sS'file3.txt,line.no:26'
p192
I1
sS'file3.txt,line.no:22'
p193
I1
sS'file3.txt,line.no:21'
p194
I1
sS'file2.txt,line.no:51'
p195
I1
sS'file4.txt,line.no:56'
p196
I1
sS'file3.txt,line.no:140'
p197
I2
sS'file3.txt,line.no:142'
p198
I1
ssS'program'
p199
(dp200
S'file3.txt,line.no:121'
p201
I1
sS'file3.txt,line.no:124'
p202
I1
ssS'indicate'
p203
(dp204
g141
I1
ssS'helps'
p205
(dp206
S'file4.txt,line.no:32'
p207
I1
ssS'fatal'
p208
(dp209
S'file4.txt,line.no:7'
p210
I1
ssS'listeners'
p211
(dp212
g13
I1
sg10
I1
ssS'resources'
p213
(dp214
S'file2.txt,line.no:37'
p215
I1
ssS'carried'
p216
(dp217
g192
I1
sg166
I1
ssS'uploaded'
p218
(dp219
g152
I1
ssS'activities'
p220
(dp221
g189
I1
sg132
I1
sS'file4.txt,line.no:29'
p222
I1
sS'file4.txt,line.no:6'
p223
I1
sS'file3.txt,line.no:111'
p224
I1
ssS'user\xe2\x80\x9d'
p225
(dp226
S'file3.txt,line.no:149'
p227
I1
ssS'stud'
p228
(dp229
S'file2.txt,line.no:167'
p230
I1
sS'file2.txt,line.no:145'
p231
I1
ssS'very'
p232
(dp233
g223
I1
sS'file3.txt,line.no:61'
p234
I1
ssS'dynamic'
p235
(dp236
S'file3.txt,line.no:20'
p237
I1
ssS'void'
p238
(dp239
S'file2.txt,line.no:235'
p240
I1
sS'file2.txt,line.no:224'
p241
I1
sS'file2.txt,line.no:188'
p242
I1
sS'file2.txt,line.no:184'
p243
I1
sS'file2.txt,line.no:194'
p244
I1
sS'file2.txt,line.no:186'
p245
I1
sS'file2.txt,line.no:192'
p246
I1
sS'file2.txt,line.no:157'
p247
I1
sS'file2.txt,line.no:190'
p248
I1
sS'file2.txt,line.no:159'
p249
I1
sS'file2.txt,line.no:162'
p250
I1
ssS'midlet'
p251
(dp252
S'file4.txt,line.no:1'
p253
I1
ssS'results'
p254
(dp255
g71
I1
ssS'sensormanager'
p256
(dp257
S'file2.txt,line.no:209'
p258
I1
ssS'every'
p259
(dp260
S'file4.txt,line.no:17'
p261
I1
sg34
I1
sg150
I1
sg43
I2
ssS'decide'
p262
(dp263
g137
I1
ssS'socket-client'
p264
(dp265
g98
I1
ssS'exact'
p266
(dp267
g207
I1
ssS'adaptive'
p268
(dp269
g124
I1
sS'file3.txt,line.no:148'
p270
I1
ssS'minute'
p271
(dp272
g177
I1
ssS'entire'
p273
(dp274
g234
I1
ssS'accelgravitydata[3]'
p275
(dp276
S'file2.txt,line.no:199'
p277
I1
ssS'scholar'
p278
(dp279
S'file3.txt,line.no:9'
p280
I1
ssS'[9]'
p281
(dp282
g94
I1
sS'file2.txt,line.no:225'
p283
I1
sS'file2.txt,line.no:236'
p284
I1
sg277
I1
ssS'presented'
p285
(dp286
S'file4.txt,line.no:4'
p287
I1
sg135
I1
ssS'sensor'
p288
(dp289
g58
I1
sg94
I1
sS'file2.txt,line.no:202'
p290
I1
sg284
I1
sS'file2.txt,line.no:212'
p291
I1
sS'file2.txt,line.no:15'
p292
I2
sS'file2.txt,line.no:17'
p293
I1
sg77
I1
sg10
I1
sg189
I1
sS'file2.txt,line.no:95'
p294
I1
sg95
I1
ssS'f'
p295
(dp296
S'file2.txt,line.no:230'
p297
I1
ssS'list'
p298
(dp299
g173
I1
sS'file3.txt,line.no:71'
p300
I1
sS'file4.txt,line.no:34'
p301
I1
ssS'manager'
p302
(dp303
g292
I1
sS'file3.txt,line.no:68'
p304
I2
sg10
I1
sg110
I1
ssS'map\xe2\x80\x9d'
p305
(dp306
S'file3.txt,line.no:91'
p307
I1
ssS'large'
p308
(dp309
S'file2.txt,line.no:32'
p310
I1
ssS'these'
p311
(dp312
g131
I1
sg132
I1
sS'file3.txt,line.no:129'
p313
I1
ssS'registers'
p314
(dp315
g13
I1
sg10
I1
ssS'form'
p316
(dp317
S'file2.txt,line.no:22'
p318
I1
ssS'car'
p319
(dp320
g261
I1
ssS'small'
p321
(dp322
S'file4.txt,line.no:13'
p323
I1
ssS'\xe2\x80\x9cget'
p324
(dp325
g101
I1
ssS'2320\xe2\x80\x93088x'
p326
(dp327
S'file3.txt,line.no:5'
p328
I1
ssS'5application'
p329
(dp330
S'file4.txt,line.no:41'
p331
I1
ssS'clients'
p332
(dp333
g96
I1
ssS'slower'
p334
(dp335
S'file3.txt,line.no:63'
p336
I1
ssS'portable'
p337
(dp338
g107
I1
sg35
I1
ssS'phones'
p339
(dp340
g31
I1
sg313
I1
sS'file2.txt,line.no:36'
p341
I1
sg191
I1
ssS'homeactivity'
p342
(dp343
S'file3.txt,line.no:101'
p344
I1
ssS'past'
p345
(dp346
S'file2.txt,line.no:104'
p347
I1
sS'file2.txt,line.no:109'
p348
I1
ssS'many'
p349
(dp350
S'file3.txt,line.no:42'
p351
I1
ssS'invention'
p352
(dp353
S'file3.txt,line.no:25'
p354
I1
ssS'design'
p355
(dp356
S'file2.txt,line.no:25'
p357
I1
sS'file2.txt,line.no:6'
p358
I1
sS'file2.txt,line.no:40'
p359
I1
sS'file2.txt,line.no:1'
p360
I1
sS'file3.txt,line.no:118'
p361
I1
ssS'displays'
p362
(dp363
S'file2.txt,line.no:115'
p364
I1
sS'file2.txt,line.no:113'
p365
I1
sg136
I1
sS'file2.txt,line.no:69'
p366
I1
sg144
I1
sS'file2.txt,line.no:53'
p367
I1
sg143
I1
sS'file2.txt,line.no:78'
p368
I1
sS'file2.txt,line.no:64'
p369
I1
sS'file2.txt,line.no:67'
p370
I1
ssS'download'
p371
(dp372
g150
I1
ssS'further'
p373
(dp374
S'file3.txt,line.no:135'
p375
I1
sS'file2.txt,line.no:20'
p376
I1
ssS'traced'
p377
(dp378
S'file4.txt,line.no:11'
p379
I1
ssS'implemented'
p380
(dp381
S'file3.txt,line.no:51'
p382
I1
ssS'even'
p383
(dp384
g177
I1
sg12
I1
sS'file2.txt,line.no:28'
p385
I1
ssS'established'
p386
(dp387
S'file2.txt,line.no:185'
p388
I1
ssS'what'
p389
(dp390
g137
I1
sS'file4.txt,line.no:45'
p391
I1
sg331
I1
sg3
I1
ssS'consumers'
p392
(dp393
g193
I1
ssS'chicago'
p394
(dp395
S'file3.txt,line.no:153'
p396
I1
ssS'exactly'
p397
(dp398
g391
I1
ssS'while'
p399
(dp400
g370
I1
ssS'23-27'
p401
(dp402
S'file3.txt,line.no:152'
p403
I1
ssS'availability'
p404
(dp405
g310
I1
ssS'sensordata'
p406
(dp407
S'file2.txt,line.no:196'
p408
I1
sS'file2.txt,line.no:120'
p409
I1
sS'file2.txt,line.no:211'
p410
I1
ssS'paying'
p411
(dp412
g385
I1
sS'file2.txt,line.no:102'
p413
I1
ssS'above'
p414
(dp415
S'file4.txt,line.no:23'
p416
I1
sg28
I1
sS'file4.txt,line.no:54'
p417
I1
ssS'method'
p418
(dp419
g17
I1
ssS'international'
p420
(dp421
S'file3.txt,line.no:107'
p422
I1
sS'file1.txt,line.no:2'
p423
I1
sS'file3.txt,line.no:79'
p424
I1
sS'file3.txt,line.no:34'
p425
I1
sS'file3.txt,line.no:95'
p426
I1
sS'file3.txt,line.no:150'
p427
I1
sS'file3.txt,line.no:3'
p428
I1
sS'file3.txt,line.no:134'
p429
I1
sS'file3.txt,line.no:1'
p430
I1
ssS'learned'
p431
(dp432
S'file3.txt,line.no:54'
p433
I1
sg234
I1
ssS'increasing'
p434
(dp435
S'file3.txt,line.no:64'
p436
I1
ssS'ever'
p437
(dp438
S'file3.txt,line.no:23'
p439
I1
ssS'public'
p440
(dp441
S'file2.txt,line.no:203'
p442
I1
sg240
I1
sS'file2.txt,line.no:201'
p443
I1
sg241
I1
sS'file2.txt,line.no:220'
p444
I1
sS'file2.txt,line.no:247'
p445
I1
sS'file4.txt,line.no:26'
p446
I1
sg243
I1
sS'file2.txt,line.no:142'
p447
I1
sg246
I1
sS'file2.txt,line.no:180'
p448
I1
sS'file2.txt,line.no:147'
p449
I1
sg231
I1
sg242
I1
sg277
I1
ssS'gyroscope'
p450
(dp451
S'file2.txt,line.no:14'
p452
I1
sS'file2.txt,line.no:204'
p453
I1
ssS'(figure'
p454
(dp455
S'file4.txt,line.no:36'
p456
I1
ssS'pictorially'
p457
(dp458
g74
I1
ssS'full'
p459
(dp460
g107
I1
ssS'doubt'
p461
(dp462
g287
I1
ssS'never'
p463
(dp464
g137
I1
ssS'sig-'
p465
(dp466
g222
I1
ssS'understanding'
p467
(dp468
g21
I1
ssS'objects'
p469
(dp470
S'file2.txt,line.no:123'
p471
I1
sS'file2.txt,line.no:127'
p472
I1
sS'file2.txt,line.no:119'
p473
I1
ssS'operating'
p474
(dp475
S'file2.txt,line.no:35'
p476
I1
ssS'address'
p477
(dp478
S'file2.txt,line.no:79'
p479
I1
sS'file2.txt,line.no:152'
p480
I1
sg88
I1
sS'file2.txt,line.no:84'
p481
I1
sS'file2.txt,line.no:156'
p482
I1
sS'file2.txt,line.no:181'
p483
I1
sg368
I1
sS'file2.txt,line.no:155'
p484
I1
sS'file2.txt,line.no:166'
p485
I1
sS'file2.txt,line.no:165'
p486
I1
sS'file2.txt,line.no:163'
p487
I1
sS'file2.txt,line.no:176'
p488
I1
ssS'along'
p489
(dp490
g182
I1
sS'file2.txt,line.no:164'
p491
I1
sg484
I1
ssS'standard'
p492
(dp493
g391
I1
ssS'104'
p494
(dp495
S'file2.txt,line.no:138'
p496
I1
ssS'search'
p497
(dp498
g171
I2
sg207
I1
sg301
I1
ssS'attentionflag'
p499
(dp500
S'file2.txt,line.no:213'
p501
I1
ssS'credentials'
p502
(dp503
S'file2.txt,line.no:59'
p504
I1
ssS'33'
p505
(dp506
S'file2.txt,line.no:71'
p507
I1
ssS'32'
p508
(dp509
g358
I1
sS'file2.txt,line.no:57'
p510
I1
ssS'31'
p511
(dp512
S'file2.txt,line.no:46'
p513
I1
sS'file2.txt,line.no:45'
p514
I1
sS'file2.txt,line.no:44'
p515
I1
ssS'changed'
p516
(dp517
S'file2.txt,line.no:216'
p518
I1
ssS'allows'
p519
(dp520
g98
I1
sg124
I1
sg138
I1
ssS'recordings'
p521
(dp522
g58
I1
sg95
I1
ssS'experience'
p523
(dp524
g403
I1
sg68
I2
ssS'34'
p525
(dp526
S'file2.txt,line.no:89'
p527
I1
ssS'pooling'
p528
(dp529
g162
I1
ssS'listens'
p530
(dp531
g94
I1
ssS'proximitydata'
p532
(dp533
g443
I1
ssS'pictorial'
p534
(dp535
g515
I1
ssS'action'
p536
(dp537
g3
I1
ssS'implement'
p538
(dp539
g186
I1
ssS'435'
p540
(dp541
S'file2.txt,line.no:232'
p542
I1
ssS'navigation'
p543
(dp544
g107
I1
sg31
I1
ssS'options'
p545
(dp546
g173
I1
sg367
I1
sg196
I1
sg164
I1
ssS'mipro'
p547
(dp548
g403
I1
ssS'431'
p549
(dp550
S'file2.txt,line.no:133'
p551
I1
ssS'composed'
p552
(dp553
S'file3.txt,line.no:109'
p554
I1
sS'file3.txt,line.no:110'
p555
I1
ssS'appropriately'
p556
(dp557
S'file2.txt,line.no:226'
p558
I1
ssS'via'
p559
(dp560
g174
I1
sS'file3.txt,line.no:52'
p561
I1
ssS'useful'
p562
(dp563
g234
I1
ssS'family'
p564
(dp565
S'file4.txt,line.no:9'
p566
I1
ssS'extra'
p567
(dp568
g83
I1
ssS'app'
p569
(dp570
g28
I1
ssS'manage'
p571
(dp572
g131
I1
sS'file2.txt,line.no:172'
p573
I1
sg198
I1
ssS'technologies'
p574
(dp575
S'file2.txt,line.no:7'
p576
I1
sg21
I1
ssS'jindan'
p577
(dp578
g270
I1
sg351
I1
ssS'private'
p579
(dp580
S'file2.txt,line.no:215'
p581
I1
sS'file2.txt,line.no:217'
p582
I1
sg410
I1
sg501
I1
sS'file2.txt,line.no:242'
p583
I1
sS'file2.txt,line.no:244'
p584
I1
sS'file2.txt,line.no:175'
p585
I1
sS'file2.txt,line.no:140'
p586
I1
sS'file2.txt,line.no:151'
p587
I1
sg258
I1
sg250
I1
sS'file2.txt,line.no:177'
p588
I1
ssS'wifi'
p589
(dp590
S'file2.txt,line.no:23'
p591
I1
ssS'analyzing'
p592
(dp593
g71
I1
ssS'send'
p594
(dp595
g174
I1
sg104
I1
sS'file4.txt,line.no:40'
p596
I1
sg253
I1
ssS'home'
p597
(dp598
S'file3.txt,line.no:77'
p599
I1
sS'file3.txt,line.no:76'
p600
I1
sS'file3.txt,line.no:87'
p601
I1
ssS'prompt'
p602
(dp603
g136
I1
sg149
I1
sg143
I1
sg368
I1
ssS'should'
p604
(dp605
g379
I1
ssS'tools'
p606
(dp607
g148
I1
ssS'estimate'
p608
(dp609
g184
I1
ssS'select'
p610
(dp611
S'file2.txt,line.no:61'
p612
I1
sg116
I1
sg151
I1
sg300
I1
sg168
I1
ssS'hotels'
p613
(dp614
g125
I1
ssS'presents'
p615
(dp616
g124
I1
ssS'use'
p617
(dp618
S'file4.txt,line.no:38'
p619
I2
sg191
I1
sg15
I1
sS'file2.txt,line.no:103'
p620
I1
sS'file2.txt,line.no:43'
p621
I1
sS'file2.txt,line.no:50'
p622
I1
sg514
I1
sg515
I1
sg416
I1
sS'file2.txt,line.no:77'
p623
I1
sg104
I1
sg375
I1
sg596
I1
sg456
I1
sg3
I1
ssS'from'
p624
(dp625
g344
I1
sg300
I1
sg176
I1
sg168
I1
sg182
I1
sg601
I1
sS'file4.txt,line.no:39'
p626
I2
sg167
I1
sg28
I1
sS'file2.txt,line.no:169'
p627
I1
sg230
I1
sg573
I1
sg104
I1
sg596
I1
ssS'takes'
p628
(dp629
g58
I1
sS'file2.txt,line.no:136'
p630
I1
sg197
I1
ssS'congdon2'
p631
(dp632
g270
I1
ssS'remains'
p633
(dp634
g122
I1
ssS'positive'
p635
(dp636
g188
I1
ssS'destination'
p637
(dp638
g184
I1
ssS'report\xe2\x80\x9d'
p639
(dp640
g403
I1
ssS'two'
p641
(dp642
g128
I1
sg196
I1
sg186
I1
ssS'scenarios'
p643
(dp644
S'file2.txt,line.no:39'
p645
I1
ssS'almost'
p646
(dp647
g261
I1
sg150
I1
ssS'(button'
p648
(dp649
g491
I1
sS'file2.txt,line.no:154'
p650
I1
ssS'call'
p651
(dp652
S'file2.txt,line.no:3'
p653
I1
ssS'6'
p654
(dp655
S'file3.txt,line.no:98'
p656
I1
sS'file3.txt,line.no:97'
p657
I1
sg161
I1
ssS'taken'
p658
(dp659
S'file3.txt,line.no:128'
p660
I1
ssS'themselves'
p661
(dp662
g385
I1
ssS'manufacturer'
p663
(dp664
S'file4.txt,line.no:24'
p665
I1
ssS'selects'
p666
(dp667
g116
I1
sg151
I1
sg152
I1
sg348
I1
sg307
I1
sg101
I1
ssS'shreyanshi'
p668
(dp669
S'file5.txt,line.no:2'
p670
I1
ssS'today'
p671
(dp672
g237
I1
ssS'more'
p673
(dp674
g104
I1
sg193
I1
sg191
I1
sS'file4.txt,line.no:51'
p675
I1
ssS'b)'
p676
(dp677
g297
I1
ssS'sharing'
p678
(dp679
S'file3.txt,line.no:43'
p680
I1
ssS'formally'
p681
(dp682
S'file4.txt,line.no:43'
p683
I1
ssS'relay'
p684
(dp685
g141
I1
ssS'sessions'
p686
(dp687
S'file2.txt,line.no:106'
p688
I1
ssS'started'
p689
(dp690
g626
I1
ssS'detail'
p691
(dp692
g527
I1
ssS'change'
p693
(dp694
g653
I1
ssS'equipped'
p695
(dp696
g261
I1
sg31
I1
ssS'component'
p697
(dp698
g42
I1
sg43
I1
sg361
I1
ssS'visibility'
p699
(dp700
g123
I1
ssS'telephone'
p701
(dp702
g192
I1
ssS'phone'
p703
(dp704
S'file3.txt,line.no:11'
p705
I1
sg323
I1
sS'file4.txt,line.no:14'
p706
I1
sS'file3.txt,line.no:24'
p707
I1
sg354
I1
sg215
I1
sg237
I1
sg626
I1
sg39
I1
sg104
I1
ssS'flag'
p708
(dp709
g558
I1
sg518
I1
ssS'everywhere'
p710
(dp711
g313
I1
ssS'particular'
p712
(dp713
g364
I1
sg197
I1
ssS'cases'
p714
(dp715
g619
I1
sg620
I1
sg621
I1
sg622
I1
sg515
I1
sg623
I1
sg15
I2
sg188
I1
sg456
I1
sg3
I1
ssS'effort'
p716
(dp717
g361
I1
ssS'94'
p718
(dp719
S'file2.txt,line.no:117'
p720
I1
ssS'balakrishnan'
p721
(dp722
S'file3.txt,line.no:145'
p723
I1
ssS'must'
p724
(dp725
S'file4.txt,line.no:52'
p726
I1
sg675
I1
sS'file2.txt,line.no:228'
p727
I1
sS'file4.txt,line.no:2'
p728
I1
sS'file4.txt,line.no:55'
p729
I1
ssS'me'
p730
(dp731
g670
I1
ssS'high'
p732
(dp733
g202
I1
ssS'account'
p734
(dp735
g104
I1
sg175
I1
ssS'join'
p736
(dp737
g140
I1
sg507
I1
ssS'client-server'
p738
(dp739
S'file3.txt,line.no:17'
p740
I1
ssS'rights'
p741
(dp742
g7
I1
sg8
I1
sg9
I1
sg11
I1
sg6
I1
sg14
I1
sS'file4.txt,line.no:46'
p743
I1
ssS'this'
p744
(dp745
S'file3.txt,line.no:13'
p746
I1
sg20
I1
sg705
I1
sg123
I1
sg162
I1
sg728
I1
sg452
I1
sg653
I1
sg181
I1
sg22
I1
sg189
I1
sg59
I1
sg675
I1
sg729
I1
sS'file3.txt,line.no:56'
p747
I1
sg39
I1
sg104
I1
sg188
I1
sg68
I1
sg17
I1
ssS'science'
p748
(dp749
g422
I1
sg423
I1
sg424
I1
sg425
I1
sg426
I1
sS'file3.txt,line.no:4'
p750
I1
sg428
I1
sg429
I1
sg430
I1
ssS'originally'
p751
(dp752
g192
I1
ssS'work'
p753
(dp754
g39
I1
sg645
I1
sg157
I1
ssS'socketid'
p755
(dp756
g583
I1
sg588
I1
ssS'[8]'
p757
(dp758
g181
I1
sg119
I1
ssS'friendly'
p759
(dp760
g746
I1
ssS'prompts'
p761
(dp762
g169
I1
sg195
I1
sg88
I1
ssS'values'
p763
(dp764
g294
I1
sS'file2.txt,line.no:63'
p765
I1
sg291
I1
ssS'can'
p766
(dp767
g173
I1
sg174
I2
sS'file4.txt,line.no:53'
p768
I1
sg300
I1
sg175
I2
sg97
I1
sg192
I1
sg182
I1
sg65
I1
sS'file3.txt,line.no:85'
p769
I1
sg80
I1
sg626
I1
sg660
I1
sg210
I1
sg391
I2
sg132
I1
sS'file4.txt,line.no:21'
p770
I1
sg134
I1
sg375
I1
sg126
I1
sg3
I1
ssS'girod'
p771
(dp772
g723
I1
ssS'following'
p773
(dp774
g179
I1
sg727
I1
sg71
I1
ssS'meet'
p775
(dp776
g12
I1
ssS'example'
p777
(dp778
g141
I1
sS'file2.txt,line.no:38'
p779
I1
sg336
I1
ssS'something'
p780
(dp781
g234
I1
ssS'control'
p782
(dp783
g123
I1
sg124
I1
sg138
I1
ssS'nearest'
p784
(dp785
g125
I1
sg172
I1
ssS'sqlite'
p786
(dp787
g436
I1
ssS'reserved'
p788
(dp789
g7
I1
sg8
I1
sg9
I1
sg11
I1
sg6
I1
sg14
I1
ssS'challenging'
p790
(dp791
g122
I1
ssS'figure'
p792
(dp793
g599
I1
sg600
I1
sS'file3.txt,line.no:104'
p794
I1
sS'file3.txt,line.no:105'
p795
I1
sS'file3.txt,line.no:93'
p796
I1
sS'file3.txt,line.no:81'
p797
I1
sS'file3.txt,line.no:82'
p798
I1
sg657
I1
sS'file3.txt,line.no:92'
p799
I1
sg656
I1
sg74
I1
sg514
I1
sg515
I1
sS'file4.txt,line.no:22'
p800
I1
sS'file3.txt,line.no:66'
p801
I1
sg16
I1
sS'file3.txt,line.no:137'
p802
I1
sg15
I1
ssS'give'
p803
(dp804
g185
I1
ssS'process'
p805
(dp806
S'file3.txt,line.no:108'
p807
I1
sg52
I1
sg234
I1
ssS'programming'
p808
(dp809
g137
I1
ssS'role'
p810
(dp811
g110
I1
ssS'restaurants'
p812
(dp813
g125
I1
ssS'india'
p814
(dp815
g280
I1
ssS'mainline'
p816
(dp817
S'file2.txt,line.no:48'
p818
I1
sS'file2.txt,line.no:108'
p819
I1
sS'file2.txt,line.no:86'
p820
I1
sS'file2.txt,line.no:114'
p821
I1
sS'file2.txt,line.no:54'
p822
I1
sS'file2.txt,line.no:94'
p823
I1
sS'file2.txt,line.no:68'
p824
I1
sS'file2.txt,line.no:83'
p825
I1
sS'file2.txt,line.no:60'
p826
I1
sS'file2.txt,line.no:75'
p827
I1
sS'file2.txt,line.no:99'
p828
I1
sS'file2.txt,line.no:66'
p829
I1
ssS'respective'
p830
(dp831
g42
I1
ssS'topic'
p832
(dp833
S'file4.txt,line.no:35'
p834
I1
ssS'ondisconnecteventlistener()'
p835
(dp836
g242
I1
ssS'kyu-han'
p837
(dp838
g270
I1
ssS'assumptions'
p839
(dp840
S'file2.txt,line.no:31'
p841
I1
ssS'numbers'
p842
(dp843
S'file3.txt,line.no:12'
p844
I1
ssS'want'
p845
(dp846
g125
I1
sg193
I1
sg439
I1
sg176
I1
ssS'partner'
p847
(dp848
g670
I1
ssS'station'
p849
(dp850
S'file3.txt,line.no:39'
p851
I1
ssS'dress'
p852
(dp853
S'file2.txt,line.no:65'
p854
I1
ssS'tremendous'
p855
(dp856
g354
I1
ssS'students\xe2\x80\x99'
p857
(dp858
S'file2.txt,line.no:149'
p859
I1
sg162
I1
ssS'information'
p860
(dp861
g705
I1
sg176
I1
sg366
I1
sg382
I1
sg121
I1
sg750
I1
sg143
I1
ssS'needs'
p862
(dp863
g42
I1
sg157
I1
sg130
I1
ssS'requirements'
p864
(dp865
g137
I1
sg177
I1
sg336
I1
ssS'\xe2\x80\x9caccurate'
p866
(dp867
S'file3.txt,line.no:146'
p868
I1
ssS'initiate'
p869
(dp870
g612
I1
sg510
I1
ssS'cse'
p871
(dp872
g280
I1
ssS'ie'
p873
(dp874
S'file2.txt,line.no:52'
p875
I1
ssS'purpose'
p876
(dp877
g28
I1
ssS'permission'
p878
(dp879
g158
I1
sg167
I1
sg159
I1
sg160
I1
sg145
I1
ssS'1'
p880
(dp881
g583
I1
sg444
I1
sg445
I1
sg258
I1
sg823
I1
sg294
I1
sg587
I1
sg801
I1
sg585
I1
sg323
I1
sS'file3.txt,line.no:10'
p882
I1
sg828
I1
sg612
I1
sg826
I1
sS'file2.txt,line.no:49'
p883
I1
sg818
I1
sg277
I1
sS'file2.txt,line.no:128'
p884
I1
sg348
I1
sg819
I1
sg240
I1
sg391
I1
sg409
I1
sg77
I1
sS'file2.txt,line.no:124'
p885
I1
sg586
I1
sg800
I1
sg448
I1
sg140
I1
sg827
I1
ssS'sensoreventlistener'
p886
(dp887
g542
I1
sS'file2.txt,line.no:129'
p888
I1
sg582
I1
ssS'models'
p889
(dp890
S'file3.txt,line.no:49'
p891
I1
ssS'those'
p892
(dp893
g222
I1
sg210
I1
sg123
I1
ssS'constraints'
p894
(dp895
g357
I1
sg417
I1
ssS'establishment'
p896
(dp897
g98
I1
sg125
I1
ssS'\xe2\x80\xa2'
p898
(dp899
S'file2.txt,line.no:2'
p900
I1
ssS'profile'
p901
(dp902
g768
I1
sg417
I1
ssS'map'
p903
(dp904
g307
I1
sg171
I1
sS'file4.txt,line.no:28'
p905
I1
sg770
I1
sg16
I1
sg802
I1
ssS'product'
p906
(dp907
g341
I1
ssS'intended'
p908
(dp909
g192
I1
sg645
I1
ssS'huge'
p910
(dp911
g301
I1
ssS'may'
p912
(dp913
g403
I1
sg645
I1
ssS'we?\xe2\x80\x9d'
p914
(dp915
g104
I1
ssS'after'
p916
(dp917
S'file2.txt,line.no:5'
p918
I1
sg71
I1
sg175
I1
ssS'different'
p919
(dp920
g22
I1
sS'file3.txt,line.no:48'
p921
I1
sg446
I2
sS'file3.txt,line.no:59'
p922
I1
sg3
I1
ssS'demanding'
p923
(dp924
g193
I1
ssS'diagram'
p925
(dp926
g798
I1
sg656
I1
sS'file2.txt,line.no:130'
p927
I1
sg456
I1
sg514
I1
ssS'applications'
p928
(dp929
g20
I1
sg645
I1
sS'file3.txt,line.no:29'
p930
I1
sg192
I1
sg416
I1
sg128
I1
sg313
I1
sS'file3.txt,line.no:62'
p931
I1
sg132
I1
sg134
I1
sg301
I1
sg446
I1
sg351
I1
sg148
I1
ssS'designed'
p932
(dp933
g128
I1
sg142
I1
sg198
I1
ssS'(lbs)'
p934
(dp935
g921
I1
ssS'geo-positioning'
p936
(dp937
g301
I1
ssS'monitoring'
p938
(dp939
g680
I1
ssS'data'
p940
(dp941
g58
I1
sg94
I1
sg293
I1
sg291
I1
sg688
I1
sg77
I1
sg189
I1
sg294
I1
sg95
I1
sg417
I1
sg230
I1
ssS'response'
p942
(dp943
g253
I1
ssS'efficiently'
p944
(dp945
g134
I1
sg194
I1
ssS'alps'
p946
(dp947
g382
I1
ssS'effective'
p948
(dp949
g931
I1
ssS'emit'
p950
(dp951
g653
I1
sg162
I1
ssS'issn'
p952
(dp953
g328
I1
sg423
I1
ssS'explicit'
p954
(dp955
g287
I1
ssS'redundant'
p956
(dp957
S'file2.txt,line.no:30'
p958
I1
ssS'element'
p959
(dp960
g491
I1
sg650
I1
ssS'switch'
p961
(dp962
g55
I1
ssS'maintain'
p963
(dp964
g188
I1
ssS'algorithms'
p965
(dp966
g138
I1
ssS'automatically'
p967
(dp968
g110
I1
ssS'sm'
p969
(dp970
g258
I1
ssS'enter'
p971
(dp972
g174
I1
sg180
I1
sg300
I1
sg169
I1
sg170
I1
sg171
I1
sg875
I1
sg136
I1
sg195
I1
sg88
I1
sg179
I1
sg765
I1
sg149
I1
sg143
I1
ssS'acknowledges'
p973
(dp974
S'file2.txt,line.no:97'
p975
I1
ssS'order'
p976
(dp977
g196
I1
ssS'sd'
p978
(dp979
g410
I1
ssS'belong'
p980
(dp981
g131
I1
ssS'interpretation'
p982
(dp983
g922
I1
ssS'help'
p984
(dp985
S'file3.txt,line.no:16'
p986
I1
sg36
I1
ssS'disclosure'
p987
(dp988
g921
I1
ssS'developed'
p989
(dp990
g137
I1
sg554
I1
sg71
I1
ssS'logged'
p991
(dp992
g768
I1
sg688
I1
sS'file2.txt,line.no:73'
p993
I1
sg504
I1
sS'file2.txt,line.no:91'
p994
I1
ssS'find'
p995
(dp996
g36
I1
ssS'soon'
p997
(dp998
g55
I1
ssS'entity'
p999
(dp1000
g473
I1
ssS'professors'
p1001
(dp1002
g163
I1
ssS'course'
p1003
(dp1004
g149
I1
sg136
I2
ssS'paper'
p1005
(dp1006
g746
I1
sg705
I1
sg123
I1
ssS'including'
p1007
(dp1008
g304
I1
sg148
I1
ssS'activity\xe2\x80\x99s'
p1009
(dp1010
S'file2.txt,line.no:158'
p1011
I1
ssS'134'
p1012
(dp1013
S'file2.txt,line.no:240'
p1014
I1
ssS'mentioned'
p1015
(dp1016
g416
I1
ssS'still'
p1017
(dp1018
g71
I1
ssS'ieee'
p1019
(dp1020
g227
I1
ssS'its'
p1021
(dp1022
g768
I1
sg706
I1
sg323
I1
sg184
I1
ssS'before'
p1023
(dp1024
g747
I1
sg728
I1
ssS'24'
p1025
(dp1026
S'file2.txt,line.no:250'
p1027
I1
sg576
I1
ssS'25'
p1028
(dp1029
g357
I1
ssS'26'
p1030
(dp1031
g841
I1
ssS'police'
p1032
(dp1033
g125
I1
ssS'monitor'
p1034
(dp1035
S'file2.txt,line.no:205'
p1036
I1
sS'file2.txt,line.no:126'
p1037
I1
sg158
I1
sg586
I2
sg159
I1
sg160
I1
sg145
I1
sg527
I1
ssS'maps'
p1038
(dp1039
g91
I2
sg986
I1
sg665
I1
ssS'rejects'
p1040
(dp1041
g158
I1
ssS'onsensorchanged(sensorevent'
p1042
(dp1043
g240
I1
ssS'samyak'
p1044
(dp1045
g670
I1
ssS'coordinates'
p1046
(dp1047
g104
I1
ssS'actually'
p1048
(dp1049
g201
I1
ssS'destroyed'
p1050
(dp1051
S'file2.txt,line.no:189'
p1052
I1
ssS'platform'
p1053
(dp1054
g844
I1
ssS'user-controllable'
p1055
(dp1056
g561
I1
ssS'504g'
p1057
(dp1058
g426
I1
ssS'systems'
p1059
(dp1060
g55
I1
sg31
I1
sg71
I1
sg135
I1
ssS'much'
p1061
(dp1062
g197
I1
ssS'travelers'
p1063
(dp1064
g25
I1
ssS'2015'
p1065
(dp1066
g7
I1
sg422
I1
sg8
I1
sg424
I1
sg9
I1
sg426
I1
sg425
I1
sg6
I1
sS'file3.txt,line.no:6'
p1067
I1
sg14
I1
sg11
I1
sg429
I1
sg430
I1
ssS'main'
p1068
(dp1069
g884
I1
sg551
I1
sS'file2.txt,line.no:182'
p1070
I1
ssS'might'
p1071
(dp1072
g779
I1
sg187
I1
ssS'2)'
p1073
(dp1074
g456
I1
ssS'2013'
p1075
(dp1076
g227
I1
ssS'then'
p1077
(dp1078
g174
I1
sg152
I1
sg300
I1
sg307
I1
sg101
I1
sg171
I1
sS'file4.txt,line.no:50'
p1079
I1
sg104
I1
sg138
I1
ssS'them'
p1080
(dp1081
g779
I1
sg104
I1
sS'file3.txt,line.no:37'
p1082
I1
ssS'good'
p1083
(dp1084
g202
I1
sg21
I1
ssS'greater'
p1085
(dp1086
S'file3.txt,line.no:27'
p1087
I1
ssS'combination'
p1088
(dp1089
g485
I1
sS'file2.txt,line.no:56'
p1090
I1
ssS'views'
p1091
(dp1092
g486
I1
sg484
I1
ssS'propose'
p1093
(dp1094
S'file3.txt,line.no:30'
p1095
I1
sg35
I1
ssS'cover'
p1096
(dp1097
S'file3.txt,line.no:143'
p1098
I1
ssS'framework'
p1099
(dp1100
g376
I1
sg147
I1
ssS'owned'
p1101
(dp1102
S'file2.txt,line.no:34'
p1103
I1
ssS'they'
p1104
(dp1105
g125
I1
sg439
I1
sg385
I1
sg142
I1
sg16
I1
sg1098
I1
ssS'not'
p1106
(dp1107
g20
I1
sg366
I1
sg645
I1
sg215
I1
sg1082
I1
sg22
I1
sg726
I1
sg131
I1
sg385
I1
sg161
I1
ssS'is?\xe2\x80\x9d'
p1108
(dp1109
g104
I1
ssS'now'
p1110
(dp1111
g31
I1
sg683
I1
ssS'nadu'
p1112
(dp1113
g280
I1
ssS'establishes'
p1114
(dp1115
g118
I1
sg13
I1
ssS'represents'
p1116
(dp1117
g797
I1
ssS'several'
p1118
(dp1119
g121
I1
ssS'name'
p1120
(dp1121
S'file5.txt,line.no:1'
p1122
I1
sS'file2.txt,line.no:111'
p1123
I1
ssS'0\xc2\xb0)'
p1124
(dp1125
g900
I1
sS'file2.txt,line.no:231'
p1126
I1
ssS'verifying'
p1127
(dp1128
g807
I1
ssS'startconnection(string'
p1129
(dp1130
g587
I1
ssS'cell'
p1131
(dp1132
g104
I1
ssS'identified'
p1133
(dp1134
g891
I1
ssS'establishing'
p1135
(dp1136
g318
I1
ssS'possibilities'
p1137
(dp1138
g137
I1
ssS'token'
p1139
(dp1140
g480
I1
ssS'stopped'
p1141
(dp1142
g794
I1
ssS'mode'
p1143
(dp1144
g770
I1
ssS'each'
p1145
(dp1146
g42
I1
ssS'found'
p1147
(dp1148
g83
I1
ssS'iosocket-client'
p1149
(dp1150
S'file2.txt,line.no:168'
p1151
I1
ssS'identifier'
p1152
(dp1153
S'file2.txt,line.no:178'
p1154
I1
sS'file2.txt,line.no:243'
p1155
I1
ssS'shaking'
p1156
(dp1157
g177
I1
sg297
I1
sg166
I1
ssS'side'
p1158
(dp1159
g675
I1
sg36
I1
ssS'referred'
p1160
(dp1161
g154
I1
sg129
I1
ssS'individually'
p1162
(dp1163
g42
I1
ssS'status'
p1164
(dp1165
S'file2.txt,line.no:214'
p1166
I1
ssS'domain'
p1167
(dp1168
g134
I1
sS'file2.txt,line.no:118'
p1169
I1
ssS'everyone'
p1170
(dp1171
g922
I1
ssS'retrieve'
p1172
(dp1173
g127
I1
ssS'wirelessly'
p1174
(dp1175
g1087
I1
ssS'21'
p1176
(dp1177
g287
I1
ssS'idea'
p1178
(dp1179
g104
I1
ssS'related'
p1180
(dp1181
g189
I1
ssS'joined'
p1182
(dp1183
S'file2.txt,line.no:92'
p1184
I1
ssS'frequency'
p1185
(dp1186
g1087
I1
sg166
I1
ssS'see'
p1187
(dp1188
g197
I1
sg331
I1
ssS'remove'
p1189
(dp1190
g173
I1
sg176
I1
sg164
I1
ssS'measure'
p1191
(dp1192
g166
I1
ssS'our'
p1193
(dp1194
g336
I2
sg132
I1
sg12
I1
sg294
I1
ssS'mapping'
p1195
(dp1196
g868
I1
ssS'transitions'
p1197
(dp1198
g182
I1
ssS'application)'
p1199
(dp1200
g596
I1
ssS'event'
p1201
(dp1202
g117
I1
sg650
I1
sg10
I1
sg80
I1
sg13
I1
sg491
I1
sg284
I1
ssS'special'
p1203
(dp1204
g391
I1
sg110
I1
ssS'out'
p1205
(dp1206
g554
I1
sg134
I1
sg922
I1
sg83
I1
ssS'deals'
p1207
(dp1208
g185
I1
ssS'shown'
p1209
(dp1210
g801
I1
ssS'thiagarajan'
p1211
(dp1212
g723
I1
ssS'literature'
p1213
(dp1214
S'file3.txt,line.no:41'
p1215
I1
ssS'network'
p1216
(dp1217
g591
I1
ssS'sector'
p1218
(dp1219
g193
I1
ssS'open'
p1220
(dp1221
g747
I1
sg660
I1
sg844
I1
ssS'rep'
p1222
(dp1223
g135
I1
ssS'access'
p1224
(dp1225
g167
I1
sS'file4.txt,line.no:15'
p1226
I1
sg196
I1
sg153
I1
ssS'c)'
p1227
(dp1228
g1126
I1
ssS'ejb'
p1229
(dp1230
g287
I1
sg21
I1
ssS'research'
p1231
(dp1232
S'file3.txt,line.no:7'
p1233
I1
ssS'content'
p1234
(dp1235
g304
I1
ssS'specifications'
p1236
(dp1237
g287
I1
sg922
I1
sg83
I1
ssS'7'
p1238
(dp1239
g794
I1
sg795
I1
ssS'internet'
p1240
(dp1241
g1226
I1
sg191
I1
ssS'garmin'
p1242
(dp1243
g665
I1
ssS'got'
p1244
(dp1245
g234
I1
ssS'offline'
p1246
(dp1247
g844
I1
ssS'issue'
p1248
(dp1249
g1067
I1
ssS'integrated'
p1250
(dp1251
g142
I1
ssS'shows'
p1252
(dp1253
g600
I1
sg794
I1
sg799
I1
sg515
I1
sg657
I1
sg769
I1
sg481
I1
sg74
I1
sg62
I1
sg456
I1
ssS'411'
p1254
(dp1255
g473
I1
ssS'written'
p1256
(dp1257
g376
I1
ssS'programmer\xe2\x80\x99s'
p1258
(dp1259
g396
I1
ssS'activity'
p1260
(dp1261
g884
I1
sg601
I1
sg46
I1
sg97
I2
sg551
I1
sg121
I1
sg17
I1
ssS'\xe2\x80\x9cstop\xe2\x80\x9d'
p1262
(dp1263
g152
I1
ssS'possibility'
p1264
(dp1265
g65
I1
sg34
I1
ssS'solution'
p1266
(dp1267
g35
I1
ssS'244'
p1268
(dp1269
S'file2.txt,line.no:21'
p1270
I1
ssS'reason'
p1271
(dp1272
g844
I1
ssS'dependencies'
p1273
(dp1274
g841
I1
ssS'241'
p1275
(dp1276
S'file2.txt,line.no:8'
p1277
I1
ssS'lab'
p1278
(dp1279
g670
I1
ssS'243'
p1280
(dp1281
S'file2.txt,line.no:16'
p1282
I1
ssS'242'
p1283
(dp1284
S'file2.txt,line.no:12'
p1285
I1
ssS'networking'
p1286
(dp1287
g427
I1
ssS'sensors'
p1288
(dp1289
g153
I1
sg452
I1
sg157
I1
sS'file2.txt,line.no:223'
p1290
I1
sg158
I1
sg12
I1
sS'file3.txt,line.no:69'
p1291
I1
sg159
I1
sg160
I1
sg145
I1
sg167
I1
sg187
I1
ssS'wanted'
p1292
(dp1293
g137
I1
ssS'beginning'
p1294
(dp1295
g137
I1
ssS'care'
p1296
(dp1297
g630
I1
ssS'logging'
p1298
(dp1299
g918
I1
ssS'g'
p1300
(dp1301
g430
I1
ssS'informs'
p1302
(dp1303
g558
I1
sS'file2.txt,line.no:191'
p1304
I1
ssS'automatic'
p1305
(dp1306
g222
I1
ssS'could'
p1307
(dp1308
g68
I1
ssS'area'
p1309
(dp1310
g591
I1
ssS'correctness'
p1311
(dp1312
g807
I1
ssS'count'
p1313
(dp1314
g413
I1
ssS'map-matching'
p1315
(dp1316
g1095
I1
ssS'feasible'
p1317
(dp1318
g746
I1
ssS'thing'
p1319
(dp1320
g97
I1
ssS'geo-'
p1321
(dp1322
g416
I1
ssS'w'
p1323
(dp1324
g118
I1
ssS'routes'
p1325
(dp1326
g344
I1
sg601
I1
sg300
I1
sg198
I1
sg844
I1
ssS'uses'
p1327
(dp1328
g181
I1
sg188
I1
ssS'pilots'
p1329
(dp1330
g905
I1
ssS'wwwijecsin'
p1331
(dp1332
S'file1.txt,line.no:1'
p1333
I1
ssS'first'
p1334
(dp1335
g729
I1
sg179
I1
sg17
I1
ssS'schema'
p1336
(dp1337
g800
I1
ssS'already'
p1338
(dp1339
g416
I1
ssS'fetched'
p1340
(dp1341
g168
I1
sg101
I1
ssS'necessity'
p1342
(dp1343
g194
I1
ssS'probability'
p1344
(dp1345
g202
I1
ssS'ever-growing'
p1346
(dp1347
g193
I1
ssS'thereafter'
p1348
(dp1349
g165
I1
ssS'powerful'
p1350
(dp1351
g891
I1
ssS'number'
p1352
(dp1353
g43
I1
sg180
I2
sg170
I2
sg171
I1
ssS'preservation'
p1354
(dp1355
S'file3.txt,line.no:53'
p1356
I1
ssS'one'
p1357
(dp1358
g341
I1
sg237
I1
sg128
I1
sg1184
I1
sg729
I1
sg201
I1
sg202
I1
sg665
I1
ssS'date'
p1359
(dp1360
g136
I1
ssS'fetches'
p1361
(dp1362
g344
I1
sg601
I1
sg485
I1
ssS'done'
p1363
(dp1364
g452
I1
sg675
I1
sg331
I1
sg157
I1
ssS'long'
p1365
(dp1366
g726
I1
ssS'such'
p1367
(dp1368
g125
I1
sg31
I1
ssS'carry'
p1369
(dp1370
g134
I1
ssS'message'
p1371
(dp1372
g174
I1
sg162
I1
sg481
I1
sg178
I1
sg364
I1
sg156
I1
sg366
I1
sg144
I1
sg975
I1
sS'file2.txt,line.no:193'
p1373
I1
sg62
I1
sg161
I1
ssS'quality'
p1374
(dp1375
g807
I1
sg921
I1
ssS'stage'
p1376
(dp1377
g52
I1
ssS'andor'
p1378
(dp1379
g49
I1
ssS'city'
p1380
(dp1381
g36
I1
ssS'given'
p1382
(dp1383
g191
I1
sg1184
I1
ssS'management'
p1384
(dp1385
g98
I1
sg134
I1
ssS'discussed'
p1386
(dp1387
g351
I1
ssS'service'
p1388
(dp1389
g921
I1
ssS'privacy'
p1390
(dp1391
g126
I1
sg921
I1
sg561
I1
sg138
I1
ssS'introduction'
p1392
(dp1393
S'file3.txt,line.no:19'
p1394
I1
ssS'30note'
p1395
(dp1396
g728
I1
ssS'interact'
p1397
(dp1398
g630
I1
ssS'sub-systems'
p1399
(dp1400
g554
I1
ssS'system'
p1401
(dp1402
S'file3.txt,line.no:114'
p1403
I1
sg224
I1
sg364
I1
sg365
I1
sg136
I1
sg918
I1
sg294
I1
sg124
I1
sg146
I1
sg147
I1
sg366
I1
sg179
I1
sg149
I1
sg375
I1
sg369
I1
sg370
I1
sg77
I1
sg576
I1
sg481
I1
sg62
I1
sg137
I1
sg161
I1
sg310
I1
sg476
I1
sg619
I1
sg195
I1
sg367
I1
sg49
I1
sg368
I1
sg729
I1
sS'file3.txt,line.no:122'
p1404
I1
sg52
I1
sg107
I1
sg993
I1
ssS'least'
p1405
(dp1406
g1184
I1
ssS'needed'
p1407
(dp1408
g137
I1
sS'file2.txt,line.no:112'
p1409
I1
sg83
I1
ssS'returns'
p1410
(dp1411
g369
I1
ssS'2'
p1412
(dp1413
g443
I1
sg241
I1
sg821
I1
sg706
I1
sg584
I1
sg975
I1
sg247
I1
sg828
I1
sg588
I1
sg882
I1
sg243
I1
sg149
I1
sg829
I1
sg888
I1
sg410
I1
sS'file2.txt,line.no:121'
p1414
I1
sS'file2.txt,line.no:125'
p1415
I1
sg413
I1
sg447
I1
sg825
I1
sg136
I1
sg619
I1
sg195
I1
sg822
I1
sg368
I1
sg15
I1
ssS'binded'
p1416
(dp1417
g168
I1
ssS'slide'
p1418
(dp1419
g182
I1
ssS'kim2'
p1420
(dp1421
g270
I1
ssS'scheme'
p1422
(dp1423
g227
I1
sg138
I1
ssS'easier'
p1424
(dp1425
g707
I1
ssS'gps'
p1426
(dp1427
g20
I1
sg261
I1
sg706
I1
sg104
I1
sg740
I1
sg986
I1
sg31
I1
sg800
I1
sg107
I1
sg446
I1
sg665
I1
ssS'interests'
p1428
(dp1429
g851
I1
ssS'classroom'
p1430
(dp1431
g310
I1
ssS'option'
p1432
(dp1433
g612
I1
sg348
I1
sg176
I1
ssS'that'
p1434
(dp1435
g364
I1
sg97
I1
sg98
I1
sg68
I1
sg124
I1
sg147
I1
sg351
I1
sg125
I1
sg705
I1
sg126
I1
sg1082
I1
sg25
I1
sg131
I1
sg743
I1
sg554
I1
sg101
I1
sg157
I1
sg77
I1
sg59
I1
sg83
I1
sg39
I1
sg138
I1
sg192
I1
sg182
I1
sg341
I1
sg215
I1
sg1103
I1
sg313
I1
sg202
I1
ssS'documentation'
p1436
(dp1437
g801
I1
ssS'instance)'
p1438
(dp1439
g91
I1
ssS'accurately'
p1440
(dp1441
g126
I1
ssS'tokens'
p1442
(dp1443
g482
I1
sg484
I1
ssS'assumption'
p1444
(dp1445
g341
I1
ssS'part'
p1446
(dp1447
g707
I1
sg675
I1
ssS'bank'
p1448
(dp1449
g125
I1
ssS'authors'
p1450
(dp1451
g1095
I1
ssS'focusing'
p1452
(dp1453
g22
I1
ssS'503g'
p1454
(dp1455
g424
I1
ssS'topologic'
p1456
(dp1457
g91
I1
ssS'institution'
p1458
(dp1459
g131
I1
ssS'ravindranath'
p1460
(dp1461
g723
I1
ssS'10'
p1462
(dp1463
g3
I1
ssS'kind'
p1464
(dp1465
g137
I1
sg446
I2
ssS'hundred'
p1466
(dp1467
g834
I1
ssS'determines'
p1468
(dp1469
g144
I1
sg77
I1
ssS'sectors'
p1470
(dp1471
g237
I1
ssS'physically'
p1472
(dp1473
g65
I1
ssS'mysql'
p1474
(dp1475
g293
I1
ssS'fundamental'
p1476
(dp1477
g96
I1
ssS'require'
p1478
(dp1479
g351
I1
ssS'database'
p1480
(dp1481
g230
I1
sg1079
I1
sg293
I1
sg162
I1
sg80
I1
ssS'heshe'
p1482
(dp1483
g104
I1
ssS'board'
p1484
(dp1485
g261
I1
ssS'vocal'
p1486
(dp1487
g107
I1
ssS'tourists'
p1488
(dp1489
g25
I1
ssS'project'
p1490
(dp1491
g287
I1
sg35
I1
sg22
I1
sg137
I1
sg747
I2
sg433
I1
ssS'binds'
p1492
(dp1493
g116
I1
sg151
I1
ssS'socketonconnecteventlistener'
p1494
(dp1495
S'file2.txt,line.no:221'
p1496
I1
ssS'protected'
p1497
(dp1498
g247
I1
ssS'correct'
p1499
(dp1500
g169
I1
ssS'prasant'
p1501
(dp1502
g270
I1
ssS'were'
p1503
(dp1504
g137
I2
ssS'500g'
p1505
(dp1506
g425
I1
ssS'gives'
p1507
(dp1508
g705
I1
sg188
I1
sg834
I1
ssS'descriptions'
p1509
(dp1510
S'file2.txt,line.no:132'
p1511
I1
ssS'and'
p1512
(dp1513
g116
I1
sg480
I1
sg137
I1
sg482
I2
sg484
I1
sg39
I1
sg680
I1
sg851
I1
sg425
I1
sg25
I1
sg127
I2
sg382
I1
sg110
I1
sg429
I1
sg135
I1
sg83
I1
sg230
I1
sg485
I2
sg486
I1
sS'file2.txt,line.no:161'
p1514
I1
sg138
I1
sg149
I1
sg253
I1
sg21
I1
sg141
I1
sg207
I1
sg301
I1
sg993
I1
sg143
I1
sS'file3.txt,line.no:100'
p1515
I1
sg555
I1
sg151
I1
sg294
I2
sg304
I1
sg975
I1
sg994
I1
sg1184
I2
sg98
I1
sg336
I1
sg573
I1
sg234
I1
sg148
I1
sg670
I1
sg423
I1
sg422
I1
sg747
I1
sg104
I1
sg91
I1
sg369
I1
sg20
I1
sg706
I1
sg35
I1
sg379
I1
sg807
I1
sg688
I1
sg77
I2
sg36
I1
sg481
I1
sg62
I1
sg166
I1
sg13
I1
sg58
I1
sg168
I1
sg169
I1
sg170
I1
sg136
I1
sg173
I1
sg300
I2
sg175
I1
sg424
I1
sg180
I1
sg426
I1
sg958
I1
sg841
I1
sg1291
I1
sg750
I1
sg428
I1
sg430
I1
sg183
I1
sS'file2.txt,line.no:229'
p1516
I1
sg653
I1
sg558
I2
sg576
I1
sg10
I1
sg918
I1
sg630
I1
sS'file2.txt,line.no:171'
p1517
I1
sg746
I1
sg844
I1
sg1079
I1
sg357
I1
sg113
I1
sg427
I1
sg591
I1
sg318
I1
sS'file2.txt,line.no:144'
p1518
I1
sg192
I1
sg1087
I1
sg354
I1
sg193
I3
sg237
I1
sg194
I1
sg875
I1
sg367
I1
sg270
I1
sg49
I1
sg417
I1
sg723
I1
sg197
I1
sg198
I1
ssS'(tracked'
p1519
(dp1520
g104
I1
ssS'register'
p1521
(dp1522
g726
I1
sg104
I1
sg170
I1
sg130
I1
ssS'false'
p1523
(dp1524
g188
I1
ssS'wwwijcsmccom'
p1525
(dp1526
S'file3.txt,line.no:2'
p1527
I1
ssS'well'
p1528
(dp1529
g844
I1
sg123
I1
sg185
I1
ssS'leaps'
p1530
(dp1531
g354
I1
ssS'reader'
p1532
(dp1533
g728
I1
ssS'comfortable'
p1534
(dp1535
g566
I1
ssS'talking'
p1536
(dp1537
g834
I1
ssS'say'
p1538
(dp1539
g176
I1
ssS'usenix'
p1540
(dp1541
g868
I1
ssS'have'
p1542
(dp1543
g779
I1
sg34
I1
sg122
I1
sg21
I1
sg193
I1
sg215
I2
sg12
I1
sg921
I1
sg198
I1
sg336
I1
sg747
I1
sg743
I1
sg382
I1
sg135
I1
ssS'precondition'
p1544
(dp1545
g504
I1
sg688
I1
sg993
I1
sg994
I1
ssS'need'
p1546
(dp1547
g166
I1
sg194
I1
ssS'map-'
p1548
(dp1549
g891
I1
ssS'their'
p1550
(dp1551
g42
I1
sg1082
I1
sg165
I1
sg150
I1
sg36
I1
ssS'mountain'
p1552
(dp1553
g222
I1
sg223
I1
ssS'(alps)'
p1554
(dp1555
g124
I1
ssS'providers'
p1556
(dp1557
g304
I1
ssS'built'
p1558
(dp1559
g554
I1
ssS'trip'
p1560
(dp1561
g379
I1
ssS'offer'
p1562
(dp1563
g132
I1
sg179
I1
ssS'-'
p1564
(dp1565
g705
I1
sg491
I1
sg117
I1
sg650
I1
ssS'[3]'
p1566
(dp1567
g113
I1
ssS'oriented'
p1568
(dp1569
S'file2.txt,line.no:207'
p1570
I1
sg1014
I1
sS'file2.txt,line.no:173'
p1571
I1
sg496
I1
sg720
I1
ssS'also'
p1572
(dp1573
g746
I1
sg174
I1
sg300
I1
sg184
I1
sg164
I1
sg222
I1
sg1082
I1
sg769
I1
sg12
I1
sg922
I1
sg131
I1
sg134
I1
sg197
I1
sg198
I1
sg135
I1
ssS'relatives'
p1574
(dp1575
g566
I1
ssS'without'
p1576
(dp1577
g287
I1
ssS'which'
p1578
(dp1579
g746
I1
sg185
I1
sg292
I1
sg181
I1
sg555
I1
sg660
I1
sg80
I1
sg769
I1
sg416
I1
sg630
I1
sg55
I1
sg104
I1
sg3
I1
ssS'bus'
p1580
(dp1581
g1515
I1
sg844
I1
sg705
I1
sg152
I1
sg794
I1
sg184
I1
sg185
I1
sg197
I2
sg307
I1
sg101
I1
sg171
I2
sg180
I1
sg172
I1
sg769
I1
sg127
I1
sS'file3.txt,line.no:8'
p1582
I1
sg375
I1
sg198
I1
ssS'finding'
p1583
(dp1584
g202
I1
sS'file3.txt,line.no:125'
p1585
I1
ssS'performance'
p1586
(dp1587
g215
I1
ssS'issue3'
p1588
(dp1589
g422
I1
sg424
I1
sg425
I1
sg426
I1
sg429
I1
sg430
I1
ssS'='
p1590
(dp1591
g1516
I1
ssS'rider'
p1592
(dp1593
g55
I1
ssS'continuous'
p1594
(dp1595
g680
I1
ssS'allow'
p1596
(dp1597
g133
I1
sg183
I1
ssS'trace'
p1598
(dp1599
S'file3.txt,line.no:32'
p1600
I1
ssS'track'
p1601
(dp1602
g619
I2
sg135
I1
sg185
I1
ssS'object'
p1603
(dp1604
g1570
I1
sg720
I1
sg1014
I1
sg119
I1
sg189
I1
sg120
I1
sg482
I1
sg230
I1
sg1571
I1
sg496
I1
ssS'sequence'
p1605
(dp1606
g818
I1
sg819
I1
sg224
I1
sg820
I1
sg821
I1
sg823
I1
sg824
I1
sg825
I1
sg826
I1
sg827
I1
sg828
I1
sg829
I1
ssS'most'
p1607
(dp1608
g746
I1
sg237
I1
sg25
I1
ssS'involving'
p1609
(dp1610
g20
I1
ssS'73'
p1611
(dp1612
g623
I1
ssS'jul'
p1613
(dp1614
g396
I1
ssS'(cell'
p1615
(dp1616
g626
I1
ssS'device'
p1617
(dp1618
g706
I1
sg573
I1
sg162
I1
sg1516
I1
sg163
I1
ssS'class'
p1619
(dp1620
g96
I1
sg364
I1
sg1409
I1
sg365
I1
sg59
I1
sg927
I1
sg1511
I1
sg98
I1
sg149
I1
sg1514
I1
ssS'rbkrishna22@gmailcom'
p1621
(dp1622
g882
I1
ssS'slides'
p1623
(dp1624
g182
I1
ssS'fills'
p1625
(dp1626
g230
I1
ssS'mobile'
p1627
(dp1628
g31
I1
sg170
I1
sg180
I1
sg351
I1
sg680
I1
sg174
I1
sg705
I1
sg126
I1
sg424
I1
sg425
I1
sg429
I1
sg706
I1
sg323
I1
sg422
I1
sg426
I1
sg137
I1
sg190
I1
sg39
I1
sg191
I1
sg707
I1
sg354
I1
sg341
I1
sg237
I1
sg596
I1
sg626
I1
sg227
I1
sg1582
I1
sg868
I1
sg428
I1
sg430
I1
ssS'incomplete'
p1629
(dp1630
g364
I1
ssS'professor'
p1631
(dp1632
g117
I1
sg653
I1
sS'file2.txt,line.no:227'
p1633
I1
sg918
I1
sg144
I1
sg975
I1
sS'file2.txt,line.no:90'
p1634
I1
sg994
I1
sg1184
I1
sg1517
I1
sg129
I1
sg612
I1
sg765
I1
sg154
I1
sS'file2.txt,line.no:122'
p1635
I1
sg156
I1
sg413
I1
sg161
I1
sg479
I1
sS'file2.txt,line.no:58'
p1636
I1
sg504
I1
sS'file2.txt,line.no:74'
p1637
I1
ssS'incompatible'
p1638
(dp1639
g169
I1
ssS'[7]'
p1640
(dp1641
g388
I1
sg246
I1
sg1052
I1
sg627
I1
ssS'mohapatra1'
p1642
(dp1643
g270
I1
ssS'error'
p1644
(dp1645
g364
I1
sg202
I1
sg481
I1
sg49
I1
sg370
I1
sg1585
I1
ssS'technical'
p1646
(dp1647
g91
I1
ssS'fact'
p1648
(dp1649
g619
I1
ssS'joining'
p1650
(dp1651
g62
I1
ssS'precise'
p1652
(dp1653
g177
I1
ssS'walking'
p1654
(dp1655
g223
I1
ssS'didn\xe2\x80\x99t'
p1656
(dp1657
g137
I1
ssS'text'
p1658
(dp1659
g486
I1
sg484
I1
ssS'able'
p1660
(dp1661
g104
I1
sg165
I1
ssS'2319-7242'
p1662
(dp1663
g423
I1
ssS'506g'
p1664
(dp1665
g429
I1
ssS'session'
p1666
(dp1667
g1184
I1
sg510
I1
sg62
I1
sg365
I1
sg80
I1
sg369
I1
sg140
I1
sg88
I1
sg481
I1
sg994
I1
sg368
I1
sg479
I1
sg137
I1
sg612
I1
sg993
I1
sg370
I1
sg507
I1
ssS'radio'
p1668
(dp1669
g141
I1
sg1087
I1
ssS'solutions'
p1670
(dp1671
g132
I1
ssS'sub-system'
p1672
(dp1673
g43
I1
ssS'keywords'
p1674
(dp1675
g740
I1
ssS'freeride'
p1676
(dp1677
g222
I1
sg223
I1
ssS'overwhelmed'
p1678
(dp1679
g137
I1
ssS'impact'
p1680
(dp1681
g123
I1
ssS'current'
p1682
(dp1683
g68
I1
sg769
I1
sg185
I1
ssS'socket()'
p1684
(dp1685
g445
I1
ssS'based'
p1686
(dp1687
g42
I1
sg379
I1
sg185
I1
sg1103
I1
sg294
I1
sg747
I1
ssS'just'
p1688
(dp1689
g518
I1
ssS'implementation'
p1690
(dp1691
g357
I1
sg52
I1
sg382
I1
ssS'true'
p1692
(dp1693
g518
I1
ssS'undying'
p1694
(dp1695
g194
I1
ssS'specified'
p1696
(dp1697
g365
I1
ssS'state'
p1698
(dp1699
g1011
I1
ssS'controls'
p1700
(dp1701
g189
I1
ssS'than'
p1702
(dp1703
g675
I1
sg439
I1
ssS'only'
p1704
(dp1705
g1515
I1
sg131
I1
sg596
I1
sg1082
I1
ssS'smallest'
p1706
(dp1707
g361
I1
ssS'geologist'
p1708
(dp1709
g91
I1
ssS'inherited'
p1710
(dp1711
g627
I1
ssS'8'
p1712
(dp1713
g16
I1
sg802
I1
ssS'b'
p1714
(dp1715
S'file3.txt,line.no:80'
p1716
I1
sS'file3.txt,line.no:119'
p1717
I1
ssS'local'
p1718
(dp1719
g591
I1
ssS'accurate'
p1720
(dp1721
g1095
I1
sg1082
I1
ssS'achieve'
p1722
(dp1723
g122
I1
ssS'undiscovered'
p1724
(dp1725
g1585
I1
ssS'meant'
p1726
(dp1727
g35
I1
ssS'do'
p1728
(dp1729
g97
I1
sg132
I1
sg133
I1
sg391
I2
sg3
I1
ssS'insight'
p1730
(dp1731
g234
I1
ssS'positioning'
p1732
(dp1733
g665
I1
ssS'get'
p1734
(dp1735
g55
I1
sg165
I1
sg35
I1
ssS'low-energy'
p1736
(dp1737
g868
I1
ssS'ijcsmc'
p1738
(dp1739
g7
I1
sg8
I1
sg9
I1
sg11
I1
sg6
I1
sg1067
I1
sg14
I1
ssS'adventurers'
p1740
(dp1741
g25
I1
ssS'between'
p1742
(dp1743
g706
I1
sg1516
I1
sg165
I1
sg186
I1
sg59
I1
sg74
I1
sg318
I1
sg1517
I1
ssS'stop'
p1744
(dp1745
g1515
I1
sg197
I1
sg172
I1
sg176
I1
ssS'2min'
p1746
(dp1747
g297
I1
ssS'satisfied'
p1748
(dp1749
g727
I1
ssS'listener'
p1750
(dp1751
g117
I1
ssS'famous'
p1752
(dp1753
g665
I1
ssS'cannot'
p1754
(dp1755
g354
I1
ssS'124'
p1756
(dp1757
g1570
I1
ssS'fastest'
p1758
(dp1759
g237
I1
ssS'new'
p1760
(dp1761
g20
I1
sg173
I1
sg300
I1
sg284
I1
sg261
I1
sg192
I1
sg234
I1
ssS'report'
p1762
(dp1763
g155
I1
sg348
I1
sg728
I1
ssS'during'
p1764
(dp1765
g137
I2
sg379
I1
ssS'checkattention()'
p1766
(dp1767
g241
I1
ssS'procedures'
p1768
(dp1769
g42
I1
sg555
I1
ssS'socket(string)'
p1770
(dp1771
g448
I1
ssS'processes'
p1772
(dp1773
g931
I1
sg39
I1
ssS'user\xe2\x80\x99s'
p1774
(dp1775
g1600
I1
sg680
I2
ssS'bar'
p1776
(dp1777
g171
I1
ssS'countries'
p1778
(dp1779
g150
I1
ssS'cought'
p1780
(dp1781
g55
I1
ssS'fields'
p1782
(dp1783
g726
I1
sg196
I1
ssS'us'
p1784
(dp1785
g707
I1
ssS'email'
p1786
(dp1787
g485
I1
sg486
I1
sg487
I1
ssS'underlying'
p1788
(dp1789
g181
I1
sg119
I1
ssS'schemes'
p1790
(dp1791
g122
I1
ssS'architecture'
p1792
(dp1793
g801
I1
sg331
I1
ssS'412'
p1794
(dp1795
g471
I1
ssS'413'
p1796
(dp1797
g472
I1
ssS'where'
p1798
(dp1799
g645
I1
sg331
I1
sg210
I1
ssS'[9'
p1800
(dp1801
g139
I1
ssS'enhanced'
p1802
(dp1803
g375
I1
ssS'view'
p1804
(dp1805
g173
I1
sg347
I1
sg155
I1
sg1082
I1
sg449
I2
sg515
I1
sg573
I1
ssS'plug-ins'
p1806
(dp1807
g148
I1
ssS'reference'
p1808
(dp1809
g120
I1
sg59
I1
sg119
I1
sg190
I1
ssS'httpwwwandroidincom'
p1810
(dp1811
S'file3.txt,line.no:154'
p1812
I1
ssS'float'
p1813
(dp1814
g277
I1
sg442
I1
sg443
I1
ssS'testing'
p1815
(dp1816
S'file3.txt,line.no:115'
p1817
I1
sg1403
I1
sS'file3.txt,line.no:113'
p1818
I1
sS'file3.txt,line.no:112'
p1819
I1
sg224
I1
sg807
I1
sg1717
I1
sg52
I2
sg1404
I1
sg336
I1
ssS'[4]'
p1820
(dp1821
g396
I1
sg801
I1
ssS'up'
p1822
(dp1823
g660
I1
ssS'connections'
p1824
(dp1825
g59
I1
ssS'collectively'
p1826
(dp1827
g154
I1
sg129
I1
ssS'login)'
p1828
(dp1829
g491
I1
ssS'computer'
p1830
(dp1831
g422
I1
sg423
I1
sg424
I1
sg425
I1
sg426
I1
sg750
I1
sg428
I1
sg429
I1
sg430
I1
ssS'college'
p1832
(dp1833
g131
I1
sg135
I1
sg280
I1
sg1582
I1
ssS'result'
p1834
(dp1835
g68
I1
ssS'trace-based'
p1836
(dp1837
g561
I1
ssS'sel'
p1838
(dp1839
g582
I1
ssS'45\xc2\xb0'
p1840
(dp1841
g900
I1
sg1126
I1
ssS'nalling'
p1842
(dp1843
g55
I1
ssS'asks'
p1844
(dp1845
g167
I1
ssS'threats'
p1846
(dp1847
g123
I2
ssS'interacting'
p1848
(dp1849
g96
I1
ssS'focuses'
p1850
(dp1851
g361
I1
ssS'don\xe2\x80\x99t'
p1852
(dp1853
g743
I1
ssS'(both'
p1854
(dp1855
g154
I1
sg129
I1
ssS'review'
p1856
(dp1857
g1215
I1
ssS'sites'
p1858
(dp1859
g834
I1
ssS'yet'
p1860
(dp1861
g1585
I1
ssS'3'
p1862
(dp1863
g599
I1
sg882
I1
sg442
I1
sg501
I1
sg820
I1
sg600
I1
sg1635
I1
sg1409
I1
sg1037
I1
sg242
I1
sg824
I1
sg875
I1
sg1226
I1
sg231
I1
sg110
I1
sg479
I1
sg1067
I1
sg765
I1
sg146
I1
sg250
I1
sg3
I1
ssS'future'
p1864
(dp1865
g132
I1
sg660
I1
sS'file3.txt,line.no:126'
p1866
I1
ssS'[2]'
p1867
(dp1868
g270
I1
sg1356
I1
ssS'probably'
p1869
(dp1870
g746
I1
ssS'boundary'
p1871
(dp1872
g472
I1
ssS'reading'
p1873
(dp1874
g453
I1
sg290
I1
sS'file2.txt,line.no:200'
p1875
I1
ssS'approach'
p1876
(dp1877
g746
I1
ssS'checks'
p1878
(dp1879
g294
I1
sg558
I1
sg77
I1
ssS'verification'
p1880
(dp1881
g361
I1
ssS'available'
p1882
(dp1883
g20
I1
sg779
I1
sg379
I1
sg1103
I1
sg596
I1
sg367
I1
sg1527
I1
ssS'we'
p1884
(dp1885
g310
I1
sg354
I1
sg1103
I1
sg22
I1
sg931
I1
sg12
I1
sg28
I1
sg921
I1
sg198
I1
sg922
I1
sg83
I1
sg137
I4
sg747
I2
sg234
I1
sg331
I1
sg382
I1
ssS'creating'
p1886
(dp1887
g630
I1
sg234
I1
sg370
I1
ssS'missing'
p1888
(dp1889
g143
I1
ssS'importance'
p1890
(dp1891
g931
I1
ssS'modify'
p1892
(dp1893
g768
I1
sg176
I1
ssS'connection)'
p1894
(dp1895
g650
I1
ssS'attention'
p1896
(dp1897
g1166
I1
sg518
I1
sg727
I1
sg365
I1
sg653
I1
sg558
I1
sg187
I1
sg413
I1
sg144
I1
sS'file2.txt,line.no:11'
p1898
I1
sg146
I1
sg385
I1
sg527
I1
ssS'flow'
p1899
(dp1900
g797
I1
sg798
I1
sg656
I1
sg657
I1
ssS'however'
p1901
(dp1902
g680
I1
ssS'implementing'
p1903
(dp1904
g28
I1
sg576
I1
ssS'job'
p1905
(dp1906
g91
I1
ssS'add'
p1907
(dp1908
g173
I1
sg164
I1
ssS'key'
p1909
(dp1910
g891
I1
ssS'accessed'
p1911
(dp1912
g80
I1
ssS'interface'
p1913
(dp1914
g183
I1
sg179
I1
ssS'article'
p1915
(dp1916
g1233
I1
ssS'jf'
p1917
(dp1918
g396
I1
ssS'onconnecteventlistener()'
p1919
(dp1920
g243
I1
ssS'problem'
p1921
(dp1922
g370
I1
sg1304
I1
ssS'improve'
p1923
(dp1924
g68
I1
ssS'both'
p1925
(dp1926
g844
I1
sg994
I1
sg918
I1
ssS'c'
p1927
(dp1928
g1404
I1
sS'file3.txt,line.no:96'
p1929
I1
ssS'z'
p1930
(dp1931
g900
I1
sg1126
I1
ssS'admin'
p1932
(dp1933
g198
I1
sg599
I1
sg600
I1
sg175
I2
sg176
I1
ssS'country'
p1934
(dp1935
g36
I1
ssS'ternet'
p1936
(dp1937
g834
I1
ssS'called'
p1938
(dp1939
g117
I1
sg284
I1
sg283
I1
sg1496
I1
sg388
I1
sg650
I1
sg1070
I1
sg491
I1
sg1052
I1
sg17
I1
ssS'etc'
p1940
(dp1941
g905
I1
ssS'connection'
p1942
(dp1943
g183
I1
sg1304
I1
sg388
I1
sg120
I1
sg13
I1
sg318
I1
sg1517
I1
sg573
I1
sg1052
I1
ssS'receives'
p1944
(dp1945
g1079
I1
sg975
I1
sg413
I1
ssS'focused'
p1946
(dp1947
g97
I1
ssS'login'
p1948
(dp1949
g180
I1
sg794
I1
sg795
I1
sg796
I1
sg799
I1
sg170
I1
sg367
I1
sg513
I1
sg729
I1
sg883
I1
sg175
I1
ssS'browser'
p1950
(dp1951
g174
I1
sg96
I1
ssS'otherwise'
p1952
(dp1953
g726
I1
ssS'navigators'
p1954
(dp1955
g25
I1
ssS'author'
p1956
(dp1957
g728
I1
ssS'study'
p1958
(dp1959
g728
I1
ssS'point'
p1960
(dp1961
g573
I1
ssS'simple'
p1962
(dp1963
g132
I1
sg433
I1
sg301
I1
sg35
I1
ssS'overview'
p1964
(dp1965
g359
I1
sg358
I1
ssS'others'
p1966
(dp1967
g743
I1
sg566
I1
ssS'lingasangeethgj@gmailcom'
p1968
(dp1969
g882
I1
ssS'running'
p1970
(dp1971
g190
I1
ssS'exploit'
p1972
(dp1973
g187
I1
ssS'63'
p1974
(dp1975
g622
I1
ssS'privacy-preserving'
p1976
(dp1977
g122
I1
sg124
I1
sg227
I1
ssS'upgrades'
p1978
(dp1979
g1087
I1
ssS'leads'
p1980
(dp1981
g121
I1
ssS'allocated'
p1982
(dp1983
g779
I1
ssS'oncreate(bundle'
p1984
(dp1985
g247
I1
ssS'conference'
p1986
(dp1987
g427
I1
ssS'it-enabled'
p1988
(dp1989
g310
I1
ssS'java'
p1990
(dp1991
g323
I1
ssS'enhancements'
p1992
(dp1993
g660
I1
sg1866
I1
ssS'accelerometer'
p1994
(dp1995
g452
I1
sg958
I1
sg1875
I1
ssS'basis'
p1996
(dp1997
g65
I1
ssS'march-'
p1998
(dp1999
g422
I1
sg424
I1
sg425
I1
sg426
I1
sg429
I1
sg430
I1
ssS'trajectory'
p2000
(dp2001
g868
I1
ssS'create'
p2002
(dp2003
g148
I1
ssS'window'
p2004
(dp2005
g630
I1
sg304
I1
ssS'been'
p2006
(dp2007
g366
I1
sg122
I1
sg688
I1
sg993
I1
ssS'interfaced'
p2008
(dp2009
g292
I1
ssS'node-mysql'
p2010
(dp2011
g293
I1
ssS'trigger'
p2012
(dp2013
g117
I1
sg157
I1
ssS'teamwork'
p2014
(dp2015
g931
I1
ssS'pg'
p2016
(dp2017
g422
I1
sg424
I1
sg425
I1
sg426
I1
sg429
I1
sg430
I1
ssS'boston'
p2018
(dp2019
S'file3.txt,line.no:147'
p2020
I1
ssS'collected'
p2021
(dp2022
g293
I1
ssS'507'
p2023
(dp2024
g1067
I1
sS'file3.txt,line.no:156'
p2025
I1
ssS'entered'
p2026
(dp2027
g143
I1
ssS'empty'
p2028
(dp2029
g726
I1
sg49
I1
ssS'4'
p2030
(dp2031
g797
I1
sg798
I1
sg364
I1
sg365
I1
sg882
I1
sg366
I1
sg824
I1
sg675
I1
sg246
I1
sg821
I1
sg370
I1
sg829
I1
sg581
I1
sg481
I1
sg825
I1
sg449
I1
sg62
I1
sg369
I1
sg367
I1
sg822
I1
sg49
I1
sg1067
I1
ssS'username'
p2032
(dp2033
g875
I1
sg49
I1
ssS'life'
p2034
(dp2035
g707
I1
sg354
I1
ssS'disclosing'
p2036
(dp2037
g121
I1
ssS'corresponding'
p2038
(dp2039
g168
I1
sg164
I1
ssS'driver\xe2\x80\x99s'
p2040
(dp2041
g174
I1
ssS'83'
p2042
(dp2043
g620
I1
ssS'instantiated'
p2044
(dp2045
g1517
I1
ssS'route'
p2046
(dp2047
g116
I1
sg180
I1
sg300
I2
sg176
I1
sg164
I1
sg101
I1
ssS'0\xc2\xb0'
p2048
(dp2049
g900
I1
sg1126
I1
ssS'j2ee'
p2050
(dp2051
g139
I1
sg21
I1
ssS'modelling'
p2052
(dp2053
g1169
I1
ssS'controller'
p2054
(dp2055
g471
I1
ssS'lives'
p2056
(dp2057
g207
I1
ssS'turn'
p2058
(dp2059
g555
I1
ssS'encapsulation'
p2060
(dp2061
g95
I1
ssS'instructor'
p2062
(dp2063
g183
I1
sg182
I1
sg165
I1
sg178
I1
sg1518
I1
sg318
I1
ssS'tamil'
p2064
(dp2065
g280
I1
ssS'present'
p2066
(dp2067
g746
I1
sg190
I1
sg1082
I1
ssS'instantiates'
p2068
(dp2069
g482
I1
sg10
I1
sg17
I1
ssS'case'
p2070
(dp2071
g181
I1
sg619
I1
sg49
I1
sg514
I1
sg336
I1
sg596
I1
sg202
I1
ssS'has'
p2072
(dp2073
g173
I1
sg180
I1
sg1226
I1
sg164
I2
sg354
I1
sg171
I1
sg706
I1
sg366
I1
sg391
I1
sg688
I1
sg1184
I2
sg110
I1
sg170
I1
sg504
I1
sg993
I1
sg202
I1
sg161
I1
ssS'look'
p2074
(dp2075
g125
I1
ssS'developing'
p2076
(dp2077
g433
I1
ssS'frozen'
p2078
(dp2079
g1011
I1
ssS'2011'
p2080
(dp2081
g403
I2
sg2020
I1
ssS'dimarzio'
p2082
(dp2083
g396
I1
ssS'engineering'
p2084
(dp2085
g280
I1
sg423
I1
ssS'evaluated'
p2086
(dp2087
g382
I1
ssS'sensoreventlisteneronsensorchanged(sensorevent'
p2088
(dp2089
g283
I1
ssS'will'
p2090
(dp2091
g152
I1
sg162
I1
sg165
I1
sg452
I1
sg292
I1
sg307
I1
sg293
I1
sg341
I1
sg1103
I1
sg186
I1
sg183
I1
sg179
I1
sg376
I1
sg591
I1
sg1517
I1
sg133
I1
sg331
I1
ssS'receive'
p2092
(dp2093
g104
I1
sg769
I1
ssS'hicking'
p2094
(dp2095
g222
I1
ssS'jacsi'
p2096
(dp2097
g280
I1
ssS'fleet'
p2098
(dp2099
g134
I1
ssS'guide'
p2100
(dp2101
g396
I1
ssS'launched'
p2102
(dp2103
g344
I1
sg601
I1
ssS'layer'
p2104
(dp2105
g304
I1
ssS'orientation'
p2106
(dp2107
g452
I1
sg900
I1
sg958
I1
sg1126
I1
ssS'nodejs'
p2108
(dp2109
g376
I1
sg591
I1
ssS'vol'
p2110
(dp2111
g1067
I1
ssS'socketclient'
p2112
(dp2113
g584
I1
ssS'person)'
p2114
(dp2115
g104
I1
ssS'ii'
p2116
(dp2117
S'file3.txt,line.no:40'
p2118
I1
ssS'it'
p2119
(dp2120
g116
I2
sg558
I1
sg975
I1
sg1517
I1
sg122
I1
sg184
I1
sg1082
I1
sg222
I1
sg391
I1
sg375
I1
sg151
I2
sg153
I1
sS'file2.txt,line.no:146'
p2121
I1
sg190
I1
sg192
I1
sg354
I1
sg341
I1
sg439
I1
sg313
I1
sg141
I1
sg207
I1
sg143
I1
ssS'encountered'
p2122
(dp2123
g370
I1
ssS'hardware'
p2124
(dp2125
g215
I1
sg1285
I1
ssS'(mobile'
p2126
(dp2127
g331
I1
ssS'unit'
p2128
(dp2129
g1817
I1
sg1819
I1
sg361
I2
ssS'vs'
p2130
(dp2131
g331
I1
ssS'malls'
p2132
(dp2133
g125
I1
ssS'35'
p2134
(dp2135
g347
I1
ssS'io'
p2136
(dp2137
g627
I1
ssS'in'
p2138
(dp2139
g43
I1
sg293
I1
sg555
I1
sg653
I2
sg171
I1
sg822
I1
sg80
I1
sg630
I1
sg994
I1
sg336
I1
sg801
I1
sg1095
I1
sg1082
I1
sg376
I1
sg318
I1
sg132
I1
sg770
I1
sg134
I1
sg188
I1
sg150
I1
sg130
I1
sg181
I1
sg688
I1
sg36
I1
sg331
I1
sg137
I1
sg190
I1
sg375
I1
sg223
I1
sg191
I1
sg1087
I2
sg354
I1
sg619
I1
sg1079
I1
sg196
I1
sg49
I1
sg280
I1
sg729
I1
sg504
I1
sg868
I1
sg15
I1
ssS'ready'
p2140
(dp2141
g150
I1
ssS'jemilda'
p2142
(dp2143
g422
I1
sg424
I1
sg425
I1
sg426
I1
sg429
I1
sg430
I1
ssS'technology'
p2144
(dp2145
g139
I1
sg750
I1
sg740
I1
sg184
I1
ssS'id'
p2146
(dp2147
g391
I1
sg180
I1
sg1079
I1
ssS'if'
p2148
(dp2149
g287
I1
sg151
I1
sg518
I1
sg176
I1
sg558
I1
sg101
I1
sg215
I1
sg366
I1
sg152
I1
sg142
I1
sg307
I1
sg370
I1
ssS'portray'
p2150
(dp2151
g187
I1
ssS'containing'
p2152
(dp2153
g1011
I1
sg486
I1
sg484
I1
ssS'develop'
p2154
(dp2155
g137
I1
ssS'tihanagalinacgrbac'
p2156
(dp2157
g113
I1
ssS'sensitive'
p2158
(dp2159
g121
I1
ssS'pay'
p2160
(dp2161
g146
I1
ssS'make'
p2162
(dp2163
g177
I1
ssS'[6]'
p2164
(dp2165
g46
I1
sg247
I1
ssS's'
p2166
(dp2167
g723
I2
ssS'flight\xe2\x80\x99s'
p2168
(dp2169
g905
I1
ssS'any'
p2170
(dp2171
g287
I1
sg176
I1
sg726
I1
sg196
I1
sg130
I1
sg134
I1
ssS'authentication'
p2172
(dp2173
g175
I1
ssS'verifies'
p2174
(dp2175
g485
I1
sg482
I1
ssS'potentially'
p2176
(dp2177
g126
I1
ssS'widely'
p2178
(dp2179
g313
I1
ssS'2]'
p2180
(dp2181
g139
I1
ssS'modification'
p2182
(dp2183
g768
I1
ssS'android'
p2184
(dp2185
g844
I2
sg705
I1
sg403
I1
sg292
I1
sg476
I1
sg396
I1
sg128
I1
sg313
I1
sg1812
I1
sg132
I1
sg433
I1
sg801
I1
sg382
I1
sg135
I1
ssS'attack'
p2186
(dp2187
g891
I1
ssS'development'
p2188
(dp2189
g746
I1
sg403
I1
sg83
I1
sg336
I1
sg39
I1
sg148
I1
ssS'requency'
p2190
(dp2191
g297
I1
ssS'satellite'
p2192
(dp2193
g25
I1
ssS'used'
p2194
(dp2195
g162
I1
sg185
I1
sg807
I1
sg126
I1
sg341
I1
sg186
I1
sg187
I1
sg313
I1
sg591
I1
sg132
I1
sg747
I1
sg134
I1
sg148
I1
ssS'same'
p2196
(dp2197
g417
I2
ssS'closest'
p2198
(dp2199
g141
I1
ssS'camera'
p2200
(dp2201
g28
I1
ssS'505g'
p2202
(dp2203
g422
I1
ssS'driver'
p2204
(dp2205
g174
I1
sg151
I2
sg152
I1
sg794
I1
sg795
I1
sg657
I1
sg180
I2
sg1929
I1
sg128
I1
sg656
I1
ssS'kit'
p2206
(dp2207
g436
I1
sg148
I1
ssS'436'
p2208
(dp2209
S'file2.txt,line.no:237'
p2210
I1
ssS'viewing'
p2211
(dp2212
g348
I1
ssS'portal'
p2213
(dp2214
g376
I1
sg198
I1
sg918
I1
ssS'user'
p2215
(dp2216
g1277
I1
sg183
I1
sg1409
I1
sg97
I1
sg630
I1
sg122
I1
sg68
I1
sg124
I1
sg746
I1
sg126
I1
sg875
I1
sg127
I1
sg130
I1
sg391
I2
sg770
I1
sg104
I1
sg348
I1
sg688
I1
sg883
I1
sg138
I1
sg726
I1
sg768
I2
sg1079
I2
sg729
I2
ssS'student'
p2217
(dp2218
g1516
I1
sg918
I1
sg994
I1
sg1184
I2
sg1517
I1
sg573
I1
sg146
I1
sg173
I1
sg600
I1
sg129
I1
sg318
I1
sg188
I1
sg181
I1
sg1166
I1
sg153
I1
sg154
I1
sg1414
I1
sg1304
I1
sg77
I1
sg158
I1
sg231
I1
sg159
I2
sg2121
I1
sg485
I1
sg433
I1
sg487
I1
sg1514
I1
sg161
I1
sg167
I1
sg479
I1
sg140
I1
sS'file2.txt,line.no:72'
p2219
I1
sg993
I1
sg1518
I1
ssS'attributes'
p2220
(dp2221
S'file2.txt,line.no:241'
p2222
I1
sS'file2.txt,line.no:198'
p2223
I1
sS'file2.txt,line.no:174'
p2224
I1
sS'file2.txt,line.no:139'
p2225
I1
sS'file2.txt,line.no:208'
p2226
I1
ssS'climbing'
p2227
(dp2228
g210
I1
ssS'requests'
p2229
(dp2230
g140
I1
sg883
I1
sg62
I1
ssS'single'
p2231
(dp2232
g97
I1
ssS'implements'
p2233
(dp2234
g157
I1
ssS'tracking'
p2235
(dp2236
g224
I1
sg126
I1
sg375
I1
sg891
I1
sg1582
I1
sg227
I1
sg91
I1
sg138
I1
ssS'scenario'
p2237
(dp2238
g818
I1
sg819
I1
sg820
I1
sg653
I1
sg821
I1
sg822
I1
sg823
I1
sg824
I1
sg825
I1
sg826
I1
sg827
I1
sg828
I1
sg829
I1
ssS'event)'
p2239
(dp2240
g283
I1
sg240
I1
ssS'changes'
p2241
(dp2242
g558
I1
ssS'uploading'
p2243
(dp2244
g128
I1
sg152
I1
ssS'433'
p2245
(dp2246
g408
I1
ssS'wants'
p2247
(dp2248
g130
I1
ssS'person'
p2249
(dp2250
g65
I1
ssS'client'
p2251
(dp2252
g116
I2
sg168
I1
sg170
I1
sg184
I1
sg1716
I1
sg797
I1
sg798
I1
sg101
I1
sg171
I1
sg1415
I1
sg119
I1
sg796
I1
sg626
I1
sg675
I1
sg181
I1
sg584
I1
sg799
I1
sg770
I1
sg307
I1
ssS'services'
p2253
(dp2254
g147
I1
sg185
I1
ssS'robigrgurina'
p2255
(dp2256
g113
I1
sg433
I1
ssS'components'
p2257
(dp2258
g43
I1
sg142
I1
ssS'sets'
p2259
(dp2260
g558
I1
ssS'y'
p2261
(dp2262
g900
I1
sg1126
I1
ssS'position'
p2263
(dp2264
g253
I1
sg207
I1
sg65
I1
sg596
I1
sg25
I1
ssS'model'
p2265
(dp2266
g1570
I1
sg1014
I1
sg1571
I1
sg496
I1
sg720
I1
ssS'sensing'
p2267
(dp2268
g427
I1
ssS'left'
p2269
(dp2270
g922
I1
ssS'distances'
p2271
(dp2272
g1087
I1
ssS'(x'
p2273
(dp2274
g900
I1
sg1126
I1
ssS'stores'
p2275
(dp2276
g2121
I1
ssS'proposed'
p2277
(dp2278
g122
I1
sg375
I1
ssS'acknowledgement'
p2279
(dp2280
g367
I1
sg369
I1
ssS'when'
p2281
(dp2282
g116
I1
sg344
I1
sg162
I1
sg284
I1
sg1052
I1
sg157
I1
sg769
I1
sg388
I1
sg481
I1
sg601
I1
sg188
I1
sg385
I1
sg17
I1
ssS'proximity'
p2283
(dp2284
g452
I1
sg290
I1
ssS'jemildajeba@yahoocom'
p2285
(dp2286
g882
I1
ssS'actions'
p2287
(dp2288
g58
I1
sg797
I1
sg657
I1
ssS'43'
p2289
(dp2290
g1511
I1
ssS'proposes'
p2291
(dp2292
g705
I1
sg107
I1
sg665
I1
ssS'stored'
p2293
(dp2294
g293
I1
ssS'identify'
p2295
(dp2296
g196
I1
ssS'victim'
p2297
(dp2298
g207
I1
ssS'world'
p2299
(dp2300
g150
I1
ssS'followed'
p2301
(dp2302
g770
I1
sg130
I1
ssS'paul'
p2303
(dp2304
g270
I1
ssS'device\xe2\x80\x99s'
p2305
(dp2306
g153
I1
ssS'previous'
p2307
(dp2308
g688
I1
ssS'web'
p2309
(dp2310
g379
I1
sg626
I1
sg675
I1
sg196
I1
sg198
I1
sg729
I1
sg179
I1
sg770
I1
sg834
I1
sg436
I1
ssS'enters'
p2311
(dp2312
g481
I1
sg1409
I1
sg479
I1
ssS'traker'
p2313
(dp2314
g800
I1
ssS'ma'
p2315
(dp2316
g2020
I1
ssS'instance'
p2317
(dp2318
g1095
I1
ssS'[5]'
p2319
(dp2320
g801
I1
sg1812
I1
ssS'\xe2\x80\x9can'
p2321
(dp2322
g270
I1
ssS'buses'
p2323
(dp2324
g131
I1
sg705
I1
sg135
I1
ssS'had'
p2325
(dp2326
g191
I1
sg922
I1
ssS'spinner'
p2327
(dp2328
g116
I1
sg168
I1
sg151
I1
ssS'source'
p2329
(dp2330
g746
I1
sg747
I1
ssS'lets'
p2331
(dp2332
g153
I1
ssS'brainstorming'
p2333
(dp2334
g137
I1
ssS'location'
p2335
(dp2336
g151
I1
sg152
I1
sg185
I2
sg1095
I1
sg307
I1
sg101
I1
sg769
I1
sg1082
I1
sg127
I2
sg304
I1
sg891
I1
sg121
I2
sg227
I1
sg124
I1
sg197
I1
sg680
I1
ssS'easy'
p2337
(dp2338
g191
I1
ssS'input'
p2339
(dp2340
g480
I1
sg483
I1
sg1011
I1
sg487
I1
sg1373
I1
ssS'save'
p2341
(dp2342
g207
I1
ssS'remaining'
p2343
(dp2344
g184
I1
ssS'real'
p2345
(dp2346
g770
I1
sg165
I1
ssS'makes'
p2347
(dp2348
g707
I1
ssS'tests'
p2349
(dp2350
g142
I1
ssS'march'
p2351
(dp2352
g1067
I1
sg2020
I1
ssS'adversaries'
p2353
(dp2354
g126
I1
ssS'exploiting'
p2355
(dp2356
g680
I1
ssS'characters'
p2357
(dp2358
g726
I1
ssS'advances'
p2359
(dp2360
g1087
I1
ssS'showing'
p2361
(dp2362
g561
I1
sg161
I1
ssS'online'
p2363
(dp2364
g844
I1
sg1527
I1
ssS'department'
p2365
(dp2366
g280
I1
ssS'know'
p2367
(dp2368
g137
I1
ssS'interfaces'
p2369
(dp2370
g1282
I1
sg1270
I1
sg1277
I1
sg1285
I1
sg576
I1
ssS'using'
p2371
(dp2372
g42
I1
sg184
I1
sg452
I1
sg292
I1
sg28
I1
sg891
I1
sg417
I1
ssS'bit'
p2373
(dp2374
g22
I1
ssS'password'
p2375
(dp2376
g875
I1
sg675
I1
sg49
I1
sg485
I1
sg486
I1
sg487
I1
ssS'string'
p2377
(dp2378
g583
I1
sg1373
I1
sg178
I1
sg585
I1
sg588
I1
ssS'desc'
p2379
(dp2380
g453
I1
sg118
I1
sg290
I1
sg1875
I1
sg1155
I1
sg558
I1
sg10
I1
sg119
I1
sg1154
I1
sg482
I1
sg190
I1
sg488
I1
sg284
I1
sg178
I1
sg1304
I1
sg1166
I1
sg518
I1
sg153
I1
sg291
I1
sg157
I1
sg189
I1
sg59
I1
sg2121
I1
sg485
I1
sg17
I1
sg167
I1
sg13
I1
ssS'effectiveness'
p2381
(dp2382
g561
I1
ssS'like'
p2383
(dp2384
g68
I1
sg313
I1
sg91
I1
sg222
I1
sg136
I1
ssS'reconstruct'
p2385
(dp2386
g1600
I1
ssS'obvious'
p2387
(dp2388
g313
I1
ssS'signal'
p2389
(dp2390
g141
I1
ssS'53'
p2391
(dp2392
g621
I1
ssS'server'
p2393
(dp2394
g601
I1
sg344
I1
sg117
I1
sg152
I1
sg2210
I1
sg253
I1
sg168
I1
sg885
I1
sg480
I1
sg118
I1
sg482
I1
sg127
I1
sg484
I1
sg483
I1
sg104
I1
sg369
I1
sg488
I1
sg15
I1
ssS'telephony'
p2395
(dp2396
g304
I1
ssS'communications'
p2397
(dp2398
g1087
I1
sg1270
I1
ssS'indication'
p2399
(dp2400
g107
I1
ssS'always'
p2401
(dp2402
g193
I1
sg707
I1
sg341
I1
sg194
I1
ssS'popular'
p2403
(dp2404
g351
I1
ssS'output'
p2405
(dp2406
g120
I1
sg244
I1
sg249
I1
sg248
I1
sg245
I1
ssS'security'
p2407
(dp2408
g223
I1
ssS'works'
p2409
(dp2410
g1515
I1
ssS'page'
p2411
(dp2412
g599
I1
sg600
I1
sg794
I1
sg795
I1
sg796
I1
sg799
I1
sg196
I1
sg729
I1
sg883
I1
ssS'[1]'
p2413
(dp2414
g1095
I1
sg187
I1
sg723
I1
ssS'making'
p2415
(dp2416
g375
I1
ssS'nsdi'
p2417
(dp2418
g868
I1
ssS'(integer)'
p2419
(dp2420
g1079
I1
ssS'because'
p2421
(dp2422
g234
I1
sg922
I1
ssS'methods'
p2423
(dp2424
S'file2.txt,line.no:179'
p2425
I1
sS'file2.txt,line.no:150'
p2426
I1
sS'file2.txt,line.no:219'
p2427
I1
sS'file2.txt,line.no:246'
p2428
I1
sS'file2.txt,line.no:234'
p2429
I1
ssS'savedinstancestate)'
p2430
(dp2431
g247
I1
ssS'sends'
p2432
(dp2433
g178
I1
sg156
I1
sg161
I1
ssS'mcgraw-hill'
p2434
(dp2435
g396
I1
ssS'creation'
p2436
(dp2437
g369
I1
sg130
I1
ssS'some'
p2438
(dp2439
g137
I1
sg366
I1
sg223
I1
sg922
I1
sg83
I1
ssS'searching'
p2440
(dp2441
g1082
I1
ssS'library'
p2442
(dp2443
g98
I1
sg292
I1
sg591
I1
ssS'l'
p2444
(dp2445
g723
I2
ssS'exposes'
p2446
(dp2447
g147
I1
ssS'114'
p2448
(dp2449
g1571
I1
ssS'application)use'
p2450
(dp2451
g15
I1
ssS'developments'
p2452
(dp2453
g191
I1
ssS'gyroscopic'
p2454
(dp2455
g958
I1
ssS'434'
p2456
(dp2457
g1036
I1
ssS'5'
p2458
(dp2459
g582
I1
sg796
I1
sg799
I1
sg158
I1
sg820
I1
sg159
I1
ssS'matching'
p2460
(dp2461
g891
I1
ssS'attentionflagchanged'
p2462
(dp2463
g581
I1
ssS'total'
p2464
(dp2465
g413
I1
ssS'attendees'
p2466
(dp2467
g1898
I1
ssS'tracked'
p2468
(dp2469
g184
I1
ssS'for'
p2470
(dp2471
g116
I1
sg168
I1
sg727
I1
sg224
I1
sg198
I1
sg171
I1
sg365
I1
sg10
I1
sg113
I1
sg868
I1
sg125
I1
sg931
I2
sg122
I1
sg124
I1
sg844
I1
sg184
I1
sg1095
I2
sg187
I1
sg1082
I1
sg127
I1
sg128
I1
sg222
I1
sg905
I1
sg376
I1
sg318
I1
sg104
I1
sg91
I1
sg446
I1
sg151
I1
sg96
I1
sg35
I1
sg379
I1
sg807
I1
sg101
I1
sg159
I1
sg62
I1
sg433
I1
sg28
I1
sg779
I2
sg707
I1
sg566
I1
sg167
I1
sg227
I1
sg1582
I1
sg141
I1
sg207
I1
sg456
I1
sg3
I1
ssS'notification'
p2472
(dp2473
g769
I1
ssS'avoid'
p2474
(dp2475
g354
I1
ssS'recorded'
p2476
(dp2477
g1079
I1
sg688
I1
sg80
I1
ssS'extensively'
p2478
(dp2479
g561
I1
ssS'stops'
p2480
(dp2481
g168
I1
sg198
I1
sg164
I1
ssS'8th'
p2482
(dp2483
g868
I1
ssS'a)'
p2484
(dp2485
g1516
I1
ssS'does'
p2486
(dp2487
g645
I1
sg215
I1
ssS'market'
p2488
(dp2489
g261
I1
sg193
I1
ssS'innovation'
p2490
(dp2491
g192
I1
ssS'bus\xe2\x80\x99s'
p2492
(dp2493
g127
I1
ssS'displayed'
p2494
(dp2495
g307
I1
sg171
I1
sg16
I1
sg164
I1
ssS'refer'
p2496
(dp2497
g139
I1
ssS'measuring'
p2498
(dp2499
g177
I1
sg187
I1
ssS'be'
p2500
(dp2501
g727
I1
sg165
I1
sg80
I1
sg1517
I1
sg126
I1
sg186
I1
sg376
I1
sg591
I1
sg132
I1
sg770
I1
sg134
I1
sg375
I1
sg150
I1
sg130
I2
sg152
I1
sg379
I1
sg307
I1
sg157
I1
sg210
I1
sg452
I1
sg645
I1
sg162
I1
sg192
I2
sg292
I1
sg293
I1
sg341
I1
sg566
I1
sg1103
I1
sg726
I1
sg626
I1
sg660
I1
sg675
I1
sg729
I1
ssS'who'
p2502
(dp2503
g34
I1
sg130
I1
ssS'run'
p2504
(dp2505
g201
I1
sg323
I1
ssS'business'
p2506
(dp2507
g237
I1
ssS'<='
p2508
(dp2509
g297
I1
ssS'performed'
p2510
(dp2511
g224
I1
ssS'reach'
p2512
(dp2513
g197
I1
sg184
I1
ssS'journal'
p2514
(dp2515
g422
I1
sg423
I1
sg424
I1
sg425
I1
sg426
I1
sg750
I1
sg428
I1
sg429
I1
sg430
I1
ssS'communicate'
p2516
(dp2517
g181
I1
sg194
I1
ssS'how'
p2518
(dp2519
g197
I1
ssS'step'
p2520
(dp2521
g820
I1
sg821
I1
sg824
I1
sg822
I1
sg825
I1
sg828
I1
sg829
I1
ssS'assists'
p2522
(dp2523
g1082
I1
ssS'432'
p2524
(dp2525
g1151
I1
ssS'\xe2\x80\x93server'
p2526
(dp2527
g184
I1
ssS'described'
p2528
(dp2529
g683
I1
sg15
I1
ssS'by'
p2530
(dp2531
g117
I2
sg1052
I1
sg80
I1
sg452
I1
sg283
I1
sg1070
I1
sg1496
I1
sg1103
I1
sg166
I1
sg388
I1
sg126
I1
sg994
I1
sg650
I1
sg479
I1
sg55
I1
sg1637
I1
sg491
I1
sg375
I1
sg653
I1
sg436
I1
ssS'panel'
p2532
(dp2533
g150
I1
ssS'on'
p2534
(dp2535
g42
I1
sg65
I1
sg361
I1
sg294
I1
sg891
I1
sg1517
I1
sg1082
I1
sg25
I1
sg427
I1
sg770
I1
sg104
I1
sg20
I1
sg261
I1
sg323
I1
sg307
I1
sg22
I1
sg859
I1
sg747
I1
sg39
I1
sg382
I1
sg139
I1
sg191
I1
sg197
I1
sg341
I1
sg1103
I1
sg675
I1
sg55
I1
sg301
I1
sg16
I1
ssS'about'
p2536
(dp2537
g121
I1
sg705
I1
sg341
I1
sg834
I1
sg1304
I1
ssS'ad-'
p2538
(dp2539
g369
I1
ssS'actual'
p2540
(dp2541
g1600
I1
ssS'socket'
p2542
(dp2543
g118
I1
sg162
I1
sg591
I1
sg186
I1
sg1155
I1
sg181
I1
sg96
I1
sg447
I2
sg1415
I1
sg885
I1
sg1154
I1
sg120
I1
sg587
I1
sg482
I1
sg13
I1
sg1151
I1
sg653
I1
sg2210
I1
sg183
I1
ssS'getting'
p2544
(dp2545
g25
I1
ssS'instantaneously'
p2546
(dp2547
g194
I1
ssS'of'
p2548
(dp2549
g921
I2
sg650
I1
sg123
I2
sg680
I1
sg851
I1
sg126
I1
sg425
I1
sg127
I1
sg177
I1
sg130
I1
sg515
I1
sg375
I1
sg429
I1
sg365
I1
sg922
I1
sg137
I2
sg39
I1
sg491
I1
sg487
I1
sg561
I1
sg138
I1
sg287
I1
sg728
I2
sg21
I2
sg65
I1
sg446
I2
sg52
I2
sg207
I1
sg665
I2
sg301
I1
sg71
I1
sg202
I2
sg43
I1
sg224
I1
sg555
I1
sg361
I1
sg931
I1
sg1517
I1
sg573
I1
sg234
I1
sg801
I1
sg828
I1
sg488
I1
sg423
I1
sg366
I1
sg824
I1
sg416
I1
sg104
I1
sg369
I1
sg150
I1
sg829
I1
sg20
I1
sg1166
I1
sg151
I1
sg152
I1
sg348
I1
sg422
I1
sg554
I3
sg22
I1
sg820
I1
sg825
I1
sg413
I1
sg1898
I2
sg797
I2
sg798
I1
sg1409
I1
sg769
I1
sg173
I1
sg600
I1
sg300
I1
sg424
I1
sg656
I1
sg307
I1
sg101
I1
sg657
I2
sg426
I1
sg310
I2
sg280
I1
sg750
I1
sg428
I1
sg430
I1
sg794
I1
sg653
I1
sg630
I1
sg986
I1
sg185
I1
sg821
I1
sg28
I1
sg318
I1
sg227
I1
sg2121
I1
sg707
I1
sg354
I1
sg237
I1
sg768
I1
sg49
I1
sg197
I1
ssS'industry'
p2550
(dp2551
g237
I1
ssS'accepts'
p2552
(dp2553
g104
I1
sg159
I1
ssS'accepted'
p2554
(dp2555
g161
I1
ssS'o'
p2556
(dp2557
g1403
I1
sg1818
I1
sg1819
I1
ssS'simulation'
p2558
(dp2559
g561
I1
ssS'monthly'
p2560
(dp2561
g750
I1
ssS'regular'
p2562
(dp2563
g65
I1
ssS'stand'
p2564
(dp2565
g188
I1
ssS'alert'
p2566
(dp2567
g769
I1
ssS'constructor'
p2568
(dp2569
g444
I1
sg448
I1
sg445
I1
ssS'notifies'
p2570
(dp2571
g146
I1
ssS'os'
p2572
(dp2573
g382
I1
ssS'or'
p2574
(dp2575
g173
I1
sg223
I1
sg210
I1
sg176
I1
sg164
I1
sg169
I1
sg31
I1
sg566
I1
sg36
I1
sg626
I1
sg12
I1
sg369
I1
ssS'road'
p2576
(dp2577
g446
I1
sg36
I1
ssS'software'
p2578
(dp2579
g807
I1
sg554
I2
sg1282
I1
sg360
I1
sg361
I1
sg177
I1
sg747
I1
sg142
I1
sg148
I1
ssS'emit(string)'
p2580
(dp2581
g246
I1
ssS'integration'
p2582
(dp2583
g142
I1
sg1818
I1
sg1717
I1
ssS'contains'
p2584
(dp2585
g196
I1
ssS'presence'
p2586
(dp2587
g310
I1
ssS'previously'
p2588
(dp2589
g1011
I1
ssS'communication'
p2590
(dp2591
g186
I1
sg707
I1
sg427
I1
sg591
I1
ssS'into'
p2592
(dp2593
g234
I1
sg993
I1
sg150
I1
sg918
I1
ssS'within'
p2594
(dp2595
g747
I1
sg110
I1
ssS'\xe2\x80\x9cshow'
p2596
(dp2597
g307
I1
ssS'rendering'
p2598
(dp2599
g958
I1
ssS'appropriate'
p2600
(dp2601
g58
I1
ssS'google'
p2602
(dp2603
g16
I1
sg802
I1
ssS'references'
p2604
(dp2605
S'file3.txt,line.no:144'
p2606
I1
ssS'determine'
p2607
(dp2608
g142
I1
ssS'bool'
p2609
(dp2610
g581
I1
sg501
I1
ssS'nowadays'
p2611
(dp2612
g261
I1
ssS'often'
p2613
(dp2614
g207
I1
ssS'statistics'
p2615
(dp2616
g165
I1
sg365
I1
ssS'span'
p2617
(dp2618
g1898
I1
ssS'notified'
p2619
(dp2620
g653
I1
ssS'opengl'
p2621
(dp2622
g436
I1
ssS'u5'
p2623
(dp2624
g347
I1
ssS'u4'
p2625
(dp2626
g527
I1
ssS'there'
p2627
(dp2628
g416
I1
sg43
I1
sg645
I1
sg284
I1
sg456
I1
ssS'u1'
p2629
(dp2630
g513
I1
ssS'madden'
p2631
(dp2632
g723
I1
ssS'u3'
p2633
(dp2634
g507
I1
ssS'u2'
p2635
(dp2636
g510
I1
ssS'start'
p2637
(dp2638
g619
I1
sg1515
I1
sg117
I1
sg650
I1
sg128
I1
ssS'500-507'
p2639
(dp2640
g422
I1
sg424
I1
sg425
I1
sg426
I1
sg429
I1
sg430
I1
ssS'lot'
p2641
(dp2642
g416
I1
sg20
I1
ssS'h'
p2643
(dp2644
g723
I1
ssS'was'
p2645
(dp2646
g192
I1
sg747
I1
sg39
I1
sg68
I1
ssS'triggered'
p2647
(dp2648
g388
I1
sg1052
I1
ssS'enough'
p2649
(dp2650
g215
I2
ssS'handler'
p2651
(dp2652
g491
I1
sg650
I1
ssS'saurabh'
p2653
(dp2654
g1122
I1
ssS'devices\xe2\x80\x9d'
p2655
(dp2656
g868
I1
ssS'but'
p2657
(dp2658
g131
I1
sg122
I1
sg104
I1
sg191
I1
sg391
I1
ssS'sophisticated'
p2659
(dp2660
g12
I1
sg191
I1
ssS'wireless'
p2661
(dp2662
g591
I1
ssS'link'
p2663
(dp2664
g706
I1
ssS'bmtc'
p2665
(dp2666
g375
I1
ssS'relational'
p2667
(dp2668
g293
I1
ssS'level'
p2669
(dp2670
g921
I1
ssS'with'
p2671
(dp2672
g261
I1
sg779
I1
sg491
I1
sg986
I1
sg185
I1
sg310
I1
sg182
I1
sg96
I1
sg31
I1
sg80
I1
sg619
I1
sg391
I1
sg630
I1
sg921
I1
sg484
I1
sg137
I1
sg504
I1
sg107
I1
sg202
I1
ssS'he'
p2673
(dp2674
g173
I1
sg174
I2
sg300
I1
sg175
I1
sg164
I2
sg769
I1
sg481
I1
ssS'directed'
p2675
(dp2676
g479
I1
ssS'activitystartconnection'
p2677
(dp2678
g1070
I1
ssS'paragliding'
p2679
(dp2680
g210
I1
ssS'zhu'
p2681
(dp2682
g351
I1
ssS'places'
p2683
(dp2684
g851
I1
sS'file2.txt,line.no:137'
p2685
I1
ssS'transmits'
p2686
(dp2687
g141
I1
ssS'requesting'
p2688
(dp2689
g368
I1
ssS'\xc2\xa9'
p2690
(dp2691
g7
I1
sg8
I1
sg9
I1
sg11
I1
sg6
I1
sg14
I1
ssS'devices'
p2692
(dp2693
g165
I1
sg1103
I1
sg166
I1
sg186
I1
sg12
I1
sg1518
I1
sg318
I1
sg859
I1
sg1517
I1
sg446
I1
ssS'url'
p2694
(dp2695
g585
I1
ssS'below'
p2696
(dp2697
g600
I1
sg794
I1
sg224
I1
sg797
I1
sg657
I1
sg799
I1
ssS'ui'
p2698
(dp2699
g117
I1
sg630
I1
sg650
I1
sg190
I1
sg491
I1
sg1514
I1
ssS'authorization'
p2700
(dp2701
g175
I1
ssS'ug'
p2702
(dp2703
g280
I1
ssS'location-based'
p2704
(dp2705
g921
I1
ssS'display'
p2706
(dp2707
g182
I1
sg149
I1
sg986
I1
ssS'distance'
p2708
(dp2709
g1516
I1
sg166
I1
ssS'gone'
p2710
(dp2711
g354
I1
ssS'his'
p2712
(dp2713
g504
I1
ssS'vehicles'
p2714
(dp2715
g131
I1
ssS'associated'
p2716
(dp2717
g123
I1
ssS'25cm(approx)'
p2718
(dp2719
g1516
I1
ssS'computing'
p2720
(dp2721
g422
I1
sg424
I1
sg425
I1
sg426
I1
sg428
I1
sg429
I1
sg430
I1
ssS'defined'
p2722
(dp2723
g137
I1
sg336
I1
sg138
I1
ssS'request'
p2724
(dp2725
g159
I1
ssS'abstract'
p2726
(dp2727
g705
I1
ssS'johnvasu87@gmailcom'
p2728
(dp2729
g882
I1
ssS'al'
p2730
(dp2731
g422
I1
sg424
I1
sg425
I1
sg426
I1
sg430
I1
sg433
I1
sg429
I1
sg351
I1
ssS'general'
p2732
(dp2733
g800
I1
ssS'proper'
p2734
(dp2735
g727
I1
ssS'as'
p2736
(dp2737
g844
I2
sg645
I1
sg224
I1
sg185
I2
sg154
I1
sg416
I1
sg31
I1
sg931
I1
sg660
I1
sg313
I1
sg129
I1
sg125
I1
sg417
I1
sg479
I1
sg55
I2
sg123
I2
sg201
I1
sg385
I1
ssS'exist'
p2738
(dp2739
g43
I1
sg222
I1
ssS'at'
p2740
(dp2741
g820
I1
sg1087
I1
sg821
I1
sg828
I1
sg824
I1
sg12
I1
sg825
I1
sg1184
I1
sg822
I1
sg1527
I1
sg829
I1
ssS'et'
p2742
(dp2743
g422
I1
sg424
I1
sg425
I1
sg426
I1
sg430
I1
sg433
I1
sg429
I1
sg351
I1
ssS'check'
p2744
(dp2745
g127
I1
ssS'user)'
p2746
(dp2747
g154
I1
sg129
I1
ssS'incorrect'
p2748
(dp2749
g481
I1
sg49
I1
ssS'functions'
p2750
(dp2751
g958
I1
sg555
I1
ssS'completeness'
p2752
(dp2753
g807
I1
ssS'initiated'
p2754
(dp2755
g993
I1
sg994
I1
ssS'string)'
p2756
(dp2757
g587
I1
sg250
I1
ssS'way'
p2758
(dp2759
g186
I1
ssS'\xe2\x80\x9cdevelopment'
p2760
(dp2761
g113
I1
ssS'42'
p2762
(dp2763
g359
I1
sg927
I1
ssS'authenticate(string'
p2764
(dp2765
g250
I1
ssS'41'
p2766
(dp2767
g74
I1
sg1169
I1
ssS'application'
p2768
(dp2769
g798
I1
sg170
I1
sg601
I1
sg147
I2
sg705
I1
sg403
I1
sg179
I1
sg376
I1
sg133
I1
sg135
I1
sg344
I1
sg180
I1
sg656
I1
sg323
I1
sg379
I1
sg83
I1
sg137
I1
sg190
I1
sg433
I1
sg779
I1
sg645
I1
sg626
I1
sg1582
I1
sg456
I1
ssS'other'
p2770
(dp2771
g127
I1
sg851
I1
sg779
I1
sg134
I1
ssS'actors'
p2772
(dp2773
g154
I1
sg1634
I1
sg110
I1
sg1636
I1
sg129
I1
sg2219
I1
sg3
I2
ssS'details'
p2774
(dp2775
g173
I1
sg600
I1
sg300
I1
sg169
I1
sg101
I1
sg1409
I1
sg136
I1
sg195
I1
sg875
I1
sg80
I1
sg2121
I1
sg68
I1
sg149
I1
sg364
I1
ssS'better'
p2776
(dp2777
g439
I1
ssS'test'
p2778
(dp2779
g42
I1
sg361
I1
sg83
I1
sg142
I1
sg71
I1
sg202
I1
ssS'otherwiseuding'
p2780
(dp2781
g436
I1
ssS'developers'
p2782
(dp2783
g1812
I1
ssS'elements'
p2784
(dp2785
g190
I1
sg630
I1
sg1514
I1
ssS'users'
p2786
(dp2787
g121
I1
sg779
I1
sg130
I1
ssS'\xe2\x80\x9cstart\xe2\x80\x9d'
p2788
(dp2789
g151
I1
ssS'pg500'
p2790
(dp2791
g1067
I1
ssS'students'
p2792
(dp2793
g173
I1
sg183
I1
sg182
I1
sg1103
I1
sg166
I1
sg187
I1
sg573
I1
sg413
I1
ssS'monitor()'
p2794
(dp2795
g444
I1
ssS'norm'
p2796
(dp2797
g294
I1
ssS'update'
p2798
(dp2799
g162
I1
ssS'bundle'
p2800
(dp2801
g1011
I1
ssS'bazari'
p2802
(dp2803
g1122
I1
ssS'(views)'
p2804
(dp2805
g1514
I1
ssS'in-'
p2806
(dp2807
g301
I1
ssS'important'
p2808
(dp2809
g223
I1
ssS'intent'
p2810
(dp2811
g202
I1
ssS'establish'
p2812
(dp2813
g183
I1
ssS'serious'
p2814
(dp2815
g210
I1
ssS'formal'
p2816
(dp2817
g931
I1
ssS'evaluates'
p2818
(dp2819
g294
I1
ssS'zhu1'
p2820
(dp2821
g270
I1
ssS'\xe2\x80\x93'
p2822
(dp2823
g1067
I1
sg740
I1
ssS'algorithm'
p2824
(dp2825
g1095
I1
sg727
I1
ssS'vol4'
p2826
(dp2827
g422
I1
sg424
I1
sg425
I1
sg426
I1
sg429
I1
sg430
I1
ssS'assume'
p2828
(dp2829
g310
I1
sg12
I1
sg1103
I1
ssS'starting'
p2830
(dp2831
g728
I1
ssS'required'
p2832
(dp2833
g366
I1
sg765
I1
sg1409
I1
sg986
I1
ssS'modules'
p2834
(dp2835
g554
I1
ssS'insufficiency'
p2836
(dp2837
g336
I1
ssS'daily'
p2838
(dp2839
g121
I1
sg132
I1
sg707
I1
ssS'reports'
p2840
(dp2841
g347
I1
ssS'agnostically'
p2842
(dp2843
g147
I1
ssS'goran'
p2844
(dp2845
g113
I1
ssS'came'
p2846
(dp2847
g172
I1
ssS'brestovac'
p2848
(dp2849
g113
I1
ssS'time'
p2850
(dp2851
g137
I1
sg197
I1
sg770
I1
sg165
I1
sg184
I1
ssS'rotationmatrix[16]'
p2852
(dp2853
g442
I1
ssS'understand'
p2854
(dp2855
g931
I1
ssS'2008'
p2856
(dp2857
g396
I1
ssS'accidents'
p2858
(dp2859
g210
I1
ssS'requires'
p2860
(dp2861
g844
I1
ssS'having'
p2862
(dp2863
g707
I1
sg210
I1
ssS'once'
p2864
(dp2865
g768
I1
ss.