(dp0
S'file2.txt,line.no:152'
p1
I5
sS'file2.txt,line.no:153'
p2
I6
sS'file2.txt,line.no:150'
p3
I1
sS'file2.txt,line.no:151'
p4
I5
sS'file2.txt,line.no:156'
p5
I12
sS'file2.txt,line.no:157'
p6
I6
sS'file2.txt,line.no:154'
p7
I13
sS'file2.txt,line.no:155'
p8
I10
sS'file2.txt,line.no:158'
p9
I9
sS'file2.txt,line.no:159'
p10
I2
sS'file2.txt,line.no:43'
p11
I3
sS'file2.txt,line.no:42'
p12
I11
sS'file2.txt,line.no:41'
p13
I15
sS'file2.txt,line.no:40'
p14
I3
sS'file2.txt,line.no:47'
p15
I12
sS'file2.txt,line.no:46'
p16
I3
sS'file2.txt,line.no:45'
p17
I5
sS'file2.txt,line.no:44'
p18
I10
sS'file2.txt,line.no:49'
p19
I7
sS'file2.txt,line.no:48'
p20
I4
sS'file3.txt,line.no:59'
p21
I14
sS'file3.txt,line.no:58'
p22
I13
sS'file3.txt,line.no:57'
p23
I42
sS'file3.txt,line.no:56'
p24
I17
sS'file3.txt,line.no:55'
p25
I15
sS'file3.txt,line.no:54'
p26
I13
sS'file3.txt,line.no:53'
p27
I2
sS'file3.txt,line.no:52'
p28
I10
sS'file3.txt,line.no:51'
p29
I12
sS'file3.txt,line.no:50'
p30
I16
sS'file4.txt,line.no:38'
p31
I17
sS'file4.txt,line.no:39'
p32
I14
sS'file4.txt,line.no:30'
p33
I15
sS'file4.txt,line.no:31'
p34
I14
sS'file4.txt,line.no:32'
p35
I15
sS'file4.txt,line.no:33'
p36
I11
sS'file4.txt,line.no:34'
p37
I14
sS'file4.txt,line.no:35'
p38
I9
sS'file4.txt,line.no:36'
p39
I13
sS'file4.txt,line.no:37'
p40
I14
sS'file3.txt,line.no:100'
p41
I8
sS'file3.txt,line.no:101'
p42
I13
sS'file3.txt,line.no:102'
p43
I20
sS'file3.txt,line.no:103'
p44
I18
sS'file3.txt,line.no:104'
p45
I14
sS'file3.txt,line.no:105'
p46
I5
sS'file3.txt,line.no:106'
p47
I6
sS'file3.txt,line.no:107'
p48
I18
sS'file3.txt,line.no:108'
p49
I13
sS'file3.txt,line.no:109'
p50
I15
sS'file2.txt,line.no:129'
p51
I2
sS'file2.txt,line.no:128'
p52
I3
sS'file2.txt,line.no:123'
p53
I3
sS'file2.txt,line.no:122'
p54
I2
sS'file2.txt,line.no:121'
p55
I2
sS'file2.txt,line.no:120'
p56
I2
sS'file2.txt,line.no:127'
p57
I3
sS'file2.txt,line.no:126'
p58
I2
sS'file2.txt,line.no:125'
p59
I4
sS'file2.txt,line.no:124'
p60
I4
sS'file2.txt,line.no:38'
p61
I14
sS'file2.txt,line.no:39'
p62
I13
sS'file2.txt,line.no:32'
p63
I15
sS'file2.txt,line.no:33'
p64
I14
sS'file2.txt,line.no:30'
p65
I8
sS'file2.txt,line.no:31'
p66
I4
sS'file2.txt,line.no:36'
p67
I15
sS'file2.txt,line.no:37'
p68
I13
sS'file2.txt,line.no:34'
p69
I16
sS'file2.txt,line.no:35'
p70
I3
sS'file3.txt,line.no:9'
p71
I13
sS'file3.txt,line.no:8'
p72
I6
sS'file3.txt,line.no:7'
p73
I2
sS'file3.txt,line.no:6'
p74
I10
sS'file3.txt,line.no:5'
p75
I2
sS'file3.txt,line.no:4'
p76
I9
sS'file3.txt,line.no:3'
p77
I8
sS'file3.txt,line.no:2'
p78
I4
sS'file3.txt,line.no:1'
p79
I18
sS'file2.txt,line.no:228'
p80
I8
sS'file2.txt,line.no:229'
p81
I8
sS'file2.txt,line.no:224'
p82
I4
sS'file2.txt,line.no:225'
p83
I5
sS'file2.txt,line.no:226'
p84
I13
sS'file2.txt,line.no:227'
p85
I2
sS'file2.txt,line.no:220'
p86
I4
sS'file2.txt,line.no:221'
p87
I3
sS'file2.txt,line.no:222'
p88
I13
sS'file2.txt,line.no:223'
p89
I1
sS'file3.txt,line.no:13'
p90
I17
sS'file3.txt,line.no:12'
p91
I18
sS'file3.txt,line.no:11'
p92
I16
sS'file3.txt,line.no:10'
p93
I11
sS'file3.txt,line.no:17'
p94
I5
sS'file3.txt,line.no:16'
p95
I9
sS'file3.txt,line.no:15'
p96
I18
sS'file3.txt,line.no:14'
p97
I21
sS'file3.txt,line.no:19'
p98
I1
sS'file3.txt,line.no:18'
p99
I1
sS'file3.txt,line.no:139'
p100
I20
sS'file3.txt,line.no:138'
p101
I14
sS'file3.txt,line.no:131'
p102
I16
sS'file3.txt,line.no:130'
p103
I16
sS'file3.txt,line.no:133'
p104
I6
sS'file3.txt,line.no:132'
p105
I15
sS'file3.txt,line.no:135'
p106
I16
sS'file3.txt,line.no:134'
p107
I18
sS'file3.txt,line.no:137'
p108
I4
sS'file3.txt,line.no:136'
p109
I15
sS'file2.txt,line.no:169'
p110
I4
sS'file2.txt,line.no:168'
p111
I4
sS'file2.txt,line.no:167'
p112
I7
sS'file2.txt,line.no:166'
p113
I11
sS'file2.txt,line.no:165'
p114
I8
sS'file2.txt,line.no:164'
p115
I14
sS'file2.txt,line.no:163'
p116
I7
sS'file2.txt,line.no:162'
p117
I5
sS'file2.txt,line.no:161'
p118
I7
sS'file2.txt,line.no:160'
p119
I13
sS'file2.txt,line.no:78'
p120
I10
sS'file2.txt,line.no:79'
p121
I12
sS'file2.txt,line.no:76'
p122
I8
sS'file2.txt,line.no:77'
p123
I3
sS'file2.txt,line.no:74'
p124
I3
sS'file2.txt,line.no:75'
p125
I4
sS'file2.txt,line.no:72'
p126
I3
sS'file2.txt,line.no:73'
p127
I14
sS'file2.txt,line.no:70'
p128
I11
sS'file2.txt,line.no:71'
p129
I4
sS'file2.txt,line.no:94'
p130
I4
sS'file2.txt,line.no:95'
p131
I16
sS'file2.txt,line.no:96'
p132
I10
sS'file2.txt,line.no:97'
p133
I9
sS'file2.txt,line.no:90'
p134
I3
sS'file2.txt,line.no:91'
p135
I14
sS'file2.txt,line.no:92'
p136
I16
sS'file2.txt,line.no:93'
p137
I5
sS'file3.txt,line.no:62'
p138
I14
sS'file3.txt,line.no:63'
p139
I13
sS'file3.txt,line.no:60'
p140
I13
sS'file3.txt,line.no:61'
p141
I16
sS'file2.txt,line.no:98'
p142
I9
sS'file2.txt,line.no:99'
p143
I8
sS'file3.txt,line.no:64'
p144
I8
sS'file3.txt,line.no:65'
p145
I11
sS'file4.txt,line.no:29'
p146
I12
sS'file4.txt,line.no:28'
p147
I5
sS'file4.txt,line.no:23'
p148
I14
sS'file4.txt,line.no:22'
p149
I6
sS'file4.txt,line.no:21'
p150
I15
sS'file4.txt,line.no:20'
p151
I41
sS'file4.txt,line.no:27'
p152
I12
sS'file4.txt,line.no:26'
p153
I12
sS'file4.txt,line.no:25'
p154
I14
sS'file4.txt,line.no:24'
p155
I11
sS'file2.txt,line.no:215'
p156
I4
sS'file2.txt,line.no:214'
p157
I5
sS'file2.txt,line.no:217'
p158
I4
sS'file2.txt,line.no:216'
p159
I8
sS'file2.txt,line.no:211'
p160
I4
sS'file2.txt,line.no:210'
p161
I9
sS'file2.txt,line.no:213'
p162
I4
sS'file2.txt,line.no:212'
p163
I4
sS'file2.txt,line.no:219'
p164
I1
sS'file2.txt,line.no:218'
p165
I12
sS'file2.txt,line.no:185'
p166
I9
sS'file2.txt,line.no:184'
p167
I4
sS'file2.txt,line.no:187'
p168
I10
sS'file2.txt,line.no:186'
p169
I2
sS'file2.txt,line.no:181'
p170
I3
sS'file2.txt,line.no:180'
p171
I4
sS'file2.txt,line.no:183'
p172
I11
sS'file2.txt,line.no:182'
p173
I4
sS'file2.txt,line.no:189'
p174
I9
sS'file2.txt,line.no:188'
p175
I4
sS'file2.txt,line.no:109'
p176
I11
sS'file2.txt,line.no:231'
p177
I8
sS'file2.txt,line.no:134'
p178
I3
sS'file2.txt,line.no:135'
p179
I14
sS'file2.txt,line.no:136'
p180
I16
sS'file2.txt,line.no:137'
p181
I1
sS'file2.txt,line.no:130'
p182
I3
sS'file2.txt,line.no:131'
p183
I9
sS'file2.txt,line.no:132'
p184
I3
sS'file2.txt,line.no:133'
p185
I3
sS'file2.txt,line.no:138'
p186
I4
sS'file2.txt,line.no:139'
p187
I1
sS'file2.txt,line.no:25'
p188
I5
sS'file2.txt,line.no:24'
p189
I13
sS'file2.txt,line.no:27'
p190
I14
sS'file2.txt,line.no:26'
p191
I15
sS'file2.txt,line.no:21'
p192
I3
sS'file2.txt,line.no:20'
p193
I11
sS'file2.txt,line.no:23'
p194
I14
sS'file2.txt,line.no:22'
p195
I14
sS'file2.txt,line.no:177'
p196
I4
sS'file2.txt,line.no:29'
p197
I16
sS'file2.txt,line.no:28'
p198
I9
sS'file2.txt,line.no:238'
p199
I13
sS'file2.txt,line.no:250'
p200
I1
sS'file3.txt,line.no:28'
p201
I15
sS'file3.txt,line.no:29'
p202
I1
sS'file3.txt,line.no:26'
p203
I16
sS'file3.txt,line.no:27'
p204
I12
sS'file3.txt,line.no:24'
p205
I16
sS'file3.txt,line.no:25'
p206
I16
sS'file3.txt,line.no:22'
p207
I14
sS'file3.txt,line.no:23'
p208
I6
sS'file3.txt,line.no:20'
p209
I15
sS'file3.txt,line.no:21'
p210
I13
sS'file4.txt,line.no:52'
p211
I13
sS'file4.txt,line.no:53'
p212
I12
sS'file4.txt,line.no:50'
p213
I14
sS'file4.txt,line.no:51'
p214
I16
sS'file4.txt,line.no:56'
p215
I13
sS'file4.txt,line.no:54'
p216
I10
sS'file4.txt,line.no:55'
p217
I16
sS'file3.txt,line.no:128'
p218
I9
sS'file3.txt,line.no:129'
p219
I14
sS'file3.txt,line.no:122'
p220
I3
sS'file3.txt,line.no:123'
p221
I14
sS'file3.txt,line.no:120'
p222
I13
sS'file3.txt,line.no:121'
p223
I5
sS'file3.txt,line.no:126'
p224
I2
sS'file3.txt,line.no:127'
p225
I14
sS'file3.txt,line.no:124'
p226
I20
sS'file3.txt,line.no:125'
p227
I5
sS'file2.txt,line.no:178'
p228
I3
sS'file2.txt,line.no:179'
p229
I1
sS'file2.txt,line.no:170'
p230
I11
sS'file2.txt,line.no:171'
p231
I14
sS'file2.txt,line.no:172'
p232
I11
sS'file2.txt,line.no:173'
p233
I4
sS'file2.txt,line.no:174'
p234
I1
sS'file2.txt,line.no:175'
p235
I4
sS'file2.txt,line.no:176'
p236
I6
sS'file2.txt,line.no:108'
p237
I4
sS'file2.txt,line.no:69'
p238
I15
sS'file2.txt,line.no:68'
p239
I8
sS'file2.txt,line.no:61'
p240
I7
sS'file2.txt,line.no:60'
p241
I4
sS'file2.txt,line.no:63'
p242
I7
sS'file2.txt,line.no:62'
p243
I11
sS'file2.txt,line.no:65'
p244
I1
sS'file2.txt,line.no:64'
p245
I13
sS'file2.txt,line.no:67'
p246
I14
sS'file2.txt,line.no:66'
p247
I8
sS'file4.txt,line.no:16'
p248
I15
sS'file4.txt,line.no:17'
p249
I14
sS'file4.txt,line.no:14'
p250
I11
sS'file4.txt,line.no:15'
p251
I4
sS'file4.txt,line.no:12'
p252
I7
sS'file4.txt,line.no:13'
p253
I10
sS'file4.txt,line.no:10'
p254
I15
sS'file4.txt,line.no:11'
p255
I14
sS'file2.txt,line.no:105'
p256
I12
sS'file2.txt,line.no:104'
p257
I5
sS'file2.txt,line.no:107'
p258
I4
sS'file2.txt,line.no:106'
p259
I14
sS'file2.txt,line.no:101'
p260
I5
sS'file2.txt,line.no:100'
p261
I14
sS'file4.txt,line.no:18'
p262
I12
sS'file2.txt,line.no:102'
p263
I12
sS'file2.txt,line.no:87'
p264
I9
sS'file2.txt,line.no:86'
p265
I8
sS'file2.txt,line.no:85'
p266
I7
sS'file2.txt,line.no:84'
p267
I15
sS'file2.txt,line.no:83'
p268
I8
sS'file2.txt,line.no:103'
p269
I3
sS'file2.txt,line.no:81'
p270
I5
sS'file2.txt,line.no:80'
p271
I13
sS'file2.txt,line.no:230'
p272
I6
sS'file4.txt,line.no:19'
p273
I16
sS'file2.txt,line.no:89'
p274
I5
sS'file2.txt,line.no:88'
p275
I15
sS'file2.txt,line.no:18'
p276
I14
sS'file2.txt,line.no:19'
p277
I4
sS'file2.txt,line.no:14'
p278
I12
sS'file2.txt,line.no:15'
p279
I11
sS'file2.txt,line.no:16'
p280
I3
sS'file2.txt,line.no:17'
p281
I13
sS'file2.txt,line.no:10'
p282
I14
sS'file2.txt,line.no:11'
p283
I7
sS'file2.txt,line.no:12'
p284
I3
sS'file2.txt,line.no:13'
p285
I14
sS'file2.txt,line.no:82'
p286
I13
sS'file2.txt,line.no:206'
p287
I12
sS'file2.txt,line.no:207'
p288
I4
sS'file2.txt,line.no:204'
p289
I4
sS'file2.txt,line.no:205'
p290
I2
sS'file2.txt,line.no:202'
p291
I5
sS'file2.txt,line.no:203'
p292
I4
sS'file2.txt,line.no:200'
p293
I4
sS'file2.txt,line.no:201'
p294
I4
sS'file3.txt,line.no:80'
p295
I2
sS'file3.txt,line.no:81'
p296
I11
sS'file3.txt,line.no:82'
p297
I7
sS'file3.txt,line.no:83'
p298
I15
sS'file3.txt,line.no:84'
p299
I19
sS'file3.txt,line.no:85'
p300
I17
sS'file2.txt,line.no:208'
p301
I1
sS'file2.txt,line.no:209'
p302
I4
sS'file3.txt,line.no:75'
p303
I19
sS'file3.txt,line.no:74'
p304
I18
sS'file3.txt,line.no:77'
p305
I5
sS'file3.txt,line.no:76'
p306
I12
sS'file3.txt,line.no:71'
p307
I19
sS'file3.txt,line.no:70'
p308
I13
sS'file3.txt,line.no:73'
p309
I19
sS'file3.txt,line.no:72'
p310
I18
sS'file3.txt,line.no:79'
p311
I18
sS'file3.txt,line.no:78'
p312
I6
sS'file2.txt,line.no:196'
p313
I2
sS'file2.txt,line.no:197'
p314
I6
sS'file2.txt,line.no:194'
p315
I2
sS'file2.txt,line.no:195'
p316
I7
sS'file2.txt,line.no:192'
p317
I5
sS'file2.txt,line.no:193'
p318
I3
sS'file2.txt,line.no:190'
p319
I2
sS'file2.txt,line.no:191'
p320
I6
sS'file2.txt,line.no:198'
p321
I1
sS'file2.txt,line.no:199'
p322
I5
sS'file2.txt,line.no:239'
p323
I15
sS'file3.txt,line.no:153'
p324
I11
sS'file3.txt,line.no:152'
p325
I11
sS'file3.txt,line.no:151'
p326
I9
sS'file3.txt,line.no:150'
p327
I7
sS'file3.txt,line.no:156'
p328
I1
sS'file3.txt,line.no:155'
p329
I6
sS'file3.txt,line.no:154'
p330
I4
sS'file2.txt,line.no:141'
p331
I11
sS'file2.txt,line.no:140'
p332
I4
sS'file2.txt,line.no:143'
p333
I14
sS'file2.txt,line.no:142'
p334
I4
sS'file2.txt,line.no:145'
p335
I4
sS'file2.txt,line.no:144'
p336
I4
sS'file2.txt,line.no:147'
p337
I4
sS'file2.txt,line.no:146'
p338
I8
sS'file2.txt,line.no:149'
p339
I3
sS'file2.txt,line.no:148'
p340
I15
sS'file2.txt,line.no:50'
p341
I3
sS'file2.txt,line.no:51'
p342
I7
sS'file2.txt,line.no:52'
p343
I10
sS'file2.txt,line.no:53'
p344
I9
sS'file2.txt,line.no:54'
p345
I7
sS'file2.txt,line.no:55'
p346
I14
sS'file2.txt,line.no:56'
p347
I1
sS'file2.txt,line.no:57'
p348
I4
sS'file2.txt,line.no:58'
p349
I3
sS'file2.txt,line.no:59'
p350
I10
sS'file3.txt,line.no:88'
p351
I18
sS'file2.txt,line.no:248'
p352
I12
sS'file2.txt,line.no:249'
p353
I7
sS'file3.txt,line.no:89'
p354
I17
sS'file2.txt,line.no:242'
p355
I4
sS'file2.txt,line.no:243'
p356
I3
sS'file2.txt,line.no:240'
p357
I4
sS'file2.txt,line.no:241'
p358
I1
sS'file2.txt,line.no:246'
p359
I1
sS'file2.txt,line.no:247'
p360
I4
sS'file2.txt,line.no:244'
p361
I4
sS'file2.txt,line.no:245'
p362
I9
sS'file3.txt,line.no:48'
p363
I14
sS'file3.txt,line.no:49'
p364
I11
sS'file3.txt,line.no:44'
p365
I13
sS'file3.txt,line.no:45'
p366
I14
sS'file3.txt,line.no:46'
p367
I17
sS'file3.txt,line.no:47'
p368
I14
sS'file3.txt,line.no:40'
p369
I1
sS'file3.txt,line.no:41'
p370
I2
sS'file3.txt,line.no:42'
p371
I12
sS'file3.txt,line.no:43'
p372
I13
sS'file3.txt,line.no:39'
p373
I6
sS'file3.txt,line.no:38'
p374
I15
sS'file3.txt,line.no:31'
p375
I15
sS'file3.txt,line.no:30'
p376
I12
sS'file3.txt,line.no:33'
p377
I6
sS'file3.txt,line.no:32'
p378
I5
sS'file3.txt,line.no:35'
p379
I13
sS'file3.txt,line.no:34'
p380
I18
sS'file3.txt,line.no:37'
p381
I17
sS'file3.txt,line.no:36'
p382
I13
sS'file4.txt,line.no:49'
p383
I14
sS'file4.txt,line.no:48'
p384
I15
sS'file4.txt,line.no:45'
p385
I18
sS'file4.txt,line.no:44'
p386
I14
sS'file4.txt,line.no:47'
p387
I6
sS'file4.txt,line.no:46'
p388
I6
sS'file4.txt,line.no:41'
p389
I13
sS'file4.txt,line.no:40'
p390
I13
sS'file4.txt,line.no:43'
p391
I3
sS'file4.txt,line.no:42'
p392
I11
sS'file3.txt,line.no:86'
p393
I6
sS'file3.txt,line.no:87'
p394
I14
sS'file4.txt,line.no:4'
p395
I13
sS'file4.txt,line.no:5'
p396
I7
sS'file4.txt,line.no:6'
p397
I11
sS'file4.txt,line.no:7'
p398
I12
sS'file4.txt,line.no:1'
p399
I8
sS'file4.txt,line.no:2'
p400
I14
sS'file4.txt,line.no:3'
p401
I13
sS'file4.txt,line.no:8'
p402
I14
sS'file4.txt,line.no:9'
p403
I7
sS'file3.txt,line.no:117'
p404
I13
sS'file3.txt,line.no:116'
p405
I13
sS'file3.txt,line.no:115'
p406
I3
sS'file3.txt,line.no:114'
p407
I3
sS'file3.txt,line.no:113'
p408
I3
sS'file3.txt,line.no:112'
p409
I3
sS'file3.txt,line.no:111'
p410
I13
sS'file3.txt,line.no:110'
p411
I9
sS'file3.txt,line.no:119'
p412
I3
sS'file3.txt,line.no:118'
p413
I14
sS'file5.txt,line.no:1'
p414
I5
sS'file5.txt,line.no:2'
p415
I7
sS'file1.txt,line.no:1'
p416
I1
sS'file1.txt,line.no:2'
p417
I9
sS'file2.txt,line.no:118'
p418
I3
sS'file2.txt,line.no:119'
p419
I3
sS'file2.txt,line.no:116'
p420
I9
sS'file2.txt,line.no:117'
p421
I4
sS'file2.txt,line.no:114'
p422
I8
sS'file2.txt,line.no:115'
p423
I14
sS'file2.txt,line.no:112'
p424
I11
sS'file2.txt,line.no:113'
p425
I14
sS'file2.txt,line.no:110'
p426
I16
sS'file2.txt,line.no:111'
p427
I1
sS'file2.txt,line.no:233'
p428
I7
sS'file2.txt,line.no:232'
p429
I2
sS'file3.txt,line.no:99'
p430
I17
sS'file3.txt,line.no:98'
p431
I7
sS'file2.txt,line.no:237'
p432
I4
sS'file2.txt,line.no:236'
p433
I10
sS'file2.txt,line.no:235'
p434
I5
sS'file2.txt,line.no:234'
p435
I1
sS'file3.txt,line.no:93'
p436
I5
sS'file3.txt,line.no:92'
p437
I8
sS'file3.txt,line.no:91'
p438
I19
sS'file3.txt,line.no:90'
p439
I18
sS'file3.txt,line.no:97'
p440
I11
sS'file3.txt,line.no:96'
p441
I2
sS'file3.txt,line.no:95'
p442
I18
sS'file3.txt,line.no:94'
p443
I6
sS'file3.txt,line.no:68'
p444
I11
sS'file3.txt,line.no:69'
p445
I2
sS'file2.txt,line.no:8'
p446
I3
sS'file2.txt,line.no:9'
p447
I14
sS'file2.txt,line.no:2'
p448
I8
sS'file2.txt,line.no:3'
p449
I17
sS'file2.txt,line.no:1'
p450
I2
sS'file2.txt,line.no:6'
p451
I3
sS'file2.txt,line.no:7'
p452
I6
sS'file2.txt,line.no:4'
p453
I16
sS'file2.txt,line.no:5'
p454
I11
sS'file3.txt,line.no:66'
p455
I12
sS'file3.txt,line.no:67'
p456
I11
sS'file3.txt,line.no:148'
p457
I12
sS'file3.txt,line.no:149'
p458
I11
sS'file3.txt,line.no:144'
p459
I1
sS'file3.txt,line.no:145'
p460
I13
sS'file3.txt,line.no:146'
p461
I11
sS'file3.txt,line.no:147'
p462
I4
sS'file3.txt,line.no:140'
p463
I21
sS'file3.txt,line.no:141'
p464
I10
sS'file3.txt,line.no:142'
p465
I18
sS'file3.txt,line.no:143'
p466
I2
s.