(dp0
S'website'
p1
(dp2
S'file1.txt,line.no:36'
p3
(lp4
S'pa'
p5
assS'auto-generated'
p6
(dp7
S'file1.txt,line.no:34'
p8
(lp9
S'certificates,'
p10
assS'registrations,'
p11
(dp12
S'file1.txt,line.no:32'
p13
(lp14
S'schools'
p15
asg3
(lp16
S'manage'
p17
assS'For'
p18
(dp19
g13
(lp20
S'Organizers:'
p21
asg3
(lp22
S'Admins:'
p23
asg8
(lp24
S'Students:'
p25
assS'Monthly'
p26
(dp27
g8
(lp28
S'online'
p29
assS'quizzes,'
p30
(dp31
g8
(lp32
S'download'
p33
assS'manage'
p34
(dp35
g13
(lp36
g11
asg3
(lp37
S'any'
p38
ag1
assS'coding'
p39
(dp40
S'file1.txt,line.no:29'
p41
(lp42
S'competitions'
p43
assg21
(dp44
g13
(lp45
S'An'
p46
assS'Indian'
p47
(dp48
S'file1.txt,line.no:4'
p49
(lp50
S'Institute'
p51
asS'file1.txt,line.no:16'
p52
(lp53
S'Institute'
p54
assS'at'
p55
(dp56
S'file1.txt,line.no:28'
p57
(lp58
S'CSEA'
p59
asS'file1.txt,line.no:31'
p60
(lp61
S'Technothlon'
p62
assS'CBSE'
p63
(dp64
S'file1.txt,line.no:18'
p65
(lp66
S'board'
p67
asS'file1.txt,line.no:17'
p68
(lp69
S'board'
p70
assg33
(dp71
g8
(lp72
g6
assS'Apurva'
p73
(dp74
S'file1.txt,line.no:1'
p75
(lp76
S'N'
p77
assS'Roll'
p78
(dp79
S'file1.txt,line.no:2'
p80
(lp81
S'Number:'
p82
assS'to'
p83
(dp84
g13
(lp85
S'upload'
p86
assS'IIT'
p87
(dp88
g57
(lp89
S'Guwahati'
p90
assS'Full'
p91
(dp92
g60
(lp93
S'Stack'
p94
assS'for'
p95
(dp96
S'file1.txt,line.no:35'
p97
(lp98
S'online'
p99
aS'the'
p100
assS'&'
p101
(dp102
g41
(lp103
S'technical'
p104
asg3
(lp105
S'manage'
p106
asg13
(lp107
g34
aS'goo.gl/1oabmd'
p108
assS'-'
p109
(dp110
g13
(lp111
g18
asg60
(lp112
S'Present'
p113
asS'file1.txt,line.no:30'
p114
(lp115
S'Present'
p116
asS'file1.txt,line.no:24'
p117
(lp118
S'Present'
p119
asg3
(lp120
S'For'
p121
asg8
(lp122
S'For'
p123
assS'B.Tech'
p124
(dp125
S'file1.txt,line.no:3'
p126
(lp127
S'undergraduate'
p128
assS'8.10'
p129
(dp130
S'file1.txt,line.no:20'
p131
(lp132
S'(Current)'
p133
assg43
(dp134
g41
(lp135
g101
assS'Technical'
p136
(dp137
g57
(lp138
S'Executive'
p139
assg99
(dp140
g97
(lp141
S'registrations'
p142
asg8
(lp143
g30
assS'Interface'
p144
(dp145
g13
(lp146
g83
assS'2017'
p147
(dp148
g60
(lp149
g109
asg114
(lp150
g109
assS'2016'
p151
(dp152
g117
(lp153
g109
assg82
(dp154
g80
(lp155
S'160101013'
p156
assg94
(dp157
g60
(lp158
S'Developer'
p159
assS'lectures,'
p160
(dp161
g41
(lp162
g39
assg62
(dp163
g60
(lp164
S'Sep'
p165
assg23
(dp166
g3
(lp167
S'View'
p168
assS'Technology,'
p169
(dp170
g52
(lp171
S'Guwahati'
p172
assg51
(dp173
g49
(lp174
S'of'
p175
asg52
(lp176
S'of'
p177
assg77
(dp178
g75
(lp179
S'Saraogi'
p180
assS'Conducted'
p181
(dp182
g41
(lp183
g160
assg25
(dp184
g8
(lp185
g26
assS'portal'
p186
(dp187
g97
(lp188
g95
assg15
(dp189
g13
(lp190
g101
assS'Senior'
p191
(dp192
S'file1.txt,line.no:13'
p193
(lp194
S'secondary'
p195
assg142
(dp196
g97
(lp197
S'for'
p198
assS'payment'
p199
(dp200
g97
(lp201
g186
assg168
(dp202
g3
(lp203
g101
assS'a'
p204
(dp205
g97
(lp206
g199
assS'on'
p207
(dp208
g41
(lp209
S'the'
p210
assg59
(dp211
g57
(lp212
g87
assg165
(dp213
g60
(lp214
g147
assg104
(dp215
g41
(lp216
S'fests'
p217
assg175
(dp218
g49
(lp219
S'Technology'
p220
asg52
(lp221
g169
assg139
(dp222
g57
(lp223
g55
assg86
(dp224
g13
(lp225
g101
assg38
(dp226
g3
(lp227
S'registrations,'
p228
assg46
(dp229
g13
(lp230
g144
assS'Apr'
p231
(dp232
g114
(lp233
S'2017'
p234
assg217
(dp235
g41
(lp236
g207
assg210
(dp237
g41
(lp238
S'campus.'
p239
asg97
(lp240
S'exam.'
p241
assg220
(dp242
g49
(lp243
S'Guwahati'
p244
assg159
(dp245
g60
(lp246
S'at'
p247
ass.