(dp0
S'file2.txt,line.no:514'
p1
I1
sS'file2.txt,line.no:515'
p2
I1
sS'file2.txt,line.no:43'
p3
I1
sS'file2.txt,line.no:42'
p4
I1
sS'file2.txt,line.no:41'
p5
I2
sS'file1.txt,line.no:67'
p6
I8
sS'file2.txt,line.no:47'
p7
I1
sS'file2.txt,line.no:46'
p8
I1
sS'file2.txt,line.no:45'
p9
I1
sS'file2.txt,line.no:44'
p10
I1
sS'file4.txt,line.no:125'
p11
I1
sS'file2.txt,line.no:49'
p12
I1
sS'file2.txt,line.no:48'
p13
I1
sS'file1.txt,line.no:68'
p14
I1
sS'file1.txt,line.no:69'
p15
I1
sS'file4.txt,line.no:802'
p16
I13
sS'file4.txt,line.no:803'
p17
I12
sS'file4.txt,line.no:800'
p18
I17
sS'file4.txt,line.no:801'
p19
I13
sS'file4.txt,line.no:806'
p20
I11
sS'file4.txt,line.no:807'
p21
I15
sS'file4.txt,line.no:804'
p22
I1
sS'file4.txt,line.no:805'
p23
I15
sS'file4.txt,line.no:808'
p24
I5
sS'file4.txt,line.no:809'
p25
I14
sS'file4.txt,line.no:124'
p26
I1
sS'file4.txt,line.no:127'
p27
I1
sS'file1.txt,line.no:232'
p28
I7
sS'file1.txt,line.no:233'
p29
I7
sS'file4.txt,line.no:126'
p30
I1
sS'file3.txt,line.no:199'
p31
I16
sS'file3.txt,line.no:198'
p32
I14
sS'file3.txt,line.no:197'
p33
I9
sS'file3.txt,line.no:196'
p34
I14
sS'file3.txt,line.no:195'
p35
I2
sS'file3.txt,line.no:194'
p36
I1
sS'file3.txt,line.no:193'
p37
I5
sS'file3.txt,line.no:192'
p38
I20
sS'file3.txt,line.no:191'
p39
I14
sS'file3.txt,line.no:190'
p40
I3
sS'file2.txt,line.no:826'
p41
I1
sS'file2.txt,line.no:827'
p42
I4
sS'file2.txt,line.no:824'
p43
I7
sS'file2.txt,line.no:825'
p44
I14
sS'file2.txt,line.no:822'
p45
I10
sS'file2.txt,line.no:823'
p46
I9
sS'file2.txt,line.no:820'
p47
I3
sS'file2.txt,line.no:821'
p48
I7
sS'file2.txt,line.no:828'
p49
I3
sS'file2.txt,line.no:829'
p50
I10
sS'file4.txt,line.no:121'
p51
I1
sS'file4.txt,line.no:244'
p52
I10
sS'file4.txt,line.no:245'
p53
I11
sS'file4.txt,line.no:246'
p54
I4
sS'file4.txt,line.no:247'
p55
I15
sS'file4.txt,line.no:240'
p56
I7
sS'file4.txt,line.no:241'
p57
I15
sS'file4.txt,line.no:242'
p58
I14
sS'file4.txt,line.no:243'
p59
I7
sS'file1.txt,line.no:218'
p60
I7
sS'file1.txt,line.no:219'
p61
I8
sS'file4.txt,line.no:248'
p62
I14
sS'file4.txt,line.no:249'
p63
I12
sS'file1.txt,line.no:182'
p64
I2
sS'file1.txt,line.no:183'
p65
I7
sS'file1.txt,line.no:180'
p66
I11
sS'file1.txt,line.no:181'
p67
I9
sS'file1.txt,line.no:186'
p68
I7
sS'file1.txt,line.no:187'
p69
I6
sS'file1.txt,line.no:184'
p70
I6
sS'file1.txt,line.no:185'
p71
I6
sS'file1.txt,line.no:188'
p72
I8
sS'file1.txt,line.no:189'
p73
I9
sS'file2.txt,line.no:688'
p74
I4
sS'file2.txt,line.no:689'
p75
I7
sS'file2.txt,line.no:682'
p76
I1
sS'file2.txt,line.no:683'
p77
I1
sS'file2.txt,line.no:680'
p78
I1
sS'file2.txt,line.no:681'
p79
I1
sS'file2.txt,line.no:686'
p80
I3
sS'file2.txt,line.no:687'
p81
I1
sS'file2.txt,line.no:684'
p82
I1
sS'file2.txt,line.no:685'
p83
I1
sS'file2.txt,line.no:354'
p84
I1
sS'file2.txt,line.no:355'
p85
I1
sS'file2.txt,line.no:356'
p86
I1
sS'file2.txt,line.no:357'
p87
I1
sS'file2.txt,line.no:350'
p88
I1
sS'file2.txt,line.no:351'
p89
I1
sS'file2.txt,line.no:352'
p90
I1
sS'file2.txt,line.no:353'
p91
I1
sS'file4.txt,line.no:114'
p92
I1
sS'file4.txt,line.no:115'
p93
I1
sS'file4.txt,line.no:116'
p94
I1
sS'file4.txt,line.no:117'
p95
I1
sS'file4.txt,line.no:110'
p96
I1
sS'file2.txt,line.no:359'
p97
I1
sS'file4.txt,line.no:112'
p98
I1
sS'file4.txt,line.no:113'
p99
I1
sS'file2.txt,line.no:758'
p100
I14
sS'file2.txt,line.no:759'
p101
I12
sS'file1.txt,line.no:65'
p102
I10
sS'file2.txt,line.no:750'
p103
I15
sS'file2.txt,line.no:751'
p104
I15
sS'file2.txt,line.no:752'
p105
I3
sS'file2.txt,line.no:753'
p106
I2
sS'file2.txt,line.no:754'
p107
I15
sS'file2.txt,line.no:755'
p108
I16
sS'file2.txt,line.no:756'
p109
I15
sS'file2.txt,line.no:757'
p110
I12
sS'file3.txt,line.no:175'
p111
I1
sS'file3.txt,line.no:174'
p112
I1
sS'file3.txt,line.no:177'
p113
I15
sS'file2.txt,line.no:40'
p114
I1
sS'file3.txt,line.no:171'
p115
I1
sS'file3.txt,line.no:170'
p116
I10
sS'file3.txt,line.no:173'
p117
I4
sS'file3.txt,line.no:172'
p118
I14
sS'file1.txt,line.no:60'
p119
I2
sS'file3.txt,line.no:179'
p120
I13
sS'file3.txt,line.no:178'
p121
I9
sS'file1.txt,line.no:61'
p122
I10
sS'file4.txt,line.no:758'
p123
I12
sS'file4.txt,line.no:759'
p124
I15
sS'file1.txt,line.no:62'
p125
I8
sS'file4.txt,line.no:752'
p126
I1
sS'file4.txt,line.no:753'
p127
I1
sS'file4.txt,line.no:750'
p128
I16
sS'file4.txt,line.no:751'
p129
I15
sS'file4.txt,line.no:756'
p130
I13
sS'file4.txt,line.no:757'
p131
I14
sS'file4.txt,line.no:754'
p132
I1
sS'file4.txt,line.no:755'
p133
I4
sS'file2.txt,line.no:530'
p134
I1
sS'file2.txt,line.no:531'
p135
I1
sS'file2.txt,line.no:532'
p136
I1
sS'file2.txt,line.no:533'
p137
I1
sS'file2.txt,line.no:534'
p138
I1
sS'file2.txt,line.no:535'
p139
I1
sS'file2.txt,line.no:536'
p140
I1
sS'file2.txt,line.no:537'
p141
I1
sS'file2.txt,line.no:538'
p142
I2
sS'file2.txt,line.no:539'
p143
I1
sS'file1.txt,line.no:146'
p144
I8
sS'file1.txt,line.no:147'
p145
I11
sS'file2.txt,line.no:330'
p146
I1
sS'file2.txt,line.no:331'
p147
I1
sS'file1.txt,line.no:142'
p148
I9
sS'file1.txt,line.no:143'
p149
I7
sS'file2.txt,line.no:228'
p150
I1
sS'file2.txt,line.no:229'
p151
I2
sS'file2.txt,line.no:224'
p152
I1
sS'file2.txt,line.no:225'
p153
I2
sS'file2.txt,line.no:226'
p154
I1
sS'file2.txt,line.no:227'
p155
I1
sS'file2.txt,line.no:220'
p156
I1
sS'file2.txt,line.no:221'
p157
I2
sS'file2.txt,line.no:222'
p158
I1
sS'file2.txt,line.no:223'
p159
I1
sS'file2.txt,line.no:338'
p160
I2
sS'file2.txt,line.no:339'
p161
I1
sS'file1.txt,line.no:248'
p162
I2
sS'file1.txt,line.no:64'
p163
I9
sS'file4.txt,line.no:67'
p164
I1
sS'file4.txt,line.no:66'
p165
I1
sS'file4.txt,line.no:65'
p166
I1
sS'file4.txt,line.no:64'
p167
I1
sS'file4.txt,line.no:63'
p168
I1
sS'file4.txt,line.no:62'
p169
I1
sS'file4.txt,line.no:61'
p170
I1
sS'file4.txt,line.no:60'
p171
I1
sS'file1.txt,line.no:149'
p172
I7
sS'file4.txt,line.no:69'
p173
I1
sS'file4.txt,line.no:68'
p174
I1
sS'file1.txt,line.no:99'
p175
I1
sS'file1.txt,line.no:98'
p176
I3
sS'file1.txt,line.no:91'
p177
I6
sS'file1.txt,line.no:90'
p178
I11
sS'file1.txt,line.no:93'
p179
I11
sS'file1.txt,line.no:92'
p180
I14
sS'file1.txt,line.no:95'
p181
I1
sS'file1.txt,line.no:94'
p182
I10
sS'file1.txt,line.no:97'
p183
I3
sS'file1.txt,line.no:96'
p184
I11
sS'file1.txt,line.no:66'
p185
I6
sS'file2.txt,line.no:639'
p186
I1
sS'file2.txt,line.no:638'
p187
I1
sS'file2.txt,line.no:637'
p188
I1
sS'file2.txt,line.no:636'
p189
I1
sS'file1.txt,line.no:77'
p190
I2
sS'file1.txt,line.no:76'
p191
I7
sS'file1.txt,line.no:75'
p192
I8
sS'file1.txt,line.no:74'
p193
I1
sS'file1.txt,line.no:73'
p194
I10
sS'file1.txt,line.no:72'
p195
I6
sS'file2.txt,line.no:78'
p196
I1
sS'file1.txt,line.no:70'
p197
I1
sS'file2.txt,line.no:76'
p198
I1
sS'file2.txt,line.no:77'
p199
I2
sS'file2.txt,line.no:74'
p200
I1
sS'file2.txt,line.no:75'
p201
I1
sS'file2.txt,line.no:72'
p202
I1
sS'file2.txt,line.no:73'
p203
I1
sS'file1.txt,line.no:79'
p204
I6
sS'file2.txt,line.no:71'
p205
I1
sS'file2.txt,line.no:387'
p206
I1
sS'file4.txt,line.no:839'
p207
I2
sS'file2.txt,line.no:386'
p208
I1
sS'file4.txt,line.no:837'
p209
I8
sS'file4.txt,line.no:836'
p210
I9
sS'file4.txt,line.no:835'
p211
I3
sS'file4.txt,line.no:834'
p212
I7
sS'file4.txt,line.no:833'
p213
I9
sS'file4.txt,line.no:832'
p214
I6
sS'file4.txt,line.no:831'
p215
I3
sS'file4.txt,line.no:830'
p216
I7
sS'file2.txt,line.no:94'
p217
I1
sS'file2.txt,line.no:95'
p218
I2
sS'file2.txt,line.no:96'
p219
I1
sS'file2.txt,line.no:97'
p220
I1
sS'file2.txt,line.no:90'
p221
I1
sS'file2.txt,line.no:91'
p222
I1
sS'file2.txt,line.no:92'
p223
I1
sS'file2.txt,line.no:93'
p224
I1
sS'file4.txt,line.no:572'
p225
I3
sS'file2.txt,line.no:98'
p226
I1
sS'file2.txt,line.no:99'
p227
I1
sS'file4.txt,line.no:573'
p228
I6
sS'file3.txt,line.no:188'
p229
I13
sS'file3.txt,line.no:189'
p230
I5
sS'file4.txt,line.no:578'
p231
I3
sS'file3.txt,line.no:180'
p232
I3
sS'file3.txt,line.no:181'
p233
I3
sS'file3.txt,line.no:182'
p234
I3
sS'file3.txt,line.no:183'
p235
I3
sS'file3.txt,line.no:184'
p236
I13
sS'file3.txt,line.no:185'
p237
I13
sS'file3.txt,line.no:186'
p238
I14
sS'file3.txt,line.no:187'
p239
I3
sS'file2.txt,line.no:813'
p240
I3
sS'file2.txt,line.no:812'
p241
I11
sS'file2.txt,line.no:811'
p242
I15
sS'file2.txt,line.no:810'
p243
I3
sS'file2.txt,line.no:817'
p244
I12
sS'file2.txt,line.no:816'
p245
I3
sS'file2.txt,line.no:815'
p246
I5
sS'file2.txt,line.no:814'
p247
I10
sS'file2.txt,line.no:819'
p248
I7
sS'file2.txt,line.no:818'
p249
I4
sS'file2.txt,line.no:415'
p250
I1
sS'file4.txt,line.no:909'
p251
I1
sS'file4.txt,line.no:908'
p252
I1
sS'file4.txt,line.no:903'
p253
I1
sS'file4.txt,line.no:902'
p254
I1
sS'file4.txt,line.no:901'
p255
I1
sS'file4.txt,line.no:900'
p256
I1
sS'file4.txt,line.no:907'
p257
I1
sS'file4.txt,line.no:906'
p258
I1
sS'file4.txt,line.no:905'
p259
I1
sS'file4.txt,line.no:904'
p260
I1
sS'file2.txt,line.no:411'
p261
I1
sS'file2.txt,line.no:410'
p262
I1
sS'file4.txt,line.no:349'
p263
I13
sS'file4.txt,line.no:348'
p264
I16
sS'file2.txt,line.no:328'
p265
I2
sS'file4.txt,line.no:345'
p266
I7
sS'file4.txt,line.no:344'
p267
I16
sS'file4.txt,line.no:347'
p268
I14
sS'file4.txt,line.no:346'
p269
I16
sS'file4.txt,line.no:341'
p270
I15
sS'file4.txt,line.no:340'
p271
I16
sS'file4.txt,line.no:343'
p272
I14
sS'file4.txt,line.no:342'
p273
I14
sS'file4.txt,line.no:231'
p274
I13
sS'file4.txt,line.no:230'
p275
I13
sS'file4.txt,line.no:233'
p276
I1
sS'file4.txt,line.no:232'
p277
I7
sS'file4.txt,line.no:235'
p278
I1
sS'file4.txt,line.no:234'
p279
I1
sS'file4.txt,line.no:237'
p280
I11
sS'file4.txt,line.no:236'
p281
I3
sS'file4.txt,line.no:239'
p282
I14
sS'file4.txt,line.no:238'
p283
I12
sS'file1.txt,line.no:225'
p284
I11
sS'file1.txt,line.no:224'
p285
I5
sS'file1.txt,line.no:223'
p286
I8
sS'file1.txt,line.no:222'
p287
I7
sS'file1.txt,line.no:221'
p288
I7
sS'file1.txt,line.no:220'
p289
I9
sS'file2.txt,line.no:321'
p290
I1
sS'file2.txt,line.no:320'
p291
I1
sS'file2.txt,line.no:323'
p292
I1
sS'file2.txt,line.no:322'
p293
I1
sS'file2.txt,line.no:325'
p294
I1
sS'file2.txt,line.no:324'
p295
I1
sS'file2.txt,line.no:327'
p296
I1
sS'file2.txt,line.no:326'
p297
I1
sS'file4.txt,line.no:161'
p298
I1
sS'file4.txt,line.no:160'
p299
I3
sS'file4.txt,line.no:163'
p300
I30
sS'file4.txt,line.no:162'
p301
I37
sS'file4.txt,line.no:165'
p302
I1
sS'file4.txt,line.no:164'
p303
I3
sS'file4.txt,line.no:167'
p304
I27
sS'file4.txt,line.no:166'
p305
I30
sS'file4.txt,line.no:589'
p306
I16
sS'file4.txt,line.no:588'
p307
I13
sS'file4.txt,line.no:587'
p308
I7
sS'file4.txt,line.no:586'
p309
I1
sS'file4.txt,line.no:585'
p310
I5
sS'file4.txt,line.no:584'
p311
I5
sS'file4.txt,line.no:583'
p312
I5
sS'file4.txt,line.no:582'
p313
I5
sS'file4.txt,line.no:581'
p314
I4
sS'file4.txt,line.no:580'
p315
I4
sS'file3.txt,line.no:166'
p316
I18
sS'file3.txt,line.no:167'
p317
I8
sS'file3.txt,line.no:164'
p318
I17
sS'file3.txt,line.no:165'
p319
I1
sS'file3.txt,line.no:162'
p320
I1
sS'file3.txt,line.no:163'
p321
I17
sS'file3.txt,line.no:160'
p322
I2
sS'file3.txt,line.no:161'
p323
I3
sS'file3.txt,line.no:168'
p324
I1
sS'file3.txt,line.no:169'
p325
I15
sS'file2.txt,line.no:783'
p326
I14
sS'file2.txt,line.no:782'
p327
I3
sS'file2.txt,line.no:781'
p328
I7
sS'file2.txt,line.no:780'
p329
I14
sS'file2.txt,line.no:787'
p330
I13
sS'file2.txt,line.no:786'
p331
I3
sS'file2.txt,line.no:785'
p332
I11
sS'file2.txt,line.no:784'
p333
I12
sS'file2.txt,line.no:789'
p334
I4
sS'file2.txt,line.no:788'
p335
I14
sS'file4.txt,line.no:569'
p336
I4
sS'file4.txt,line.no:568'
p337
I4
sS'file4.txt,line.no:767'
p338
I12
sS'file4.txt,line.no:766'
p339
I12
sS'file4.txt,line.no:765'
p340
I1
sS'file4.txt,line.no:764'
p341
I1
sS'file4.txt,line.no:763'
p342
I1
sS'file4.txt,line.no:762'
p343
I17
sS'file4.txt,line.no:761'
p344
I3
sS'file4.txt,line.no:760'
p345
I17
sS'file4.txt,line.no:769'
p346
I12
sS'file4.txt,line.no:768'
p347
I6
sS'file2.txt,line.no:259'
p348
I1
sS'file2.txt,line.no:258'
p349
I1
sS'file2.txt,line.no:251'
p350
I1
sS'file2.txt,line.no:250'
p351
I1
sS'file2.txt,line.no:253'
p352
I2
sS'file2.txt,line.no:252'
p353
I1
sS'file2.txt,line.no:255'
p354
I1
sS'file2.txt,line.no:254'
p355
I1
sS'file2.txt,line.no:257'
p356
I2
sS'file2.txt,line.no:256'
p357
I1
sS'file4.txt,line.no:52'
p358
I1
sS'file4.txt,line.no:53'
p359
I1
sS'file4.txt,line.no:50'
p360
I1
sS'file4.txt,line.no:51'
p361
I1
sS'file4.txt,line.no:56'
p362
I1
sS'file4.txt,line.no:57'
p363
I1
sS'file4.txt,line.no:54'
p364
I1
sS'file4.txt,line.no:55'
p365
I1
sS'file4.txt,line.no:58'
p366
I1
sS'file4.txt,line.no:59'
p367
I1
sS'file2.txt,line.no:563'
p368
I1
sS'file2.txt,line.no:562'
p369
I3
sS'file2.txt,line.no:561'
p370
I34
sS'file2.txt,line.no:1097'
p371
I1
sS'file2.txt,line.no:643'
p372
I1
sS'file2.txt,line.no:560'
p373
I35
sS'file2.txt,line.no:567'
p374
I3
sS'file2.txt,line.no:566'
p375
I30
sS'file2.txt,line.no:565'
p376
I1
sS'file2.txt,line.no:564'
p377
I3
sS'file2.txt,line.no:69'
p378
I1
sS'file2.txt,line.no:68'
p379
I2
sS'file1.txt,line.no:40'
p380
I8
sS'file1.txt,line.no:41'
p381
I7
sS'file1.txt,line.no:46'
p382
I13
sS'file1.txt,line.no:47'
p383
I13
sS'file1.txt,line.no:44'
p384
I12
sS'file1.txt,line.no:45'
p385
I13
sS'file2.txt,line.no:61'
p386
I1
sS'file2.txt,line.no:60'
p387
I1
sS'file2.txt,line.no:63'
p388
I1
sS'file2.txt,line.no:62'
p389
I1
sS'file2.txt,line.no:65'
p390
I1
sS'file2.txt,line.no:64'
p391
I1
sS'file2.txt,line.no:67'
p392
I1
sS'file2.txt,line.no:66'
p393
I1
sS'file4.txt,line.no:828'
p394
I2
sS'file4.txt,line.no:829'
p395
I10
sS'file4.txt,line.no:820'
p396
I8
sS'file4.txt,line.no:821'
p397
I12
sS'file4.txt,line.no:822'
p398
I8
sS'file4.txt,line.no:823'
p399
I6
sS'file4.txt,line.no:824'
p400
I12
sS'file4.txt,line.no:825'
p401
I1
sS'file4.txt,line.no:826'
p402
I3
sS'file4.txt,line.no:827'
p403
I6
sS'file2.txt,line.no:87'
p404
I1
sS'file2.txt,line.no:86'
p405
I2
sS'file2.txt,line.no:85'
p406
I1
sS'file2.txt,line.no:84'
p407
I1
sS'file2.txt,line.no:83'
p408
I1
sS'file2.txt,line.no:82'
p409
I1
sS'file2.txt,line.no:81'
p410
I1
sS'file2.txt,line.no:80'
p411
I1
sS'file2.txt,line.no:230'
p412
I1
sS'file2.txt,line.no:89'
p413
I1
sS'file2.txt,line.no:88'
p414
I1
sS'file4.txt,line.no:914'
p415
I1
sS'file4.txt,line.no:910'
p416
I3
sS'file4.txt,line.no:911'
p417
I2
sS'file4.txt,line.no:912'
p418
I7
sS'file4.txt,line.no:913'
p419
I9
sS'file2.txt,line.no:808'
p420
I14
sS'file2.txt,line.no:809'
p421
I13
sS'file2.txt,line.no:804'
p422
I16
sS'file2.txt,line.no:805'
p423
I3
sS'file2.txt,line.no:806'
p424
I15
sS'file2.txt,line.no:807'
p425
I13
sS'file2.txt,line.no:800'
p426
I8
sS'file2.txt,line.no:801'
p427
I4
sS'file2.txt,line.no:802'
p428
I15
sS'file2.txt,line.no:803'
p429
I14
sS'file2.txt,line.no:641'
p430
I1
sS'file1.txt,line.no:212'
p431
I6
sS'file1.txt,line.no:213'
p432
I3
sS'file1.txt,line.no:210'
p433
I8
sS'file1.txt,line.no:211'
p434
I6
sS'file4.txt,line.no:358'
p435
I9
sS'file4.txt,line.no:359'
p436
I1
sS'file4.txt,line.no:356'
p437
I2
sS'file4.txt,line.no:357'
p438
I11
sS'file4.txt,line.no:354'
p439
I3
sS'file4.txt,line.no:355'
p440
I1
sS'file4.txt,line.no:352'
p441
I16
sS'file4.txt,line.no:353'
p442
I14
sS'file4.txt,line.no:350'
p443
I13
sS'file4.txt,line.no:351'
p444
I13
sS'file4.txt,line.no:222'
p445
I1
sS'file1.txt,line.no:239'
p446
I8
sS'file4.txt,line.no:220'
p447
I1
sS'file4.txt,line.no:221'
p448
I1
sS'file4.txt,line.no:226'
p449
I1
sS'file4.txt,line.no:227'
p450
I1
sS'file4.txt,line.no:224'
p451
I1
sS'file4.txt,line.no:225'
p452
I1
sS'file1.txt,line.no:230'
p453
I7
sS'file1.txt,line.no:231'
p454
I9
sS'file4.txt,line.no:228'
p455
I1
sS'file4.txt,line.no:229'
p456
I14
sS'file1.txt,line.no:234'
p457
I8
sS'file1.txt,line.no:235'
p458
I2
sS'file1.txt,line.no:236'
p459
I10
sS'file1.txt,line.no:237'
p460
I7
sS'file4.txt,line.no:324'
p461
I3
sS'file2.txt,line.no:332'
p462
I1
sS'file2.txt,line.no:333'
p463
I1
sS'file4.txt,line.no:178'
p464
I1
sS'file4.txt,line.no:179'
p465
I1
sS'file2.txt,line.no:336'
p466
I1
sS'file2.txt,line.no:337'
p467
I1
sS'file2.txt,line.no:334'
p468
I1
sS'file2.txt,line.no:335'
p469
I1
sS'file4.txt,line.no:172'
p470
I1
sS'file4.txt,line.no:173'
p471
I1
sS'file4.txt,line.no:170'
p472
I1
sS'file4.txt,line.no:171'
p473
I1
sS'file4.txt,line.no:176'
p474
I1
sS'file4.txt,line.no:177'
p475
I1
sS'file4.txt,line.no:174'
p476
I1
sS'file4.txt,line.no:175'
p477
I1
sS'file4.txt,line.no:598'
p478
I5
sS'file4.txt,line.no:599'
p479
I10
sS'file4.txt,line.no:590'
p480
I3
sS'file4.txt,line.no:591'
p481
I14
sS'file4.txt,line.no:592'
p482
I9
sS'file4.txt,line.no:593'
p483
I13
sS'file4.txt,line.no:594'
p484
I14
sS'file4.txt,line.no:595'
p485
I13
sS'file4.txt,line.no:596'
p486
I14
sS'file4.txt,line.no:597'
p487
I14
sS'file3.txt,line.no:153'
p488
I13
sS'file3.txt,line.no:152'
p489
I8
sS'file3.txt,line.no:151'
p490
I17
sS'file3.txt,line.no:150'
p491
I7
sS'file3.txt,line.no:157'
p492
I5
sS'file3.txt,line.no:156'
p493
I14
sS'file3.txt,line.no:155'
p494
I18
sS'file3.txt,line.no:154'
p495
I20
sS'file3.txt,line.no:159'
p496
I18
sS'file3.txt,line.no:158'
p497
I6
sS'file4.txt,line.no:576'
p498
I4
sS'file4.txt,line.no:577'
p499
I4
sS'file4.txt,line.no:574'
p500
I4
sS'file4.txt,line.no:575'
p501
I4
sS'file2.txt,line.no:798'
p502
I9
sS'file2.txt,line.no:799'
p503
I16
sS'file4.txt,line.no:570'
p504
I5
sS'file4.txt,line.no:571'
p505
I5
sS'file2.txt,line.no:794'
p506
I13
sS'file2.txt,line.no:795'
p507
I5
sS'file2.txt,line.no:796'
p508
I15
sS'file2.txt,line.no:797'
p509
I14
sS'file2.txt,line.no:790'
p510
I11
sS'file2.txt,line.no:791'
p511
I3
sS'file2.txt,line.no:792'
p512
I14
sS'file2.txt,line.no:793'
p513
I14
sS'file4.txt,line.no:770'
p514
I12
sS'file4.txt,line.no:771'
p515
I13
sS'file4.txt,line.no:772'
p516
I8
sS'file4.txt,line.no:773'
p517
I1
sS'file4.txt,line.no:774'
p518
I2
sS'file4.txt,line.no:775'
p519
I14
sS'file4.txt,line.no:776'
p520
I7
sS'file4.txt,line.no:777'
p521
I13
sS'file4.txt,line.no:778'
p522
I13
sS'file4.txt,line.no:779'
p523
I2
sS'file4.txt,line.no:684'
p524
I11
sS'file4.txt,line.no:685'
p525
I6
sS'file4.txt,line.no:686'
p526
I1
sS'file4.txt,line.no:687'
p527
I4
sS'file4.txt,line.no:680'
p528
I3
sS'file4.txt,line.no:681'
p529
I10
sS'file4.txt,line.no:682'
p530
I3
sS'file4.txt,line.no:683'
p531
I8
sS'file4.txt,line.no:688'
p532
I10
sS'file4.txt,line.no:689'
p533
I10
sS'file2.txt,line.no:248'
p534
I1
sS'file2.txt,line.no:249'
p535
I2
sS'file2.txt,line.no:242'
p536
I1
sS'file2.txt,line.no:243'
p537
I1
sS'file2.txt,line.no:240'
p538
I1
sS'file2.txt,line.no:241'
p539
I2
sS'file2.txt,line.no:246'
p540
I1
sS'file2.txt,line.no:247'
p541
I1
sS'file2.txt,line.no:244'
p542
I1
sS'file2.txt,line.no:245'
p543
I2
sS'file3.txt,line.no:48'
p544
I13
sS'file3.txt,line.no:49'
p545
I14
sS'file3.txt,line.no:44'
p546
I1
sS'file3.txt,line.no:45'
p547
I2
sS'file3.txt,line.no:46'
p548
I12
sS'file3.txt,line.no:47'
p549
I13
sS'file3.txt,line.no:40'
p550
I13
sS'file3.txt,line.no:41'
p551
I17
sS'file3.txt,line.no:42'
p552
I15
sS'file3.txt,line.no:43'
p553
I6
sS'file4.txt,line.no:49'
p554
I12
sS'file4.txt,line.no:48'
p555
I9
sS'file4.txt,line.no:45'
p556
I7
sS'file4.txt,line.no:44'
p557
I3
sS'file4.txt,line.no:47'
p558
I14
sS'file4.txt,line.no:46'
p559
I6
sS'file4.txt,line.no:41'
p560
I1
sS'file4.txt,line.no:40'
p561
I1
sS'file4.txt,line.no:43'
p562
I1
sS'file4.txt,line.no:42'
p563
I1
sS'file4.txt,line.no:89'
p564
I1
sS'file2.txt,line.no:1093'
p565
I1
sS'file4.txt,line.no:88'
p566
I1
sS'file4.txt,line.no:118'
p567
I1
sS'file4.txt,line.no:502'
p568
I3
sS'file4.txt,line.no:81'
p569
I1
sS'file4.txt,line.no:867'
p570
I9
sS'file4.txt,line.no:80'
p571
I1
sS'file4.txt,line.no:83'
p572
I1
sS'file1.txt,line.no:5'
p573
I9
sS'file1.txt,line.no:4'
p574
I7
sS'file1.txt,line.no:7'
p575
I5
sS'file4.txt,line.no:82'
p576
I1
sS'file1.txt,line.no:1'
p577
I1
sS'file1.txt,line.no:3'
p578
I9
sS'file1.txt,line.no:2'
p579
I9
sS'file4.txt,line.no:85'
p580
I1
sS'file1.txt,line.no:9'
p581
I8
sS'file1.txt,line.no:8'
p582
I10
sS'file4.txt,line.no:84'
p583
I1
sS'file4.txt,line.no:87'
p584
I1
sS'file4.txt,line.no:86'
p585
I1
sS'file2.txt,line.no:611'
p586
I1
sS'file2.txt,line.no:610'
p587
I1
sS'file4.txt,line.no:189'
p588
I24
sS'file2.txt,line.no:612'
p589
I1
sS'file2.txt,line.no:615'
p590
I1
sS'file2.txt,line.no:614'
p591
I1
sS'file2.txt,line.no:617'
p592
I1
sS'file2.txt,line.no:616'
p593
I1
sS'file2.txt,line.no:619'
p594
I1
sS'file1.txt,line.no:59'
p595
I1
sS'file1.txt,line.no:58'
p596
I11
sS'file2.txt,line.no:618'
p597
I1
sS'file1.txt,line.no:55'
p598
I10
sS'file1.txt,line.no:54'
p599
I3
sS'file1.txt,line.no:57'
p600
I11
sS'file1.txt,line.no:56'
p601
I9
sS'file1.txt,line.no:51'
p602
I10
sS'file2.txt,line.no:1022'
p603
I6
sS'file1.txt,line.no:53'
p604
I12
sS'file1.txt,line.no:52'
p605
I9
sS'file4.txt,line.no:180'
p606
I1
sS'file4.txt,line.no:187'
p607
I1
sS'file2.txt,line.no:168'
p608
I1
sS'file2.txt,line.no:1025'
p609
I13
sS'file4.txt,line.no:185'
p610
I1
sS'file4.txt,line.no:184'
p611
I1
sS'file2.txt,line.no:451'
p612
I1
sS'file3.txt,line.no:176'
p613
I13
sS'file2.txt,line.no:450'
p614
I1
sS'file2.txt,line.no:879'
p615
I11
sS'file2.txt,line.no:878'
p616
I4
sS'file2.txt,line.no:457'
p617
I1
sS'file2.txt,line.no:871'
p618
I5
sS'file2.txt,line.no:870'
p619
I14
sS'file2.txt,line.no:873'
p620
I3
sS'file2.txt,line.no:872'
p621
I12
sS'file2.txt,line.no:875'
p622
I12
sS'file2.txt,line.no:874'
p623
I5
sS'file2.txt,line.no:877'
p624
I4
sS'file2.txt,line.no:876'
p625
I14
sS'file2.txt,line.no:439'
p626
I1
sS'file2.txt,line.no:456'
p627
I1
sS'file2.txt,line.no:438'
p628
I2
sS'file2.txt,line.no:129'
p629
I1
sS'file4.txt,line.no:369'
p630
I10
sS'file4.txt,line.no:368'
p631
I12
sS'file4.txt,line.no:363'
p632
I4
sS'file4.txt,line.no:362'
p633
I8
sS'file4.txt,line.no:361'
p634
I8
sS'file4.txt,line.no:360'
p635
I2
sS'file4.txt,line.no:367'
p636
I1
sS'file4.txt,line.no:366'
p637
I1
sS'file4.txt,line.no:365'
p638
I3
sS'file4.txt,line.no:364'
p639
I7
sS'file2.txt,line.no:905'
p640
I14
sS'file2.txt,line.no:904'
p641
I3
sS'file2.txt,line.no:907'
p642
I1
sS'file2.txt,line.no:906'
p643
I16
sS'file2.txt,line.no:901'
p644
I9
sS'file2.txt,line.no:900'
p645
I3
sS'file2.txt,line.no:903'
p646
I3
sS'file2.txt,line.no:902'
p647
I3
sS'file4.txt,line.no:217'
p648
I1
sS'file4.txt,line.no:216'
p649
I1
sS'file4.txt,line.no:215'
p650
I1
sS'file4.txt,line.no:214'
p651
I1
sS'file2.txt,line.no:909'
p652
I1
sS'file2.txt,line.no:908'
p653
I4
sS'file4.txt,line.no:211'
p654
I1
sS'file4.txt,line.no:210'
p655
I1
sS'file2.txt,line.no:123'
p656
I1
sS'file2.txt,line.no:122'
p657
I2
sS'file2.txt,line.no:121'
p658
I1
sS'file2.txt,line.no:454'
p659
I1
sS'file2.txt,line.no:120'
p660
I1
sS'file2.txt,line.no:998'
p661
I8
sS'file2.txt,line.no:127'
p662
I1
sS'file2.txt,line.no:126'
p663
I1
sS'file1.txt,line.no:173'
p664
I1
sS'file1.txt,line.no:172'
p665
I7
sS'file1.txt,line.no:171'
p666
I1
sS'file1.txt,line.no:170'
p667
I3
sS'file1.txt,line.no:177'
p668
I10
sS'file1.txt,line.no:176'
p669
I9
sS'file1.txt,line.no:175'
p670
I9
sS'file2.txt,line.no:308'
p671
I2
sS'file2.txt,line.no:307'
p672
I1
sS'file2.txt,line.no:306'
p673
I1
sS'file2.txt,line.no:305'
p674
I1
sS'file2.txt,line.no:656'
p675
I1
sS'file2.txt,line.no:303'
p676
I1
sS'file2.txt,line.no:302'
p677
I1
sS'file2.txt,line.no:301'
p678
I1
sS'file2.txt,line.no:300'
p679
I1
sS'file3.txt,line.no:148'
p680
I2
sS'file3.txt,line.no:149'
p681
I11
sS'file3.txt,line.no:144'
p682
I8
sS'file3.txt,line.no:145'
p683
I5
sS'file3.txt,line.no:146'
p684
I6
sS'file3.txt,line.no:147'
p685
I18
sS'file3.txt,line.no:140'
p686
I18
sS'file3.txt,line.no:141'
p687
I17
sS'file3.txt,line.no:142'
p688
I18
sS'file3.txt,line.no:143'
p689
I19
sS'file4.txt,line.no:543'
p690
I4
sS'file4.txt,line.no:542'
p691
I4
sS'file4.txt,line.no:541'
p692
I8
sS'file4.txt,line.no:540'
p693
I3
sS'file4.txt,line.no:547'
p694
I3
sS'file4.txt,line.no:546'
p695
I2
sS'file4.txt,line.no:545'
p696
I4
sS'file4.txt,line.no:544'
p697
I4
sS'file4.txt,line.no:549'
p698
I4
sS'file4.txt,line.no:548'
p699
I8
sS'file4.txt,line.no:789'
p700
I13
sS'file4.txt,line.no:788'
p701
I12
sS'file4.txt,line.no:785'
p702
I14
sS'file4.txt,line.no:784'
p703
I13
sS'file4.txt,line.no:787'
p704
I14
sS'file4.txt,line.no:786'
p705
I15
sS'file4.txt,line.no:781'
p706
I10
sS'file4.txt,line.no:780'
p707
I14
sS'file4.txt,line.no:783'
p708
I16
sS'file4.txt,line.no:782'
p709
I15
sS'file4.txt,line.no:147'
p710
I1
sS'file4.txt,line.no:146'
p711
I1
sS'file4.txt,line.no:145'
p712
I1
sS'file4.txt,line.no:144'
p713
I1
sS'file4.txt,line.no:143'
p714
I1
sS'file4.txt,line.no:142'
p715
I1
sS'file2.txt,line.no:499'
p716
I1
sS'file2.txt,line.no:498'
p717
I2
sS'file2.txt,line.no:497'
p718
I1
sS'file2.txt,line.no:496'
p719
I1
sS'file2.txt,line.no:495'
p720
I1
sS'file2.txt,line.no:494'
p721
I1
sS'file2.txt,line.no:493'
p722
I1
sS'file2.txt,line.no:492'
p723
I1
sS'file2.txt,line.no:491'
p724
I1
sS'file2.txt,line.no:490'
p725
I1
sS'file2.txt,line.no:239'
p726
I1
sS'file2.txt,line.no:475'
p727
I1
sS'file2.txt,line.no:474'
p728
I1
sS'file2.txt,line.no:477'
p729
I1
sS'file2.txt,line.no:476'
p730
I1
sS'file2.txt,line.no:471'
p731
I1
sS'file2.txt,line.no:470'
p732
I1
sS'file2.txt,line.no:473'
p733
I1
sS'file2.txt,line.no:472'
p734
I1
sS'file2.txt,line.no:479'
p735
I1
sS'file2.txt,line.no:478'
p736
I2
sS'file2.txt,line.no:277'
p737
I2
sS'file2.txt,line.no:276'
p738
I1
sS'file2.txt,line.no:275'
p739
I1
sS'file2.txt,line.no:274'
p740
I1
sS'file2.txt,line.no:273'
p741
I2
sS'file2.txt,line.no:272'
p742
I1
sS'file2.txt,line.no:271'
p743
I1
sS'file2.txt,line.no:270'
p744
I1
sS'file3.txt,line.no:57'
p745
I2
sS'file3.txt,line.no:56'
p746
I10
sS'file3.txt,line.no:55'
p747
I12
sS'file3.txt,line.no:54'
p748
I16
sS'file3.txt,line.no:53'
p749
I11
sS'file3.txt,line.no:52'
p750
I14
sS'file2.txt,line.no:279'
p751
I1
sS'file2.txt,line.no:278'
p752
I1
sS'file4.txt,line.no:38'
p753
I1
sS'file4.txt,line.no:39'
p754
I1
sS'file4.txt,line.no:30'
p755
I26
sS'file4.txt,line.no:31'
p756
I1
sS'file4.txt,line.no:32'
p757
I1
sS'file4.txt,line.no:33'
p758
I1
sS'file4.txt,line.no:34'
p759
I1
sS'file4.txt,line.no:35'
p760
I1
sS'file4.txt,line.no:36'
p761
I1
sS'file4.txt,line.no:37'
p762
I1
sS'file1.txt,line.no:6'
p763
I21
sS'file4.txt,line.no:899'
p764
I1
sS'file4.txt,line.no:898'
p765
I1
sS'file2.txt,line.no:238'
p766
I1
sS'file4.txt,line.no:123'
p767
I1
sS'file4.txt,line.no:893'
p768
I1
sS'file2.txt,line.no:928'
p769
I9
sS'file1.txt,line.no:28'
p770
I20
sS'file1.txt,line.no:29'
p771
I9
sS'file1.txt,line.no:20'
p772
I21
sS'file1.txt,line.no:21'
p773
I12
sS'file1.txt,line.no:22'
p774
I5
sS'file1.txt,line.no:23'
p775
I2
sS'file1.txt,line.no:24'
p776
I12
sS'file1.txt,line.no:25'
p777
I11
sS'file1.txt,line.no:26'
p778
I10
sS'file1.txt,line.no:27'
p779
I9
sS'file2.txt,line.no:520'
p780
I1
sS'file2.txt,line.no:309'
p781
I1
sS'file3.txt,line.no:9'
p782
I17
sS'file3.txt,line.no:8'
p783
I6
sS'file3.txt,line.no:7'
p784
I2
sS'file3.txt,line.no:6'
p785
I10
sS'file3.txt,line.no:5'
p786
I2
sS'file3.txt,line.no:4'
p787
I9
sS'file3.txt,line.no:3'
p788
I8
sS'file3.txt,line.no:2'
p789
I4
sS'file3.txt,line.no:1'
p790
I18
sS'file4.txt,line.no:223'
p791
I1
sS'file2.txt,line.no:868'
p792
I9
sS'file2.txt,line.no:869'
p793
I8
sS'file2.txt,line.no:862'
p794
I16
sS'file2.txt,line.no:863'
p795
I5
sS'file2.txt,line.no:860'
p796
I3
sS'file2.txt,line.no:861'
p797
I14
sS'file2.txt,line.no:866'
p798
I10
sS'file2.txt,line.no:867'
p799
I9
sS'file2.txt,line.no:864'
p800
I4
sS'file2.txt,line.no:865'
p801
I16
sS'file3.txt,line.no:229'
p802
I1
sS'file3.txt,line.no:228'
p803
I6
sS'file3.txt,line.no:225'
p804
I11
sS'file3.txt,line.no:224'
p805
I9
sS'file3.txt,line.no:227'
p806
I4
sS'file3.txt,line.no:226'
p807
I11
sS'file3.txt,line.no:221'
p808
I12
sS'file3.txt,line.no:220'
p809
I4
sS'file3.txt,line.no:223'
p810
I7
sS'file3.txt,line.no:222'
p811
I11
sS'file2.txt,line.no:916'
p812
I8
sS'file2.txt,line.no:917'
p813
I4
sS'file2.txt,line.no:914'
p814
I4
sS'file2.txt,line.no:915'
p815
I4
sS'file2.txt,line.no:912'
p816
I4
sS'file2.txt,line.no:913'
p817
I14
sS'file2.txt,line.no:910'
p818
I4
sS'file2.txt,line.no:911'
p819
I11
sS'file4.txt,line.no:200'
p820
I36
sS'file4.txt,line.no:201'
p821
I8
sS'file4.txt,line.no:202'
p822
I27
sS'file4.txt,line.no:203'
p823
I26
sS'file4.txt,line.no:204'
p824
I30
sS'file4.txt,line.no:205'
p825
I24
sS'file2.txt,line.no:918'
p826
I15
sS'file2.txt,line.no:919'
p827
I3
sS'file2.txt,line.no:79'
p828
I1
sS'file2.txt,line.no:318'
p829
I2
sS'file2.txt,line.no:319'
p830
I1
sS'file1.txt,line.no:168'
p831
I1
sS'file1.txt,line.no:169'
p832
I11
sS'file2.txt,line.no:648'
p833
I1
sS'file2.txt,line.no:649'
p834
I1
sS'file2.txt,line.no:310'
p835
I1
sS'file2.txt,line.no:311'
p836
I1
sS'file2.txt,line.no:312'
p837
I1
sS'file2.txt,line.no:313'
p838
I1
sS'file2.txt,line.no:314'
p839
I1
sS'file2.txt,line.no:671'
p840
I1
sS'file2.txt,line.no:316'
p841
I1
sS'file2.txt,line.no:317'
p842
I1
sS'file4.txt,line.no:374'
p843
I9
sS'file4.txt,line.no:375'
p844
I11
sS'file4.txt,line.no:376'
p845
I13
sS'file4.txt,line.no:377'
p846
I11
sS'file4.txt,line.no:370'
p847
I3
sS'file4.txt,line.no:371'
p848
I5
sS'file4.txt,line.no:372'
p849
I10
sS'file4.txt,line.no:373'
p850
I8
sS'file4.txt,line.no:411'
p851
I10
sS'file4.txt,line.no:378'
p852
I10
sS'file4.txt,line.no:379'
p853
I1
sS'file4.txt,line.no:410'
p854
I7
sS'file3.txt,line.no:139'
p855
I14
sS'file3.txt,line.no:138'
p856
I6
sS'file4.txt,line.no:413'
p857
I8
sS'file3.txt,line.no:131'
p858
I18
sS'file3.txt,line.no:130'
p859
I6
sS'file3.txt,line.no:133'
p860
I11
sS'file4.txt,line.no:412'
p861
I9
sS'file3.txt,line.no:135'
p862
I15
sS'file3.txt,line.no:134'
p863
I7
sS'file3.txt,line.no:137'
p864
I17
sS'file3.txt,line.no:136'
p865
I19
sS'file4.txt,line.no:558'
p866
I4
sS'file4.txt,line.no:559'
p867
I3
sS'file4.txt,line.no:554'
p868
I5
sS'file4.txt,line.no:555'
p869
I3
sS'file4.txt,line.no:556'
p870
I6
sS'file4.txt,line.no:557'
p871
I4
sS'file4.txt,line.no:550'
p872
I4
sS'file4.txt,line.no:551'
p873
I4
sS'file4.txt,line.no:552'
p874
I4
sS'file4.txt,line.no:553'
p875
I5
sS'file4.txt,line.no:798'
p876
I2
sS'file4.txt,line.no:799'
p877
I2
sS'file4.txt,line.no:796'
p878
I1
sS'file4.txt,line.no:797'
p879
I1
sS'file4.txt,line.no:794'
p880
I15
sS'file4.txt,line.no:795'
p881
I13
sS'file4.txt,line.no:792'
p882
I13
sS'file4.txt,line.no:793'
p883
I12
sS'file4.txt,line.no:790'
p884
I2
sS'file4.txt,line.no:791'
p885
I13
sS'file4.txt,line.no:150'
p886
I1
sS'file2.txt,line.no:489'
p887
I1
sS'file4.txt,line.no:152'
p888
I1
sS'file4.txt,line.no:153'
p889
I1
sS'file4.txt,line.no:154'
p890
I1
sS'file4.txt,line.no:155'
p891
I2
sS'file4.txt,line.no:156'
p892
I1
sS'file4.txt,line.no:157'
p893
I24
sS'file2.txt,line.no:480'
p894
I1
sS'file4.txt,line.no:159'
p895
I31
sS'file2.txt,line.no:482'
p896
I1
sS'file2.txt,line.no:483'
p897
I1
sS'file2.txt,line.no:484'
p898
I1
sS'file2.txt,line.no:485'
p899
I1
sS'file2.txt,line.no:486'
p900
I1
sS'file2.txt,line.no:487'
p901
I1
sS'file2.txt,line.no:1031'
p902
I2
sS'file2.txt,line.no:466'
p903
I1
sS'file2.txt,line.no:467'
p904
I1
sS'file2.txt,line.no:464'
p905
I1
sS'file2.txt,line.no:465'
p906
I1
sS'file2.txt,line.no:462'
p907
I1
sS'file2.txt,line.no:463'
p908
I1
sS'file2.txt,line.no:460'
p909
I1
sS'file2.txt,line.no:461'
p910
I1
sS'file2.txt,line.no:468'
p911
I2
sS'file2.txt,line.no:469'
p912
I1
sS'file2.txt,line.no:260'
p913
I1
sS'file2.txt,line.no:261'
p914
I2
sS'file2.txt,line.no:262'
p915
I1
sS'file3.txt,line.no:69'
p916
I13
sS'file2.txt,line.no:264'
p917
I1
sS'file2.txt,line.no:265'
p918
I2
sS'file2.txt,line.no:266'
p919
I1
sS'file2.txt,line.no:267'
p920
I1
sS'file2.txt,line.no:268'
p921
I1
sS'file2.txt,line.no:269'
p922
I2
sS'file3.txt,line.no:60'
p923
I17
sS'file3.txt,line.no:61'
p924
I15
sS'file3.txt,line.no:66'
p925
I13
sS'file3.txt,line.no:67'
p926
I16
sS'file3.txt,line.no:64'
p927
I13
sS'file3.txt,line.no:65'
p928
I14
sS'file4.txt,line.no:29'
p929
I18
sS'file4.txt,line.no:28'
p930
I23
sS'file4.txt,line.no:23'
p931
I26
sS'file4.txt,line.no:22'
p932
I27
sS'file4.txt,line.no:21'
p933
I32
sS'file4.txt,line.no:20'
p934
I33
sS'file4.txt,line.no:27'
p935
I12
sS'file4.txt,line.no:26'
p936
I13
sS'file4.txt,line.no:25'
p937
I12
sS'file4.txt,line.no:24'
p938
I10
sS'file4.txt,line.no:414'
p939
I8
sS'file4.txt,line.no:420'
p940
I17
sS'file4.txt,line.no:417'
p941
I15
sS'file2.txt,line.no:378'
p942
I2
sS'file4.txt,line.no:148'
p943
I1
sS'file2.txt,line.no:379'
p944
I1
sS'file2.txt,line.no:370'
p945
I1
sS'file2.txt,line.no:371'
p946
I1
sS'file4.txt,line.no:640'
p947
I2
sS'file2.txt,line.no:179'
p948
I3
sS'file4.txt,line.no:134'
p949
I1
sS'file2.txt,line.no:142'
p950
I1
sS'file1.txt,line.no:39'
p951
I11
sS'file1.txt,line.no:38'
p952
I9
sS'file1.txt,line.no:33'
p953
I12
sS'file4.txt,line.no:644'
p954
I2
sS'file1.txt,line.no:31'
p955
I13
sS'file1.txt,line.no:30'
p956
I12
sS'file1.txt,line.no:37'
p957
I11
sS'file1.txt,line.no:36'
p958
I3
sS'file1.txt,line.no:35'
p959
I3
sS'file1.txt,line.no:34'
p960
I11
sS'file4.txt,line.no:130'
p961
I1
sS'file4.txt,line.no:647'
p962
I2
sS'file2.txt,line.no:170'
p963
I1
sS'file2.txt,line.no:171'
p964
I1
sS'file2.txt,line.no:176'
p965
I9
sS'file4.txt,line.no:139'
p966
I1
sS'file2.txt,line.no:771'
p967
I6
sS'file4.txt,line.no:424'
p968
I14
sS'file2.txt,line.no:857'
p969
I9
sS'file2.txt,line.no:856'
p970
I8
sS'file2.txt,line.no:855'
p971
I7
sS'file2.txt,line.no:854'
p972
I15
sS'file2.txt,line.no:853'
p973
I8
sS'file2.txt,line.no:852'
p974
I13
sS'file2.txt,line.no:851'
p975
I5
sS'file2.txt,line.no:850'
p976
I13
sS'file2.txt,line.no:859'
p977
I5
sS'file2.txt,line.no:858'
p978
I15
sS'file2.txt,line.no:779'
p979
I14
sS'file4.txt,line.no:426'
p980
I16
sS'file2.txt,line.no:923'
p981
I6
sS'file2.txt,line.no:922'
p982
I5
sS'file2.txt,line.no:921'
p983
I5
sS'file2.txt,line.no:920'
p984
I1
sS'file2.txt,line.no:927'
p985
I6
sS'file2.txt,line.no:926'
p986
I12
sS'file2.txt,line.no:925'
p987
I10
sS'file2.txt,line.no:924'
p988
I13
sS'file4.txt,line.no:891'
p989
I1
sS'file4.txt,line.no:890'
p990
I1
sS'file2.txt,line.no:929'
p991
I2
sS'file4.txt,line.no:892'
p992
I10
sS'file4.txt,line.no:895'
p993
I1
sS'file4.txt,line.no:894'
p994
I1
sS'file4.txt,line.no:897'
p995
I1
sS'file4.txt,line.no:896'
p996
I2
sS'file4.txt,line.no:618'
p997
I10
sS'file4.txt,line.no:427'
p998
I9
sS'file3.txt,line.no:63'
p999
I11
sS'file1.txt,line.no:119'
p1000
I10
sS'file1.txt,line.no:118'
p1001
I8
sS'file2.txt,line.no:679'
p1002
I1
sS'file2.txt,line.no:678'
p1003
I1
sS'file4.txt,line.no:419'
p1004
I9
sS'file4.txt,line.no:418'
p1005
I2
sS'file2.txt,line.no:673'
p1006
I1
sS'file2.txt,line.no:672'
p1007
I1
sS'file1.txt,line.no:113'
p1008
I10
sS'file4.txt,line.no:416'
p1009
I9
sS'file2.txt,line.no:677'
p1010
I2
sS'file2.txt,line.no:676'
p1011
I1
sS'file2.txt,line.no:675'
p1012
I1
sS'file2.txt,line.no:674'
p1013
I1
sS'file4.txt,line.no:301'
p1014
I14
sS'file4.txt,line.no:300'
p1015
I2
sS'file4.txt,line.no:303'
p1016
I13
sS'file4.txt,line.no:302'
p1017
I16
sS'file4.txt,line.no:305'
p1018
I10
sS'file4.txt,line.no:304'
p1019
I12
sS'file4.txt,line.no:307'
p1020
I13
sS'file4.txt,line.no:306'
p1021
I16
sS'file4.txt,line.no:309'
p1022
I2
sS'file4.txt,line.no:308'
p1023
I3
sS'file3.txt,line.no:128'
p1024
I12
sS'file3.txt,line.no:129'
p1025
I5
sS'file4.txt,line.no:421'
p1026
I13
sS'file3.txt,line.no:122'
p1027
I13
sS'file3.txt,line.no:123'
p1028
I19
sS'file3.txt,line.no:120'
p1029
I4
sS'file3.txt,line.no:121'
p1030
I2
sS'file3.txt,line.no:126'
p1031
I18
sS'file3.txt,line.no:127'
p1032
I19
sS'file3.txt,line.no:124'
p1033
I18
sS'file3.txt,line.no:125'
p1034
I19
sS'file4.txt,line.no:529'
p1035
I15
sS'file4.txt,line.no:528'
p1036
I12
sS'file2.txt,line.no:452'
p1037
I1
sS'file4.txt,line.no:521'
p1038
I5
sS'file4.txt,line.no:520'
p1039
I6
sS'file4.txt,line.no:523'
p1040
I10
sS'file4.txt,line.no:522'
p1041
I15
sS'file4.txt,line.no:525'
p1042
I13
sS'file4.txt,line.no:524'
p1043
I17
sS'file4.txt,line.no:527'
p1044
I11
sS'file4.txt,line.no:526'
p1045
I13
sS'file4.txt,line.no:15'
p1046
I32
sS'file4.txt,line.no:422'
p1047
I17
sS'file2.txt,line.no:109'
p1048
I1
sS'file2.txt,line.no:108'
p1049
I1
sS'file4.txt,line.no:10'
p1050
I35
sS'file2.txt,line.no:1008'
p1051
I13
sS'file2.txt,line.no:1009'
p1052
I15
sS'file2.txt,line.no:1006'
p1053
I10
sS'file2.txt,line.no:1007'
p1054
I4
sS'file2.txt,line.no:1004'
p1055
I1
sS'file2.txt,line.no:1005'
p1056
I5
sS'file2.txt,line.no:1002'
p1057
I2
sS'file2.txt,line.no:1003'
p1058
I7
sS'file2.txt,line.no:1000'
p1059
I6
sS'file2.txt,line.no:1001'
p1060
I8
sS'file2.txt,line.no:512'
p1061
I1
sS'file4.txt,line.no:423'
p1062
I3
sS'file4.txt,line.no:735'
p1063
I9
sS'file2.txt,line.no:459'
p1064
I1
sS'file2.txt,line.no:453'
p1065
I1
sS'file4.txt,line.no:17'
p1066
I3
sS'file4.txt,line.no:14'
p1067
I3
sS'file2.txt,line.no:458'
p1068
I2
sS'file4.txt,line.no:12'
p1069
I1
sS'file4.txt,line.no:13'
p1070
I1
sS'file2.txt,line.no:455'
p1071
I1
sS'file4.txt,line.no:11'
p1072
I1
sS'file2.txt,line.no:105'
p1073
I1
sS'file2.txt,line.no:104'
p1074
I2
sS'file2.txt,line.no:107'
p1075
I1
sS'file2.txt,line.no:106'
p1076
I1
sS'file2.txt,line.no:101'
p1077
I1
sS'file2.txt,line.no:100'
p1078
I1
sS'file2.txt,line.no:103'
p1079
I1
sS'file2.txt,line.no:102'
p1080
I1
sS'file2.txt,line.no:978'
p1081
I1
sS'file2.txt,line.no:299'
p1082
I1
sS'file4.txt,line.no:18'
p1083
I27
sS'file2.txt,line.no:979'
p1084
I4
sS'file2.txt,line.no:295'
p1085
I4
sS'file2.txt,line.no:294'
p1086
I9
sS'file2.txt,line.no:297'
p1087
I11
sS'file4.txt,line.no:19'
p1088
I34
sS'file2.txt,line.no:291'
p1089
I6
sS'file2.txt,line.no:290'
p1090
I6
sS'file2.txt,line.no:293'
p1091
I10
sS'file2.txt,line.no:292'
p1092
I12
sS'file2.txt,line.no:581'
p1093
I1
sS'file2.txt,line.no:580'
p1094
I2
sS'file2.txt,line.no:583'
p1095
I1
sS'file2.txt,line.no:582'
p1096
I1
sS'file2.txt,line.no:585'
p1097
I30
sS'file2.txt,line.no:584'
p1098
I1
sS'file2.txt,line.no:587'
p1099
I1
sS'file2.txt,line.no:586'
p1100
I1
sS'file2.txt,line.no:589'
p1101
I1
sS'file2.txt,line.no:588'
p1102
I1
sS'file2.txt,line.no:298'
p1103
I5
sS'file3.txt,line.no:75'
p1104
I11
sS'file3.txt,line.no:74'
p1105
I11
sS'file3.txt,line.no:77'
p1106
I18
sS'file2.txt,line.no:296'
p1107
I9
sS'file3.txt,line.no:71'
p1108
I1
sS'file3.txt,line.no:70'
p1109
I4
sS'file3.txt,line.no:73'
p1110
I14
sS'file3.txt,line.no:72'
p1111
I1
sS'file3.txt,line.no:79'
p1112
I1
sS'file3.txt,line.no:78'
p1113
I14
sS'file4.txt,line.no:603'
p1114
I13
sS'file4.txt,line.no:281'
p1115
I1
sS'file4.txt,line.no:287'
p1116
I14
sS'file4.txt,line.no:219'
p1117
I1
sS'file4.txt,line.no:218'
p1118
I1
sS'file2.txt,line.no:206'
p1119
I1
sS'file2.txt,line.no:207'
p1120
I1
sS'file4.txt,line.no:213'
p1121
I1
sS'file4.txt,line.no:212'
p1122
I1
sS'file2.txt,line.no:205'
p1123
I2
sS'file2.txt,line.no:840'
p1124
I11
sS'file2.txt,line.no:841'
p1125
I4
sS'file2.txt,line.no:842'
p1126
I3
sS'file2.txt,line.no:843'
p1127
I14
sS'file2.txt,line.no:844'
p1128
I3
sS'file2.txt,line.no:845'
p1129
I4
sS'file2.txt,line.no:846'
p1130
I8
sS'file2.txt,line.no:847'
p1131
I3
sS'file2.txt,line.no:848'
p1132
I10
sS'file2.txt,line.no:849'
p1133
I12
sS'file3.txt,line.no:209'
p1134
I14
sS'file3.txt,line.no:208'
p1135
I1
sS'file3.txt,line.no:203'
p1136
I18
sS'file3.txt,line.no:202'
p1137
I6
sS'file3.txt,line.no:201'
p1138
I15
sS'file3.txt,line.no:200'
p1139
I16
sS'file3.txt,line.no:207'
p1140
I1
sS'file3.txt,line.no:206'
p1141
I8
sS'file3.txt,line.no:205'
p1142
I16
sS'file3.txt,line.no:204'
p1143
I16
sS'file2.txt,line.no:208'
p1144
I1
sS'file2.txt,line.no:209'
p1145
I2
sS'file4.txt,line.no:888'
p1146
I7
sS'file4.txt,line.no:889'
p1147
I1
sS'file2.txt,line.no:938'
p1148
I4
sS'file2.txt,line.no:939'
p1149
I4
sS'file2.txt,line.no:934'
p1150
I14
sS'file2.txt,line.no:935'
p1151
I8
sS'file2.txt,line.no:936'
p1152
I11
sS'file2.txt,line.no:937'
p1153
I7
sS'file2.txt,line.no:930'
p1154
I13
sS'file2.txt,line.no:931'
p1155
I7
sS'file2.txt,line.no:932'
p1156
I5
sS'file2.txt,line.no:933'
p1157
I7
sS'file2.txt,line.no:329'
p1158
I1
sS'file3.txt,line.no:117'
p1159
I2
sS'file3.txt,line.no:116'
p1160
I2
sS'file3.txt,line.no:115'
p1161
I6
sS'file3.txt,line.no:114'
p1162
I1
sS'file3.txt,line.no:113'
p1163
I1
sS'file3.txt,line.no:112'
p1164
I18
sS'file3.txt,line.no:111'
p1165
I6
sS'file3.txt,line.no:110'
p1166
I15
sS'file3.txt,line.no:119'
p1167
I9
sS'file3.txt,line.no:118'
p1168
I2
sS'file1.txt,line.no:108'
p1169
I4
sS'file1.txt,line.no:109'
p1170
I1
sS'file4.txt,line.no:408'
p1171
I14
sS'file4.txt,line.no:409'
p1172
I12
sS'file4.txt,line.no:406'
p1173
I1
sS'file4.txt,line.no:407'
p1174
I2
sS'file4.txt,line.no:404'
p1175
I13
sS'file4.txt,line.no:405'
p1176
I6
sS'file4.txt,line.no:402'
p1177
I11
sS'file4.txt,line.no:403'
p1178
I12
sS'file4.txt,line.no:400'
p1179
I15
sS'file4.txt,line.no:401'
p1180
I12
sS'file4.txt,line.no:312'
p1181
I15
sS'file4.txt,line.no:313'
p1182
I13
sS'file4.txt,line.no:310'
p1183
I16
sS'file4.txt,line.no:311'
p1184
I2
sS'file4.txt,line.no:316'
p1185
I14
sS'file4.txt,line.no:317'
p1186
I3
sS'file4.txt,line.no:314'
p1187
I6
sS'file4.txt,line.no:315'
p1188
I7
sS'file4.txt,line.no:318'
p1189
I2
sS'file4.txt,line.no:319'
p1190
I16
sS'file1.txt,line.no:111'
p1191
I7
sS'file4.txt,line.no:538'
p1192
I14
sS'file4.txt,line.no:539'
p1193
I9
sS'file1.txt,line.no:71'
p1194
I2
sS'file4.txt,line.no:532'
p1195
I14
sS'file4.txt,line.no:533'
p1196
I14
sS'file4.txt,line.no:530'
p1197
I14
sS'file4.txt,line.no:531'
p1198
I7
sS'file4.txt,line.no:536'
p1199
I7
sS'file4.txt,line.no:537'
p1200
I12
sS'file4.txt,line.no:534'
p1201
I12
sS'file4.txt,line.no:535'
p1202
I1
sS'file3.txt,line.no:76'
p1203
I6
sS'file1.txt,line.no:110'
p1204
I2
sS'file2.txt,line.no:664'
p1205
I1
sS'file2.txt,line.no:665'
p1206
I1
sS'file2.txt,line.no:666'
p1207
I1
sS'file2.txt,line.no:667'
p1208
I1
sS'file2.txt,line.no:1019'
p1209
I10
sS'file2.txt,line.no:1018'
p1210
I12
sS'file2.txt,line.no:662'
p1211
I1
sS'file2.txt,line.no:663'
p1212
I1
sS'file2.txt,line.no:1015'
p1213
I9
sS'file2.txt,line.no:1014'
p1214
I4
sS'file2.txt,line.no:1017'
p1215
I4
sS'file2.txt,line.no:1016'
p1216
I1
sS'file2.txt,line.no:1011'
p1217
I1
sS'file2.txt,line.no:1010'
p1218
I4
sS'file2.txt,line.no:1013'
p1219
I3
sS'file2.txt,line.no:1012'
p1220
I4
sS'file2.txt,line.no:70'
p1221
I1
sS'file2.txt,line.no:659'
p1222
I1
sS'file1.txt,line.no:78'
p1223
I7
sS'file2.txt,line.no:658'
p1224
I1
sS'file4.txt,line.no:626'
p1225
I2
sS'file4.txt,line.no:627'
p1226
I2
sS'file4.txt,line.no:624'
p1227
I2
sS'file4.txt,line.no:625'
p1228
I2
sS'file2.txt,line.no:448'
p1229
I2
sS'file2.txt,line.no:449'
p1230
I1
sS'file2.txt,line.no:118'
p1231
I1
sS'file2.txt,line.no:119'
p1232
I1
sS'file2.txt,line.no:444'
p1233
I1
sS'file2.txt,line.no:445'
p1234
I1
sS'file2.txt,line.no:446'
p1235
I1
sS'file2.txt,line.no:447'
p1236
I1
sS'file2.txt,line.no:440'
p1237
I1
sS'file2.txt,line.no:441'
p1238
I1
sS'file2.txt,line.no:442'
p1239
I1
sS'file2.txt,line.no:443'
p1240
I1
sS'file2.txt,line.no:655'
p1241
I1
sS'file1.txt,line.no:112'
p1242
I7
sS'file2.txt,line.no:288'
p1243
I10
sS'file2.txt,line.no:289'
p1244
I8
sS'file2.txt,line.no:286'
p1245
I1
sS'file2.txt,line.no:287'
p1246
I4
sS'file2.txt,line.no:284'
p1247
I1
sS'file2.txt,line.no:285'
p1248
I1
sS'file2.txt,line.no:282'
p1249
I1
sS'file2.txt,line.no:283'
p1250
I1
sS'file2.txt,line.no:280'
p1251
I1
sS'file2.txt,line.no:281'
p1252
I2
sS'file2.txt,line.no:592'
p1253
I5
sS'file2.txt,line.no:593'
p1254
I6
sS'file2.txt,line.no:590'
p1255
I1
sS'file1.txt,line.no:178'
p1256
I10
sS'file2.txt,line.no:596'
p1257
I1
sS'file2.txt,line.no:597'
p1258
I5
sS'file2.txt,line.no:594'
p1259
I3
sS'file2.txt,line.no:595'
p1260
I3
sS'file2.txt,line.no:651'
p1261
I1
sS'file2.txt,line.no:598'
p1262
I5
sS'file2.txt,line.no:599'
p1263
I5
sS'file2.txt,line.no:650'
p1264
I1
sS'file1.txt,line.no:115'
p1265
I2
sS'file2.txt,line.no:653'
p1266
I1
sS'file2.txt,line.no:652'
p1267
I1
sS'file2.txt,line.no:628'
p1268
I1
sS'file2.txt,line.no:629'
p1269
I1
sS'file1.txt,line.no:114'
p1270
I1
sS'file2.txt,line.no:1081'
p1271
I3
sS'file1.txt,line.no:117'
p1272
I11
sS'file2.txt,line.no:622'
p1273
I1
sS'file2.txt,line.no:623'
p1274
I1
sS'file1.txt,line.no:116'
p1275
I10
sS'file2.txt,line.no:125'
p1276
I1
sS'file1.txt,line.no:11'
p1277
I1
sS'file1.txt,line.no:10'
p1278
I11
sS'file1.txt,line.no:13'
p1279
I8
sS'file1.txt,line.no:12'
p1280
I8
sS'file1.txt,line.no:15'
p1281
I19
sS'file1.txt,line.no:14'
p1282
I2
sS'file1.txt,line.no:17'
p1283
I20
sS'file1.txt,line.no:16'
p1284
I30
sS'file1.txt,line.no:19'
p1285
I27
sS'file1.txt,line.no:18'
p1286
I21
sS'file2.txt,line.no:124'
p1287
I1
sS'file2.txt,line.no:392'
p1288
I1
sS'file2.txt,line.no:393'
p1289
I1
sS'file2.txt,line.no:398'
p1290
I2
sS'file2.txt,line.no:399'
p1291
I1
sS'file4.txt,line.no:425'
p1292
I11
sS'file2.txt,line.no:152'
p1293
I1
sS'file2.txt,line.no:153'
p1294
I1
sS'file2.txt,line.no:150'
p1295
I1
sS'file2.txt,line.no:151'
p1296
I1
sS'file2.txt,line.no:156'
p1297
I1
sS'file2.txt,line.no:157'
p1298
I1
sS'file2.txt,line.no:154'
p1299
I1
sS'file2.txt,line.no:155'
p1300
I1
sS'file3.txt,line.no:214'
p1301
I10
sS'file3.txt,line.no:215'
p1302
I18
sS'file3.txt,line.no:216'
p1303
I2
sS'file3.txt,line.no:217'
p1304
I1
sS'file3.txt,line.no:210'
p1305
I4
sS'file3.txt,line.no:211'
p1306
I14
sS'file3.txt,line.no:212'
p1307
I20
sS'file3.txt,line.no:213'
p1308
I21
sS'file3.txt,line.no:218'
p1309
I13
sS'file3.txt,line.no:219'
p1310
I11
sS'file2.txt,line.no:949'
p1311
I1
sS'file2.txt,line.no:948'
p1312
I3
sS'file2.txt,line.no:941'
p1313
I14
sS'file2.txt,line.no:940'
p1314
I11
sS'file2.txt,line.no:943'
p1315
I4
sS'file2.txt,line.no:942'
p1316
I11
sS'file2.txt,line.no:945'
p1317
I4
sS'file2.txt,line.no:944'
p1318
I1
sS'file2.txt,line.no:947'
p1319
I4
sS'file2.txt,line.no:946'
p1320
I6
sS'file3.txt,line.no:100'
p1321
I1
sS'file3.txt,line.no:101'
p1322
I10
sS'file3.txt,line.no:102'
p1323
I1
sS'file3.txt,line.no:103'
p1324
I15
sS'file3.txt,line.no:104'
p1325
I14
sS'file3.txt,line.no:105'
p1326
I1
sS'file3.txt,line.no:106'
p1327
I8
sS'file3.txt,line.no:107'
p1328
I1
sS'file3.txt,line.no:108'
p1329
I14
sS'file3.txt,line.no:109'
p1330
I1
sS'file2.txt,line.no:716'
p1331
I1
sS'file4.txt,line.no:439'
p1332
I8
sS'file4.txt,line.no:438'
p1333
I1
sS'file4.txt,line.no:433'
p1334
I12
sS'file4.txt,line.no:432'
p1335
I11
sS'file4.txt,line.no:431'
p1336
I9
sS'file4.txt,line.no:430'
p1337
I13
sS'file4.txt,line.no:437'
p1338
I8
sS'file4.txt,line.no:436'
p1339
I14
sS'file4.txt,line.no:435'
p1340
I14
sS'file4.txt,line.no:434'
p1341
I13
sS'file4.txt,line.no:141'
p1342
I1
sS'file4.txt,line.no:329'
p1343
I13
sS'file4.txt,line.no:328'
p1344
I10
sS'file4.txt,line.no:327'
p1345
I3
sS'file4.txt,line.no:326'
p1346
I15
sS'file4.txt,line.no:325'
p1347
I15
sS'file4.txt,line.no:140'
p1348
I1
sS'file4.txt,line.no:323'
p1349
I3
sS'file4.txt,line.no:322'
p1350
I1
sS'file4.txt,line.no:321'
p1351
I16
sS'file4.txt,line.no:320'
p1352
I5
sS'file4.txt,line.no:507'
p1353
I1
sS'file4.txt,line.no:506'
p1354
I2
sS'file4.txt,line.no:505'
p1355
I4
sS'file4.txt,line.no:504'
p1356
I1
sS'file4.txt,line.no:503'
p1357
I12
sS'file2.txt,line.no:728'
p1358
I6
sS'file4.txt,line.no:501'
p1359
I13
sS'file4.txt,line.no:500'
p1360
I14
sS'file2.txt,line.no:725'
p1361
I7
sS'file2.txt,line.no:724'
p1362
I9
sS'file2.txt,line.no:727'
p1363
I7
sS'file2.txt,line.no:726'
p1364
I5
sS'file2.txt,line.no:721'
p1365
I7
sS'file2.txt,line.no:720'
p1366
I7
sS'file4.txt,line.no:509'
p1367
I5
sS'file4.txt,line.no:508'
p1368
I3
sS'file2.txt,line.no:1028'
p1369
I9
sS'file2.txt,line.no:1029'
p1370
I11
sS'file2.txt,line.no:613'
p1371
I1
sS'file4.txt,line.no:188'
p1372
I1
sS'file1.txt,line.no:133'
p1373
I11
sS'file1.txt,line.no:132'
p1374
I11
sS'file1.txt,line.no:131'
p1375
I11
sS'file1.txt,line.no:130'
p1376
I11
sS'file2.txt,line.no:1020'
p1377
I4
sS'file2.txt,line.no:1021'
p1378
I9
sS'file4.txt,line.no:181'
p1379
I1
sS'file2.txt,line.no:1023'
p1380
I4
sS'file2.txt,line.no:1024'
p1381
I8
sS'file4.txt,line.no:186'
p1382
I1
sS'file2.txt,line.no:1026'
p1383
I5
sS'file2.txt,line.no:1027'
p1384
I6
sS'file4.txt,line.no:613'
p1385
I1
sS'file4.txt,line.no:612'
p1386
I12
sS'file4.txt,line.no:611'
p1387
I5
sS'file2.txt,line.no:128'
p1388
I1
sS'file4.txt,line.no:617'
p1389
I11
sS'file4.txt,line.no:616'
p1390
I13
sS'file4.txt,line.no:615'
p1391
I3
sS'file4.txt,line.no:614'
p1392
I1
sS'file2.txt,line.no:431'
p1393
I1
sS'file2.txt,line.no:430'
p1394
I1
sS'file2.txt,line.no:433'
p1395
I1
sS'file2.txt,line.no:432'
p1396
I1
sS'file2.txt,line.no:435'
p1397
I1
sS'file2.txt,line.no:434'
p1398
I1
sS'file2.txt,line.no:437'
p1399
I1
sS'file2.txt,line.no:436'
p1400
I1
sS'file2.txt,line.no:358'
p1401
I2
sS'file1.txt,line.no:166'
p1402
I10
sS'file2.txt,line.no:545'
p1403
I1
sS'file2.txt,line.no:544'
p1404
I1
sS'file2.txt,line.no:547'
p1405
I1
sS'file2.txt,line.no:546'
p1406
I1
sS'file2.txt,line.no:541'
p1407
I1
sS'file2.txt,line.no:540'
p1408
I1
sS'file2.txt,line.no:543'
p1409
I1
sS'file2.txt,line.no:542'
p1410
I1
sS'file2.txt,line.no:549'
p1411
I1
sS'file2.txt,line.no:548'
p1412
I1
sS'file2.txt,line.no:578'
p1413
I1
sS'file2.txt,line.no:579'
p1414
I1
sS'file3.txt,line.no:13'
p1415
I13
sS'file3.txt,line.no:12'
p1416
I1
sS'file3.txt,line.no:11'
p1417
I11
sS'file3.txt,line.no:10'
p1418
I1
sS'file3.txt,line.no:17'
p1419
I17
sS'file3.txt,line.no:16'
p1420
I18
sS'file3.txt,line.no:15'
p1421
I16
sS'file3.txt,line.no:14'
p1422
I11
sS'file3.txt,line.no:19'
p1423
I18
sS'file3.txt,line.no:18'
p1424
I21
sS'file1.txt,line.no:161'
p1425
I7
sS'file2.txt,line.no:572'
p1426
I1
sS'file2.txt,line.no:573'
p1427
I3
sS'file3.txt,line.no:59'
p1428
I15
sS'file3.txt,line.no:58'
p1429
I13
sS'file2.txt,line.no:110'
p1430
I1
sS'file3.txt,line.no:51'
p1431
I14
sS'file3.txt,line.no:50'
p1432
I17
sS'file4.txt,line.no:183'
p1433
I1
sS'file1.txt,line.no:137'
p1434
I11
sS'file4.txt,line.no:182'
p1435
I1
sS'file1.txt,line.no:136'
p1436
I3
sS'file1.txt,line.no:135'
p1437
I11
sS'file1.txt,line.no:134'
p1438
I11
sS'file4.txt,line.no:299'
p1439
I2
sS'file4.txt,line.no:298'
p1440
I2
sS'file4.txt,line.no:723'
p1441
I17
sS'file2.txt,line.no:958'
p1442
I4
sS'file2.txt,line.no:959'
p1443
I9
sS'file1.txt,line.no:229'
p1444
I5
sS'file2.txt,line.no:952'
p1445
I4
sS'file2.txt,line.no:953'
p1446
I11
sS'file2.txt,line.no:950'
p1447
I4
sS'file2.txt,line.no:951'
p1448
I3
sS'file2.txt,line.no:956'
p1449
I2
sS'file2.txt,line.no:957'
p1450
I10
sS'file2.txt,line.no:954'
p1451
I4
sS'file2.txt,line.no:955'
p1452
I9
sS'file1.txt,line.no:227'
p1453
I4
sS'file1.txt,line.no:226'
p1454
I7
sS'file4.txt,line.no:338'
p1455
I5
sS'file4.txt,line.no:339'
p1456
I13
sS'file4.txt,line.no:330'
p1457
I11
sS'file4.txt,line.no:331'
p1458
I3
sS'file4.txt,line.no:332'
p1459
I2
sS'file4.txt,line.no:333'
p1460
I3
sS'file4.txt,line.no:334'
p1461
I3
sS'file4.txt,line.no:335'
p1462
I2
sS'file4.txt,line.no:336'
p1463
I15
sS'file4.txt,line.no:337'
p1464
I16
sS'file4.txt,line.no:510'
p1465
I1
sS'file4.txt,line.no:511'
p1466
I3
sS'file4.txt,line.no:512'
p1467
I3
sS'file4.txt,line.no:513'
p1468
I1
sS'file4.txt,line.no:514'
p1469
I1
sS'file4.txt,line.no:515'
p1470
I14
sS'file2.txt,line.no:738'
p1471
I16
sS'file2.txt,line.no:739'
p1472
I2
sS'file4.txt,line.no:518'
p1473
I14
sS'file4.txt,line.no:519'
p1474
I7
sS'file2.txt,line.no:734'
p1475
I7
sS'file2.txt,line.no:735'
p1476
I6
sS'file2.txt,line.no:732'
p1477
I4
sS'file2.txt,line.no:733'
p1478
I10
sS'file2.txt,line.no:730'
p1479
I5
sS'file2.txt,line.no:731'
p1480
I5
sS'file1.txt,line.no:120'
p1481
I9
sS'file1.txt,line.no:121'
p1482
I10
sS'file1.txt,line.no:122'
p1483
I11
sS'file1.txt,line.no:123'
p1484
I11
sS'file1.txt,line.no:124'
p1485
I8
sS'file1.txt,line.no:125'
p1486
I9
sS'file1.txt,line.no:126'
p1487
I1
sS'file1.txt,line.no:127'
p1488
I9
sS'file1.txt,line.no:128'
p1489
I5
sS'file1.txt,line.no:129'
p1490
I2
sS'file2.txt,line.no:608'
p1491
I1
sS'file2.txt,line.no:609'
p1492
I1
sS'file4.txt,line.no:428'
p1493
I4
sS'file4.txt,line.no:429'
p1494
I12
sS'file4.txt,line.no:194'
p1495
I11
sS'file4.txt,line.no:195'
p1496
I10
sS'file4.txt,line.no:196'
p1497
I28
sS'file2.txt,line.no:1034'
p1498
I1
sS'file4.txt,line.no:190'
p1499
I27
sS'file2.txt,line.no:1032'
p1500
I2
sS'file1.txt,line.no:174'
p1501
I2
sS'file4.txt,line.no:193'
p1502
I16
sS'file4.txt,line.no:198'
p1503
I13
sS'file4.txt,line.no:199'
p1504
I10
sS'file2.txt,line.no:1039'
p1505
I4
sS'file2.txt,line.no:1038'
p1506
I4
sS'file2.txt,line.no:428'
p1507
I2
sS'file2.txt,line.no:429'
p1508
I1
sS'file4.txt,line.no:608'
p1509
I15
sS'file4.txt,line.no:609'
p1510
I15
sS'file4.txt,line.no:604'
p1511
I9
sS'file4.txt,line.no:605'
p1512
I14
sS'file2.txt,line.no:420'
p1513
I1
sS'file2.txt,line.no:421'
p1514
I1
sS'file2.txt,line.no:426'
p1515
I1
sS'file2.txt,line.no:427'
p1516
I1
sS'file4.txt,line.no:602'
p1517
I11
sS'file2.txt,line.no:425'
p1518
I1
sS'file2.txt,line.no:134'
p1519
I1
sS'file2.txt,line.no:135'
p1520
I1
sS'file2.txt,line.no:136'
p1521
I1
sS'file2.txt,line.no:137'
p1522
I1
sS'file2.txt,line.no:130'
p1523
I1
sS'file2.txt,line.no:131'
p1524
I2
sS'file2.txt,line.no:132'
p1525
I1
sS'file2.txt,line.no:133'
p1526
I1
sS'file2.txt,line.no:304'
p1527
I1
sS'file2.txt,line.no:138'
p1528
I1
sS'file2.txt,line.no:139'
p1529
I1
sS'file2.txt,line.no:481'
p1530
I1
sS'file2.txt,line.no:556'
p1531
I1
sS'file2.txt,line.no:557'
p1532
I1
sS'file2.txt,line.no:554'
p1533
I4
sS'file2.txt,line.no:555'
p1534
I1
sS'file2.txt,line.no:552'
p1535
I4
sS'file2.txt,line.no:553'
p1536
I1
sS'file2.txt,line.no:550'
p1537
I4
sS'file2.txt,line.no:551'
p1538
I4
sS'file2.txt,line.no:558'
p1539
I1
sS'file2.txt,line.no:559'
p1540
I33
sS'file1.txt,line.no:179'
p1541
I11
sS'file4.txt,line.no:169'
p1542
I3
sS'file3.txt,line.no:28'
p1543
I16
sS'file4.txt,line.no:168'
p1544
I22
sS'file3.txt,line.no:26'
p1545
I14
sS'file3.txt,line.no:27'
p1546
I6
sS'file3.txt,line.no:24'
p1547
I15
sS'file3.txt,line.no:25'
p1548
I13
sS'file3.txt,line.no:22'
p1549
I1
sS'file4.txt,line.no:699'
p1550
I14
sS'file3.txt,line.no:20'
p1551
I9
sS'file3.txt,line.no:21'
p1552
I5
sS'file4.txt,line.no:698'
p1553
I1
sS'file1.txt,line.no:151'
p1554
I3
sS'file1.txt,line.no:150'
p1555
I5
sS'file4.txt,line.no:516'
p1556
I13
sS'file4.txt,line.no:517'
p1557
I13
sS'file4.txt,line.no:693'
p1558
I10
sS'file4.txt,line.no:692'
p1559
I9
sS'file4.txt,line.no:691'
p1560
I10
sS'file4.txt,line.no:814'
p1561
I1
sS'file4.txt,line.no:690'
p1562
I9
sS'file4.txt,line.no:697'
p1563
I1
sS'file4.txt,line.no:696'
p1564
I4
sS'file4.txt,line.no:695'
p1565
I1
sS'file4.txt,line.no:694'
p1566
I11
sS'file2.txt,line.no:602'
p1567
I1
sS'file2.txt,line.no:603'
p1568
I1
sS'file2.txt,line.no:600'
p1569
I5
sS'file2.txt,line.no:601'
p1570
I1
sS'file2.txt,line.no:606'
p1571
I1
sS'file2.txt,line.no:607'
p1572
I1
sS'file2.txt,line.no:604'
p1573
I1
sS'file4.txt,line.no:610'
p1574
I11
sS'file2.txt,line.no:605'
p1575
I1
sS'file4.txt,line.no:77'
p1576
I1
sS'file2.txt,line.no:1037'
p1577
I4
sS'file2.txt,line.no:1036'
p1578
I4
sS'file2.txt,line.no:1035'
p1579
I4
sS'file4.txt,line.no:197'
p1580
I13
sS'file2.txt,line.no:1033'
p1581
I6
sS'file4.txt,line.no:191'
p1582
I15
sS'file4.txt,line.no:192'
p1583
I25
sS'file2.txt,line.no:1030'
p1584
I15
sS'file2.txt,line.no:18'
p1585
I38
sS'file2.txt,line.no:19'
p1586
I1
sS'file2.txt,line.no:14'
p1587
I4
sS'file2.txt,line.no:15'
p1588
I2
sS'file2.txt,line.no:16'
p1589
I39
sS'file2.txt,line.no:17'
p1590
I32
sS'file2.txt,line.no:10'
p1591
I3
sS'file2.txt,line.no:11'
p1592
I2
sS'file2.txt,line.no:12'
p1593
I2
sS'file2.txt,line.no:13'
p1594
I3
sS'file2.txt,line.no:899'
p1595
I2
sS'file2.txt,line.no:898'
p1596
I3
sS'file2.txt,line.no:893'
p1597
I3
sS'file2.txt,line.no:892'
p1598
I2
sS'file2.txt,line.no:891'
p1599
I2
sS'file2.txt,line.no:890'
p1600
I2
sS'file2.txt,line.no:897'
p1601
I3
sS'file2.txt,line.no:896'
p1602
I2
sS'file2.txt,line.no:895'
p1603
I4
sS'file2.txt,line.no:894'
p1604
I4
sS'file4.txt,line.no:565'
p1605
I4
sS'file4.txt,line.no:564'
p1606
I6
sS'file4.txt,line.no:567'
p1607
I4
sS'file4.txt,line.no:566'
p1608
I4
sS'file4.txt,line.no:561'
p1609
I5
sS'file4.txt,line.no:560'
p1610
I4
sS'file4.txt,line.no:563'
p1611
I3
sS'file4.txt,line.no:562'
p1612
I5
sS'file2.txt,line.no:967'
p1613
I6
sS'file2.txt,line.no:422'
p1614
I1
sS'file2.txt,line.no:965'
p1615
I7
sS'file2.txt,line.no:964'
p1616
I2
sS'file2.txt,line.no:963'
p1617
I3
sS'file2.txt,line.no:962'
p1618
I5
sS'file2.txt,line.no:961'
p1619
I6
sS'file2.txt,line.no:423'
p1620
I1
sS'file4.txt,line.no:855'
p1621
I8
sS'file4.txt,line.no:854'
p1622
I9
sS'file4.txt,line.no:857'
p1623
I2
sS'file4.txt,line.no:856'
p1624
I10
sS'file4.txt,line.no:619'
p1625
I10
sS'file4.txt,line.no:606'
p1626
I12
sS'file4.txt,line.no:853'
p1627
I3
sS'file2.txt,line.no:968'
p1628
I1
sS'file4.txt,line.no:607'
p1629
I13
sS'file4.txt,line.no:600'
p1630
I1
sS'file1.txt,line.no:144'
p1631
I9
sS'file4.txt,line.no:601'
p1632
I2
sS'file4.txt,line.no:297'
p1633
I3
sS'file4.txt,line.no:296'
p1634
I2
sS'file4.txt,line.no:295'
p1635
I3
sS'file4.txt,line.no:294'
p1636
I3
sS'file4.txt,line.no:293'
p1637
I1
sS'file2.txt,line.no:424'
p1638
I1
sS'file4.txt,line.no:291'
p1639
I15
sS'file4.txt,line.no:290'
p1640
I6
sS'file1.txt,line.no:245'
p1641
I6
sS'file1.txt,line.no:244'
p1642
I1
sS'file1.txt,line.no:247'
p1643
I11
sS'file1.txt,line.no:246'
p1644
I3
sS'file1.txt,line.no:241'
p1645
I9
sS'file1.txt,line.no:240'
p1646
I1
sS'file1.txt,line.no:243'
p1647
I5
sS'file1.txt,line.no:242'
p1648
I6
sS'file1.txt,line.no:145'
p1649
I9
sS'file2.txt,line.no:709'
p1650
I1
sS'file2.txt,line.no:708'
p1651
I1
sS'file2.txt,line.no:703'
p1652
I1
sS'file2.txt,line.no:702'
p1653
I3
sS'file2.txt,line.no:701'
p1654
I8
sS'file2.txt,line.no:700'
p1655
I14
sS'file2.txt,line.no:707'
p1656
I1
sS'file2.txt,line.no:706'
p1657
I1
sS'file2.txt,line.no:705'
p1658
I1
sS'file2.txt,line.no:704'
p1659
I1
sS'file4.txt,line.no:451'
p1660
I2
sS'file4.txt,line.no:450'
p1661
I2
sS'file4.txt,line.no:453'
p1662
I11
sS'file4.txt,line.no:452'
p1663
I2
sS'file4.txt,line.no:455'
p1664
I15
sS'file4.txt,line.no:454'
p1665
I7
sS'file4.txt,line.no:457'
p1666
I10
sS'file4.txt,line.no:456'
p1667
I15
sS'file4.txt,line.no:459'
p1668
I15
sS'file4.txt,line.no:458'
p1669
I6
sS'file2.txt,line.no:635'
p1670
I1
sS'file2.txt,line.no:634'
p1671
I1
sS'file2.txt,line.no:633'
p1672
I1
sS'file2.txt,line.no:632'
p1673
I1
sS'file2.txt,line.no:631'
p1674
I1
sS'file2.txt,line.no:630'
p1675
I1
sS'file2.txt,line.no:1042'
p1676
I4
sS'file2.txt,line.no:1043'
p1677
I1
sS'file2.txt,line.no:1040'
p1678
I2
sS'file2.txt,line.no:1041'
p1679
I6
sS'file2.txt,line.no:1046'
p1680
I4
sS'file2.txt,line.no:1047'
p1681
I4
sS'file2.txt,line.no:1044'
p1682
I4
sS'file2.txt,line.no:1045'
p1683
I4
sS'file2.txt,line.no:1048'
p1684
I4
sS'file2.txt,line.no:1049'
p1685
I4
sS'file4.txt,line.no:679'
p1686
I12
sS'file4.txt,line.no:678'
p1687
I2
sS'file2.txt,line.no:385'
p1688
I1
sS'file2.txt,line.no:384'
p1689
I1
sS'file2.txt,line.no:383'
p1690
I1
sS'file2.txt,line.no:382'
p1691
I1
sS'file2.txt,line.no:381'
p1692
I1
sS'file2.txt,line.no:380'
p1693
I1
sS'file4.txt,line.no:671'
p1694
I3
sS'file4.txt,line.no:670'
p1695
I3
sS'file4.txt,line.no:673'
p1696
I5
sS'file4.txt,line.no:672'
p1697
I14
sS'file4.txt,line.no:675'
p1698
I9
sS'file4.txt,line.no:674'
p1699
I10
sS'file2.txt,line.no:389'
p1700
I1
sS'file4.txt,line.no:676'
p1701
I4
sS'file2.txt,line.no:141'
p1702
I1
sS'file2.txt,line.no:140'
p1703
I2
sS'file2.txt,line.no:143'
p1704
I1
sS'file2.txt,line.no:414'
p1705
I1
sS'file2.txt,line.no:145'
p1706
I1
sS'file2.txt,line.no:144'
p1707
I1
sS'file2.txt,line.no:147'
p1708
I1
sS'file2.txt,line.no:146'
p1709
I1
sS'file2.txt,line.no:149'
p1710
I2
sS'file2.txt,line.no:148'
p1711
I1
sS'file2.txt,line.no:419'
p1712
I1
sS'file2.txt,line.no:418'
p1713
I2
sS'file1.txt,line.no:141'
p1714
I6
sS'file4.txt,line.no:705'
p1715
I17
sS'file4.txt,line.no:704'
p1716
I18
sS'file4.txt,line.no:707'
p1717
I17
sS'file4.txt,line.no:706'
p1718
I14
sS'file4.txt,line.no:701'
p1719
I2
sS'file4.txt,line.no:700'
p1720
I3
sS'file4.txt,line.no:703'
p1721
I2
sS'file4.txt,line.no:702'
p1722
I1
sS'file2.txt,line.no:569'
p1723
I30
sS'file2.txt,line.no:568'
p1724
I1
sS'file4.txt,line.no:709'
p1725
I9
sS'file4.txt,line.no:708'
p1726
I8
sS'file3.txt,line.no:39'
p1727
I13
sS'file3.txt,line.no:38'
p1728
I18
sS'file3.txt,line.no:31'
p1729
I12
sS'file3.txt,line.no:30'
p1730
I16
sS'file3.txt,line.no:33'
p1731
I1
sS'file3.txt,line.no:32'
p1732
I15
sS'file3.txt,line.no:35'
p1733
I15
sS'file3.txt,line.no:34'
p1734
I12
sS'file3.txt,line.no:37'
p1735
I6
sS'file3.txt,line.no:36'
p1736
I5
sS'file2.txt,line.no:835'
p1737
I1
sS'file1.txt,line.no:139'
p1738
I9
sS'file4.txt,line.no:4'
p1739
I4
sS'file4.txt,line.no:5'
p1740
I3
sS'file4.txt,line.no:6'
p1741
I1
sS'file4.txt,line.no:7'
p1742
I2
sS'file4.txt,line.no:1'
p1743
I5
sS'file4.txt,line.no:2'
p1744
I2
sS'file4.txt,line.no:3'
p1745
I5
sS'file4.txt,line.no:8'
p1746
I28
sS'file4.txt,line.no:9'
p1747
I33
sS'file4.txt,line.no:882'
p1748
I13
sS'file4.txt,line.no:883'
p1749
I1
sS'file4.txt,line.no:880'
p1750
I13
sS'file4.txt,line.no:881'
p1751
I3
sS'file4.txt,line.no:886'
p1752
I6
sS'file1.txt,line.no:32'
p1753
I12
sS'file4.txt,line.no:884'
p1754
I10
sS'file4.txt,line.no:885'
p1755
I1
sS'file1.txt,line.no:148'
p1756
I11
sS'file4.txt,line.no:887'
p1757
I5
sS'file2.txt,line.no:196'
p1758
I1
sS'file2.txt,line.no:1095'
p1759
I6
sS'file1.txt,line.no:138'
p1760
I5
sS'file4.txt,line.no:629'
p1761
I2
sS'file2.txt,line.no:1094'
p1762
I6
sS'file2.txt,line.no:884'
p1763
I8
sS'file2.txt,line.no:885'
p1764
I14
sS'file2.txt,line.no:886'
p1765
I9
sS'file2.txt,line.no:887'
p1766
I4
sS'file2.txt,line.no:880'
p1767
I16
sS'file2.txt,line.no:881'
p1768
I1
sS'file2.txt,line.no:882'
p1769
I11
sS'file2.txt,line.no:883'
p1770
I14
sS'file2.txt,line.no:888'
p1771
I3
sS'file2.txt,line.no:889'
p1772
I3
sS'file2.txt,line.no:1096'
p1773
I1
sS'file4.txt,line.no:415'
p1774
I1
sS'file2.txt,line.no:1090'
p1775
I1
sS'file3.txt,line.no:29'
p1776
I16
sS'file2.txt,line.no:970'
p1777
I4
sS'file2.txt,line.no:971'
p1778
I4
sS'file2.txt,line.no:972'
p1779
I5
sS'file2.txt,line.no:973'
p1780
I4
sS'file2.txt,line.no:974'
p1781
I4
sS'file2.txt,line.no:975'
p1782
I2
sS'file4.txt,line.no:848'
p1783
I3
sS'file4.txt,line.no:849'
p1784
I10
sS'file4.txt,line.no:846'
p1785
I1
sS'file4.txt,line.no:847'
p1786
I3
sS'file4.txt,line.no:844'
p1787
I3
sS'file4.txt,line.no:845'
p1788
I3
sS'file4.txt,line.no:842'
p1789
I2
sS'file4.txt,line.no:843'
p1790
I5
sS'file4.txt,line.no:840'
p1791
I13
sS'file4.txt,line.no:841'
p1792
I1
sS'file1.txt,line.no:155'
p1793
I12
sS'file1.txt,line.no:140'
p1794
I13
sS'file3.txt,line.no:23'
p1795
I1
sS'file4.txt,line.no:280'
p1796
I2
sS'file1.txt,line.no:102'
p1797
I1
sS'file4.txt,line.no:282'
p1798
I2
sS'file4.txt,line.no:283'
p1799
I1
sS'file4.txt,line.no:284'
p1800
I1
sS'file4.txt,line.no:285'
p1801
I15
sS'file4.txt,line.no:286'
p1802
I3
sS'file1.txt,line.no:103'
p1803
I1
sS'file4.txt,line.no:288'
p1804
I18
sS'file4.txt,line.no:289'
p1805
I6
sS'file1.txt,line.no:100'
p1806
I2
sS'file1.txt,line.no:154'
p1807
I10
sS'file1.txt,line.no:101'
p1808
I7
sS'file1.txt,line.no:106'
p1809
I1
sS'file1.txt,line.no:107'
p1810
I2
sS'file1.txt,line.no:104'
p1811
I1
sS'file1.txt,line.no:105'
p1812
I1
sS'file1.txt,line.no:157'
p1813
I10
sS'file1.txt,line.no:156'
p1814
I10
sS'file4.txt,line.no:442'
p1815
I13
sS'file4.txt,line.no:443'
p1816
I17
sS'file4.txt,line.no:440'
p1817
I13
sS'file4.txt,line.no:441'
p1818
I11
sS'file4.txt,line.no:446'
p1819
I6
sS'file4.txt,line.no:447'
p1820
I1
sS'file4.txt,line.no:444'
p1821
I14
sS'file4.txt,line.no:445'
p1822
I4
sS'file2.txt,line.no:620'
p1823
I1
sS'file2.txt,line.no:621'
p1824
I1
sS'file4.txt,line.no:448'
p1825
I10
sS'file4.txt,line.no:449'
p1826
I2
sS'file2.txt,line.no:624'
p1827
I1
sS'file2.txt,line.no:625'
p1828
I1
sS'file2.txt,line.no:626'
p1829
I1
sS'file2.txt,line.no:627'
p1830
I1
sS'file2.txt,line.no:1051'
p1831
I6
sS'file2.txt,line.no:1050'
p1832
I1
sS'file2.txt,line.no:1053'
p1833
I1
sS'file2.txt,line.no:1052'
p1834
I14
sS'file2.txt,line.no:1055'
p1835
I3
sS'file2.txt,line.no:1054'
p1836
I5
sS'file2.txt,line.no:1057'
p1837
I13
sS'file2.txt,line.no:1056'
p1838
I6
sS'file2.txt,line.no:1059'
p1839
I3
sS'file2.txt,line.no:1058'
p1840
I8
sS'file2.txt,line.no:390'
p1841
I1
sS'file2.txt,line.no:391'
p1842
I1
sS'file4.txt,line.no:668'
p1843
I7
sS'file4.txt,line.no:669'
p1844
I3
sS'file2.txt,line.no:394'
p1845
I1
sS'file2.txt,line.no:395'
p1846
I1
sS'file2.txt,line.no:396'
p1847
I1
sS'file2.txt,line.no:397'
p1848
I1
sS'file4.txt,line.no:662'
p1849
I8
sS'file4.txt,line.no:663'
p1850
I5
sS'file4.txt,line.no:660'
p1851
I11
sS'file4.txt,line.no:661'
p1852
I11
sS'file4.txt,line.no:666'
p1853
I7
sS'file4.txt,line.no:667'
p1854
I8
sS'file4.txt,line.no:664'
p1855
I15
sS'file4.txt,line.no:665'
p1856
I3
sS'file2.txt,line.no:400'
p1857
I1
sS'file2.txt,line.no:401'
p1858
I1
sS'file2.txt,line.no:402'
p1859
I1
sS'file2.txt,line.no:403'
p1860
I1
sS'file2.txt,line.no:404'
p1861
I1
sS'file2.txt,line.no:405'
p1862
I1
sS'file2.txt,line.no:406'
p1863
I1
sS'file2.txt,line.no:407'
p1864
I1
sS'file2.txt,line.no:408'
p1865
I2
sS'file2.txt,line.no:409'
p1866
I1
sS'file2.txt,line.no:158'
p1867
I2
sS'file2.txt,line.no:159'
p1868
I1
sS'file2.txt,line.no:714'
p1869
I1
sS'file2.txt,line.no:715'
p1870
I1
sS'file4.txt,line.no:628'
p1871
I2
sS'file2.txt,line.no:717'
p1872
I1
sS'file2.txt,line.no:710'
p1873
I2
sS'file2.txt,line.no:711'
p1874
I1
sS'file2.txt,line.no:712'
p1875
I1
sS'file2.txt,line.no:713'
p1876
I2
sS'file2.txt,line.no:718'
p1877
I9
sS'file2.txt,line.no:719'
p1878
I8
sS'file1.txt,line.no:153'
p1879
I13
sS'file4.txt,line.no:716'
p1880
I12
sS'file4.txt,line.no:717'
p1881
I4
sS'file4.txt,line.no:714'
p1882
I12
sS'file4.txt,line.no:715'
p1883
I15
sS'file4.txt,line.no:712'
p1884
I18
sS'file4.txt,line.no:713'
p1885
I15
sS'file4.txt,line.no:710'
p1886
I7
sS'file4.txt,line.no:711'
p1887
I8
sS'file2.txt,line.no:574'
p1888
I35
sS'file2.txt,line.no:575'
p1889
I37
sS'file2.txt,line.no:576'
p1890
I1
sS'file2.txt,line.no:577'
p1891
I1
sS'file2.txt,line.no:570'
p1892
I33
sS'file2.txt,line.no:571'
p1893
I1
sS'file4.txt,line.no:718'
p1894
I13
sS'file4.txt,line.no:719'
p1895
I15
sS'file1.txt,line.no:152'
p1896
I13
sS'file2.txt,line.no:691'
p1897
I1
sS'file2.txt,line.no:690'
p1898
I1
sS'file2.txt,line.no:693'
p1899
I1
sS'file2.txt,line.no:692'
p1900
I1
sS'file2.txt,line.no:695'
p1901
I2
sS'file2.txt,line.no:694'
p1902
I2
sS'file2.txt,line.no:697'
p1903
I12
sS'file2.txt,line.no:696'
p1904
I16
sS'file1.txt,line.no:159'
p1905
I11
sS'file4.txt,line.no:635'
p1906
I2
sS'file4.txt,line.no:105'
p1907
I1
sS'file1.txt,line.no:158'
p1908
I11
sS'file4.txt,line.no:634'
p1909
I2
sS'file4.txt,line.no:104'
p1910
I1
sS'file2.txt,line.no:670'
p1911
I1
sS'file4.txt,line.no:109'
p1912
I1
sS'file4.txt,line.no:95'
p1913
I1
sS'file4.txt,line.no:637'
p1914
I2
sS'file4.txt,line.no:636'
p1915
I2
sS'file2.txt,line.no:660'
p1916
I1
sS'file2.txt,line.no:661'
p1917
I1
sS'file2.txt,line.no:38'
p1918
I1
sS'file2.txt,line.no:39'
p1919
I1
sS'file4.txt,line.no:631'
p1920
I2
sS'file2.txt,line.no:32'
p1921
I15
sS'file2.txt,line.no:33'
p1922
I1
sS'file2.txt,line.no:30'
p1923
I11
sS'file2.txt,line.no:31'
p1924
I10
sS'file2.txt,line.no:36'
p1925
I1
sS'file2.txt,line.no:37'
p1926
I1
sS'file2.txt,line.no:34'
p1927
I1
sS'file2.txt,line.no:35'
p1928
I1
sS'file1.txt,line.no:238'
p1929
I7
sS'file4.txt,line.no:579'
p1930
I6
sS'file4.txt,line.no:630'
p1931
I2
sS'file4.txt,line.no:119'
p1932
I1
sS'file2.txt,line.no:668'
p1933
I1
sS'file2.txt,line.no:669'
p1934
I1
sS'file2.txt,line.no:1085'
p1935
I5
sS'file4.txt,line.no:633'
p1936
I2
sS'file2.txt,line.no:1082'
p1937
I1
sS'file4.txt,line.no:879'
p1938
I1
sS'file4.txt,line.no:878'
p1939
I3
sS'file2.txt,line.no:989'
p1940
I1
sS'file2.txt,line.no:988'
p1941
I12
sS'file2.txt,line.no:985'
p1942
I4
sS'file2.txt,line.no:984'
p1943
I5
sS'file2.txt,line.no:987'
p1944
I4
sS'file2.txt,line.no:986'
p1945
I8
sS'file4.txt,line.no:877'
p1946
I12
sS'file2.txt,line.no:980'
p1947
I9
sS'file4.txt,line.no:632'
p1948
I2
sS'file2.txt,line.no:982'
p1949
I4
sS'file2.txt,line.no:1083'
p1950
I5
sS'file4.txt,line.no:279'
p1951
I13
sS'file4.txt,line.no:278'
p1952
I13
sS'file4.txt,line.no:275'
p1953
I14
sS'file4.txt,line.no:274'
p1954
I13
sS'file4.txt,line.no:277'
p1955
I14
sS'file4.txt,line.no:276'
p1956
I17
sS'file4.txt,line.no:271'
p1957
I1
sS'file4.txt,line.no:270'
p1958
I9
sS'file4.txt,line.no:273'
p1959
I7
sS'file4.txt,line.no:272'
p1960
I2
sS'file2.txt,line.no:1080'
p1961
I4
sS'file2.txt,line.no:736'
p1962
I3
sS'file4.txt,line.no:389'
p1963
I12
sS'file4.txt,line.no:388'
p1964
I13
sS'file4.txt,line.no:748'
p1965
I17
sS'file4.txt,line.no:381'
p1966
I11
sS'file4.txt,line.no:380'
p1967
I1
sS'file4.txt,line.no:383'
p1968
I7
sS'file4.txt,line.no:382'
p1969
I4
sS'file4.txt,line.no:385'
p1970
I6
sS'file4.txt,line.no:384'
p1971
I14
sS'file2.txt,line.no:737'
p1972
I13
sS'file4.txt,line.no:386'
p1973
I1
sS'file4.txt,line.no:622'
p1974
I10
sS'file4.txt,line.no:623'
p1975
I8
sS'file4.txt,line.no:620'
p1976
I1
sS'file4.txt,line.no:479'
p1977
I1
sS'file4.txt,line.no:478'
p1978
I1
sS'file4.txt,line.no:477'
p1979
I5
sS'file4.txt,line.no:476'
p1980
I1
sS'file4.txt,line.no:475'
p1981
I5
sS'file4.txt,line.no:621'
p1982
I2
sS'file4.txt,line.no:473'
p1983
I2
sS'file4.txt,line.no:472'
p1984
I1
sS'file4.txt,line.no:471'
p1985
I1
sS'file4.txt,line.no:470'
p1986
I3
sS'file2.txt,line.no:116'
p1987
I1
sS'file2.txt,line.no:1068'
p1988
I14
sS'file2.txt,line.no:1069'
p1989
I17
sS'file2.txt,line.no:117'
p1990
I1
sS'file2.txt,line.no:1064'
p1991
I3
sS'file2.txt,line.no:1065'
p1992
I16
sS'file2.txt,line.no:1066'
p1993
I7
sS'file2.txt,line.no:1067'
p1994
I16
sS'file2.txt,line.no:1060'
p1995
I4
sS'file2.txt,line.no:114'
p1996
I1
sS'file2.txt,line.no:1062'
p1997
I5
sS'file2.txt,line.no:1063'
p1998
I3
sS'file4.txt,line.no:495'
p1999
I15
sS'file4.txt,line.no:494'
p2000
I13
sS'file4.txt,line.no:497'
p2001
I13
sS'file2.txt,line.no:115'
p2002
I1
sS'file2.txt,line.no:369'
p2003
I1
sS'file2.txt,line.no:368'
p2004
I2
sS'file4.txt,line.no:493'
p2005
I8
sS'file4.txt,line.no:492'
p2006
I8
sS'file2.txt,line.no:365'
p2007
I1
sS'file2.txt,line.no:112'
p2008
I1
sS'file2.txt,line.no:367'
p2009
I1
sS'file2.txt,line.no:366'
p2010
I1
sS'file2.txt,line.no:361'
p2011
I1
sS'file2.txt,line.no:360'
p2012
I1
sS'file2.txt,line.no:363'
p2013
I1
sS'file2.txt,line.no:113'
p2014
I2
sS'file4.txt,line.no:657'
p2015
I3
sS'file4.txt,line.no:656'
p2016
I12
sS'file4.txt,line.no:655'
p2017
I14
sS'file4.txt,line.no:654'
p2018
I2
sS'file4.txt,line.no:653'
p2019
I1
sS'file4.txt,line.no:652'
p2020
I3
sS'file2.txt,line.no:169'
p2021
I2
sS'file4.txt,line.no:122'
p2022
I1
sS'file2.txt,line.no:167'
p2023
I1
sS'file2.txt,line.no:166'
p2024
I1
sS'file2.txt,line.no:165'
p2025
I1
sS'file2.txt,line.no:111'
p2026
I1
sS'file2.txt,line.no:163'
p2027
I1
sS'file2.txt,line.no:162'
p2028
I1
sS'file4.txt,line.no:659'
p2029
I2
sS'file4.txt,line.no:658'
p2030
I1
sS'file2.txt,line.no:761'
p2031
I12
sS'file2.txt,line.no:760'
p2032
I3
sS'file2.txt,line.no:763'
p2033
I15
sS'file2.txt,line.no:762'
p2034
I14
sS'file2.txt,line.no:765'
p2035
I12
sS'file2.txt,line.no:764'
p2036
I10
sS'file2.txt,line.no:767'
p2037
I10
sS'file2.txt,line.no:766'
p2038
I13
sS'file2.txt,line.no:769'
p2039
I1
sS'file2.txt,line.no:981'
p2040
I4
sS'file4.txt,line.no:876'
p2041
I13
sS'file4.txt,line.no:638'
p2042
I2
sS'file4.txt,line.no:111'
p2043
I1
sS'file2.txt,line.no:983'
p2044
I4
sS'file2.txt,line.no:523'
p2045
I1
sS'file4.txt,line.no:874'
p2046
I15
sS'file2.txt,line.no:509'
p2047
I1
sS'file2.txt,line.no:508'
p2048
I2
sS'file4.txt,line.no:721'
p2049
I8
sS'file4.txt,line.no:720'
p2050
I13
sS'file4.txt,line.no:727'
p2051
I8
sS'file4.txt,line.no:726'
p2052
I14
sS'file4.txt,line.no:725'
p2053
I17
sS'file4.txt,line.no:724'
p2054
I7
sS'file2.txt,line.no:501'
p2055
I1
sS'file2.txt,line.no:500'
p2056
I1
sS'file2.txt,line.no:503'
p2057
I1
sS'file4.txt,line.no:728'
p2058
I7
sS'file2.txt,line.no:505'
p2059
I1
sS'file2.txt,line.no:504'
p2060
I1
sS'file2.txt,line.no:507'
p2061
I1
sS'file2.txt,line.no:506'
p2062
I1
sS'file2.txt,line.no:528'
p2063
I2
sS'file2.txt,line.no:215'
p2064
I1
sS'file2.txt,line.no:214'
p2065
I1
sS'file2.txt,line.no:217'
p2066
I2
sS'file2.txt,line.no:216'
p2067
I1
sS'file2.txt,line.no:211'
p2068
I1
sS'file2.txt,line.no:210'
p2069
I1
sS'file2.txt,line.no:213'
p2070
I2
sS'file2.txt,line.no:212'
p2071
I1
sS'file2.txt,line.no:219'
p2072
I1
sS'file2.txt,line.no:218'
p2073
I1
sS'file2.txt,line.no:591'
p2074
I9
sS'file2.txt,line.no:1088'
p2075
I2
sS'file2.txt,line.no:185'
p2076
I2
sS'file2.txt,line.no:184'
p2077
I1
sS'file2.txt,line.no:187'
p2078
I1
sS'file2.txt,line.no:186'
p2079
I1
sS'file2.txt,line.no:181'
p2080
I1
sS'file2.txt,line.no:180'
p2081
I4
sS'file2.txt,line.no:183'
p2082
I1
sS'file2.txt,line.no:182'
p2083
I1
sS'file2.txt,line.no:1089'
p2084
I1
sS'file2.txt,line.no:189'
p2085
I2
sS'file2.txt,line.no:188'
p2086
I1
sS'file2.txt,line.no:646'
p2087
I1
sS'file4.txt,line.no:208'
p2088
I28
sS'file4.txt,line.no:838'
p2089
I1
sS'file2.txt,line.no:647'
p2090
I1
sS'file4.txt,line.no:209'
p2091
I19
sS'file2.txt,line.no:644'
p2092
I1
sS'file2.txt,line.no:231'
p2093
I1
sS'file3.txt,line.no:98'
p2094
I14
sS'file4.txt,line.no:206'
p2095
I16
sS'file4.txt,line.no:207'
p2096
I29
sS'file2.txt,line.no:642'
p2097
I1
sS'file2.txt,line.no:25'
p2098
I19
sS'file2.txt,line.no:24'
p2099
I23
sS'file2.txt,line.no:27'
p2100
I18
sS'file2.txt,line.no:26'
p2101
I6
sS'file2.txt,line.no:21'
p2102
I1
sS'file2.txt,line.no:20'
p2103
I1
sS'file2.txt,line.no:23'
p2104
I23
sS'file2.txt,line.no:22'
p2105
I3
sS'file2.txt,line.no:29'
p2106
I16
sS'file2.txt,line.no:28'
p2107
I15
sS'file4.txt,line.no:864'
p2108
I1
sS'file4.txt,line.no:865'
p2109
I9
sS'file4.txt,line.no:866'
p2110
I10
sS'file3.txt,line.no:90'
p2111
I11
sS'file4.txt,line.no:860'
p2112
I1
sS'file4.txt,line.no:861'
p2113
I3
sS'file4.txt,line.no:862'
p2114
I3
sS'file4.txt,line.no:863'
p2115
I9
sS'file4.txt,line.no:868'
p2116
I11
sS'file4.txt,line.no:869'
p2117
I6
sS'file2.txt,line.no:976'
p2118
I12
sS'file2.txt,line.no:640'
p2119
I1
sS'file1.txt,line.no:50'
p2120
I10
sS'file2.txt,line.no:729'
p2121
I7
sS'file2.txt,line.no:388'
p2122
I2
sS'file2.txt,line.no:999'
p2123
I8
sS'file2.txt,line.no:996'
p2124
I13
sS'file2.txt,line.no:997'
p2125
I2
sS'file2.txt,line.no:994'
p2126
I4
sS'file2.txt,line.no:995'
p2127
I5
sS'file2.txt,line.no:992'
p2128
I13
sS'file2.txt,line.no:993'
p2129
I1
sS'file2.txt,line.no:990'
p2130
I4
sS'file2.txt,line.no:991'
p2131
I3
sS'file4.txt,line.no:268'
p2132
I11
sS'file4.txt,line.no:269'
p2133
I14
sS'file4.txt,line.no:266'
p2134
I14
sS'file4.txt,line.no:267'
p2135
I15
sS'file4.txt,line.no:264'
p2136
I12
sS'file4.txt,line.no:265'
p2137
I15
sS'file4.txt,line.no:262'
p2138
I12
sS'file4.txt,line.no:263'
p2139
I5
sS'file4.txt,line.no:260'
p2140
I14
sS'file4.txt,line.no:261'
p2141
I12
sS'file1.txt,line.no:42'
p2142
I9
sS'file1.txt,line.no:43'
p2143
I12
sS'file4.txt,line.no:398'
p2144
I1
sS'file4.txt,line.no:399'
p2145
I1
sS'file4.txt,line.no:392'
p2146
I12
sS'file4.txt,line.no:393'
p2147
I7
sS'file4.txt,line.no:390'
p2148
I14
sS'file4.txt,line.no:391'
p2149
I13
sS'file4.txt,line.no:396'
p2150
I2
sS'file4.txt,line.no:397'
p2151
I8
sS'file4.txt,line.no:394'
p2152
I7
sS'file4.txt,line.no:395'
p2153
I8
sS'file4.txt,line.no:387'
p2154
I1
sS'file1.txt,line.no:48'
p2155
I12
sS'file4.txt,line.no:468'
p2156
I3
sS'file4.txt,line.no:469'
p2157
I8
sS'file1.txt,line.no:49'
p2158
I2
sS'file4.txt,line.no:460'
p2159
I14
sS'file4.txt,line.no:461'
p2160
I4
sS'file4.txt,line.no:462'
p2161
I9
sS'file4.txt,line.no:463'
p2162
I6
sS'file4.txt,line.no:464'
p2163
I4
sS'file4.txt,line.no:465'
p2164
I1
sS'file4.txt,line.no:466'
p2165
I4
sS'file4.txt,line.no:467'
p2166
I4
sS'file2.txt,line.no:1079'
p2167
I5
sS'file2.txt,line.no:1078'
p2168
I11
sS'file2.txt,line.no:1073'
p2169
I2
sS'file2.txt,line.no:1072'
p2170
I15
sS'file2.txt,line.no:1071'
p2171
I1
sS'file2.txt,line.no:1070'
p2172
I14
sS'file2.txt,line.no:1077'
p2173
I1
sS'file2.txt,line.no:1076'
p2174
I3
sS'file2.txt,line.no:1075'
p2175
I12
sS'file2.txt,line.no:1074'
p2176
I3
sS'file4.txt,line.no:486'
p2177
I11
sS'file4.txt,line.no:487'
p2178
I15
sS'file4.txt,line.no:484'
p2179
I6
sS'file4.txt,line.no:485'
p2180
I13
sS'file4.txt,line.no:482'
p2181
I15
sS'file4.txt,line.no:483'
p2182
I13
sS'file4.txt,line.no:480'
p2183
I1
sS'file4.txt,line.no:481'
p2184
I11
sS'file2.txt,line.no:376'
p2185
I1
sS'file2.txt,line.no:377'
p2186
I1
sS'file2.txt,line.no:374'
p2187
I1
sS'file2.txt,line.no:375'
p2188
I1
sS'file2.txt,line.no:372'
p2189
I1
sS'file2.txt,line.no:373'
p2190
I1
sS'file4.txt,line.no:488'
p2191
I2
sS'file4.txt,line.no:489'
p2192
I10
sS'file2.txt,line.no:178'
p2193
I6
sS'file4.txt,line.no:641'
p2194
I2
sS'file4.txt,line.no:642'
p2195
I2
sS'file4.txt,line.no:643'
p2196
I2
sS'file2.txt,line.no:1091'
p2197
I1
sS'file4.txt,line.no:645'
p2198
I2
sS'file4.txt,line.no:646'
p2199
I2
sS'file2.txt,line.no:1092'
p2200
I1
sS'file4.txt,line.no:648'
p2201
I12
sS'file4.txt,line.no:649'
p2202
I1
sS'file2.txt,line.no:172'
p2203
I1
sS'file2.txt,line.no:173'
p2204
I1
sS'file2.txt,line.no:174'
p2205
I1
sS'file2.txt,line.no:175'
p2206
I1
sS'file4.txt,line.no:138'
p2207
I1
sS'file2.txt,line.no:177'
p2208
I5
sS'file2.txt,line.no:772'
p2209
I8
sS'file2.txt,line.no:773'
p2210
I17
sS'file2.txt,line.no:770'
p2211
I8
sS'file2.txt,line.no:645'
p2212
I1
sS'file2.txt,line.no:776'
p2213
I3
sS'file2.txt,line.no:777'
p2214
I6
sS'file2.txt,line.no:774'
p2215
I16
sS'file2.txt,line.no:775'
p2216
I11
sS'file1.txt,line.no:160'
p2217
I12
sS'file2.txt,line.no:778'
p2218
I3
sS'file4.txt,line.no:149'
p2219
I1
sS'file2.txt,line.no:315'
p2220
I1
sS'file1.txt,line.no:228'
p2221
I3
sS'file2.txt,line.no:977'
p2222
I4
sS'file1.txt,line.no:162'
p2223
I3
sS'file1.txt,line.no:163'
p2224
I9
sS'file4.txt,line.no:71'
p2225
I1
sS'file2.txt,line.no:518'
p2226
I2
sS'file2.txt,line.no:519'
p2227
I1
sS'file4.txt,line.no:738'
p2228
I5
sS'file4.txt,line.no:739'
p2229
I1
sS'file4.txt,line.no:734'
p2230
I14
sS'file2.txt,line.no:513'
p2231
I1
sS'file4.txt,line.no:736'
p2232
I14
sS'file4.txt,line.no:737'
p2233
I8
sS'file4.txt,line.no:730'
p2234
I1
sS'file4.txt,line.no:731'
p2235
I13
sS'file4.txt,line.no:732'
p2236
I3
sS'file4.txt,line.no:733'
p2237
I10
sS'file1.txt,line.no:164'
p2238
I1
sS'file3.txt,line.no:88'
p2239
I11
sS'file3.txt,line.no:89'
p2240
I12
sS'file2.txt,line.no:204'
p2241
I1
sS'file4.txt,line.no:474'
p2242
I1
sS'file2.txt,line.no:202'
p2243
I1
sS'file2.txt,line.no:203'
p2244
I1
sS'file2.txt,line.no:200'
p2245
I1
sS'file2.txt,line.no:201'
p2246
I2
sS'file3.txt,line.no:80'
p2247
I1
sS'file3.txt,line.no:81'
p2248
I1
sS'file3.txt,line.no:82'
p2249
I1
sS'file3.txt,line.no:83'
p2250
I1
sS'file3.txt,line.no:84'
p2251
I11
sS'file3.txt,line.no:85'
p2252
I5
sS'file3.txt,line.no:86'
p2253
I10
sS'file3.txt,line.no:87'
p2254
I4
sS'file2.txt,line.no:723'
p2255
I7
sS'file2.txt,line.no:722'
p2256
I4
sS'file2.txt,line.no:197'
p2257
I2
sS'file2.txt,line.no:194'
p2258
I1
sS'file2.txt,line.no:195'
p2259
I1
sS'file2.txt,line.no:192'
p2260
I1
sS'file2.txt,line.no:193'
p2261
I2
sS'file2.txt,line.no:190'
p2262
I1
sS'file2.txt,line.no:191'
p2263
I1
sS'file2.txt,line.no:198'
p2264
I1
sS'file2.txt,line.no:199'
p2265
I1
sS'file2.txt,line.no:6'
p2266
I2
sS'file4.txt,line.no:677'
p2267
I11
sS'file3.txt,line.no:132'
p2268
I2
sS'file1.txt,line.no:165'
p2269
I12
sS'file2.txt,line.no:1061'
p2270
I7
sS'file4.txt,line.no:639'
p2271
I2
sS'file1.txt,line.no:86'
p2272
I8
sS'file4.txt,line.no:496'
p2273
I13
sS'file4.txt,line.no:491'
p2274
I15
sS'file4.txt,line.no:490'
p2275
I16
sS'file2.txt,line.no:654'
p2276
I1
sS'file2.txt,line.no:364'
p2277
I1
sS'file4.txt,line.no:499'
p2278
I11
sS'file4.txt,line.no:136'
p2279
I1
sS'file4.txt,line.no:498'
p2280
I15
sS'file2.txt,line.no:657'
p2281
I1
sS'file2.txt,line.no:362'
p2282
I1
sS'file2.txt,line.no:1086'
p2283
I5
sS'file2.txt,line.no:1087'
p2284
I1
sS'file4.txt,line.no:137'
p2285
I1
sS'file2.txt,line.no:1084'
p2286
I6
sS'file2.txt,line.no:50'
p2287
I2
sS'file2.txt,line.no:51'
p2288
I1
sS'file2.txt,line.no:52'
p2289
I1
sS'file2.txt,line.no:53'
p2290
I1
sS'file2.txt,line.no:54'
p2291
I1
sS'file2.txt,line.no:55'
p2292
I1
sS'file2.txt,line.no:56'
p2293
I1
sS'file2.txt,line.no:57'
p2294
I1
sS'file2.txt,line.no:58'
p2295
I1
sS'file2.txt,line.no:59'
p2296
I2
sS'file4.txt,line.no:120'
p2297
I1
sS'file4.txt,line.no:811'
p2298
I15
sS'file4.txt,line.no:810'
p2299
I14
sS'file4.txt,line.no:813'
p2300
I13
sS'file4.txt,line.no:812'
p2301
I14
sS'file4.txt,line.no:815'
p2302
I1
sS'file4.txt,line.no:651'
p2303
I7
sS'file4.txt,line.no:817'
p2304
I10
sS'file4.txt,line.no:816'
p2305
I2
sS'file4.txt,line.no:819'
p2306
I13
sS'file4.txt,line.no:818'
p2307
I3
sS'file4.txt,line.no:650'
p2308
I13
sS'file2.txt,line.no:164'
p2309
I1
sS'file4.txt,line.no:135'
p2310
I1
sS'file4.txt,line.no:129'
p2311
I1
sS'file4.txt,line.no:128'
p2312
I1
sS'file2.txt,line.no:161'
p2313
I1
sS'file2.txt,line.no:160'
p2314
I1
sS'file1.txt,line.no:63'
p2315
I11
sS'file2.txt,line.no:488'
p2316
I2
sS'file4.txt,line.no:132'
p2317
I1
sS'file4.txt,line.no:151'
p2318
I1
sS'file4.txt,line.no:259'
p2319
I11
sS'file4.txt,line.no:258'
p2320
I14
sS'file4.txt,line.no:253'
p2321
I13
sS'file4.txt,line.no:252'
p2322
I14
sS'file4.txt,line.no:251'
p2323
I17
sS'file4.txt,line.no:250'
p2324
I16
sS'file4.txt,line.no:257'
p2325
I4
sS'file4.txt,line.no:256'
p2326
I1
sS'file4.txt,line.no:255'
p2327
I6
sS'file4.txt,line.no:254'
p2328
I15
sS'file4.txt,line.no:133'
p2329
I1
sS'file2.txt,line.no:834'
p2330
I13
sS'file2.txt,line.no:837'
p2331
I14
sS'file2.txt,line.no:836'
p2332
I8
sS'file2.txt,line.no:831'
p2333
I7
sS'file2.txt,line.no:830'
p2334
I4
sS'file2.txt,line.no:833'
p2335
I7
sS'file2.txt,line.no:832'
p2336
I11
sS'file2.txt,line.no:839'
p2337
I15
sS'file2.txt,line.no:838'
p2338
I8
sS'file4.txt,line.no:158'
p2339
I37
sS'file2.txt,line.no:768'
p2340
I13
sS'file4.txt,line.no:872'
p2341
I5
sS'file1.txt,line.no:167'
p2342
I13
sS'file4.txt,line.no:131'
p2343
I1
sS'file4.txt,line.no:871'
p2344
I9
sS'file1.txt,line.no:201'
p2345
I12
sS'file1.txt,line.no:200'
p2346
I8
sS'file1.txt,line.no:203'
p2347
I1
sS'file1.txt,line.no:202'
p2348
I10
sS'file1.txt,line.no:205'
p2349
I7
sS'file1.txt,line.no:204'
p2350
I13
sS'file1.txt,line.no:207'
p2351
I7
sS'file1.txt,line.no:206'
p2352
I7
sS'file1.txt,line.no:209'
p2353
I8
sS'file1.txt,line.no:208'
p2354
I7
sS'file1.txt,line.no:191'
p2355
I8
sS'file1.txt,line.no:190'
p2356
I7
sS'file1.txt,line.no:193'
p2357
I7
sS'file1.txt,line.no:192'
p2358
I1
sS'file1.txt,line.no:195'
p2359
I1
sS'file1.txt,line.no:194'
p2360
I1
sS'file1.txt,line.no:197'
p2361
I1
sS'file1.txt,line.no:196'
p2362
I5
sS'file1.txt,line.no:199'
p2363
I10
sS'file1.txt,line.no:198'
p2364
I12
sS'file4.txt,line.no:870'
p2365
I3
sS'file2.txt,line.no:699'
p2366
I13
sS'file2.txt,line.no:698'
p2367
I11
sS'file2.txt,line.no:349'
p2368
I1
sS'file2.txt,line.no:348'
p2369
I2
sS'file1.txt,line.no:216'
p2370
I7
sS'file2.txt,line.no:343'
p2371
I1
sS'file2.txt,line.no:342'
p2372
I1
sS'file2.txt,line.no:341'
p2373
I1
sS'file2.txt,line.no:340'
p2374
I1
sS'file2.txt,line.no:347'
p2375
I1
sS'file2.txt,line.no:346'
p2376
I1
sS'file2.txt,line.no:345'
p2377
I1
sS'file2.txt,line.no:344'
p2378
I1
sS'file4.txt,line.no:103'
p2379
I1
sS'file4.txt,line.no:102'
p2380
I1
sS'file4.txt,line.no:101'
p2381
I1
sS'file4.txt,line.no:100'
p2382
I1
sS'file4.txt,line.no:107'
p2383
I1
sS'file4.txt,line.no:106'
p2384
I1
sS'file4.txt,line.no:98'
p2385
I1
sS'file4.txt,line.no:99'
p2386
I1
sS'file4.txt,line.no:96'
p2387
I1
sS'file4.txt,line.no:97'
p2388
I1
sS'file4.txt,line.no:94'
p2389
I1
sS'file4.txt,line.no:108'
p2390
I1
sS'file4.txt,line.no:92'
p2391
I1
sS'file4.txt,line.no:93'
p2392
I1
sS'file4.txt,line.no:90'
p2393
I1
sS'file4.txt,line.no:91'
p2394
I1
sS'file1.txt,line.no:217'
p2395
I6
sS'file2.txt,line.no:749'
p2396
I18
sS'file2.txt,line.no:748'
p2397
I16
sS'file2.txt,line.no:747'
p2398
I2
sS'file2.txt,line.no:746'
p2399
I3
sS'file2.txt,line.no:745'
p2400
I4
sS'file2.txt,line.no:744'
p2401
I16
sS'file2.txt,line.no:743'
p2402
I14
sS'file2.txt,line.no:742'
p2403
I16
sS'file2.txt,line.no:741'
p2404
I9
sS'file2.txt,line.no:740'
p2405
I12
sS'file4.txt,line.no:749'
p2406
I11
sS'file1.txt,line.no:214'
p2407
I7
sS'file4.txt,line.no:722'
p2408
I5
sS'file4.txt,line.no:741'
p2409
I14
sS'file4.txt,line.no:740'
p2410
I1
sS'file4.txt,line.no:743'
p2411
I4
sS'file4.txt,line.no:742'
p2412
I13
sS'file4.txt,line.no:745'
p2413
I5
sS'file4.txt,line.no:744'
p2414
I11
sS'file4.txt,line.no:747'
p2415
I15
sS'file4.txt,line.no:746'
p2416
I7
sS'file2.txt,line.no:527'
p2417
I1
sS'file2.txt,line.no:526'
p2418
I1
sS'file2.txt,line.no:525'
p2419
I1
sS'file2.txt,line.no:524'
p2420
I1
sS'file2.txt,line.no:417'
p2421
I1
sS'file2.txt,line.no:522'
p2422
I1
sS'file2.txt,line.no:521'
p2423
I1
sS'file4.txt,line.no:875'
p2424
I16
sS'file2.txt,line.no:529'
p2425
I1
sS'file1.txt,line.no:215'
p2426
I8
sS'file2.txt,line.no:966'
p2427
I2
sS'file2.txt,line.no:416'
p2428
I1
sS'file4.txt,line.no:859'
p2429
I6
sS'file4.txt,line.no:729'
p2430
I12
sS'file4.txt,line.no:858'
p2431
I11
sS'file2.txt,line.no:233'
p2432
I2
sS'file2.txt,line.no:232'
p2433
I1
sS'file3.txt,line.no:99'
p2434
I11
sS'file2.txt,line.no:502'
p2435
I1
sS'file2.txt,line.no:237'
p2436
I2
sS'file2.txt,line.no:236'
p2437
I1
sS'file2.txt,line.no:235'
p2438
I1
sS'file2.txt,line.no:234'
p2439
I1
sS'file3.txt,line.no:93'
p2440
I4
sS'file3.txt,line.no:92'
p2441
I2
sS'file3.txt,line.no:91'
p2442
I11
sS'file2.txt,line.no:960'
p2443
I2
sS'file3.txt,line.no:97'
p2444
I13
sS'file3.txt,line.no:96'
p2445
I16
sS'file3.txt,line.no:95'
p2446
I3
sS'file3.txt,line.no:94'
p2447
I1
sS'file4.txt,line.no:851'
p2448
I9
sS'file3.txt,line.no:68'
p2449
I14
sS'file4.txt,line.no:850'
p2450
I1
sS'file4.txt,line.no:74'
p2451
I1
sS'file4.txt,line.no:75'
p2452
I1
sS'file4.txt,line.no:76'
p2453
I1
sS'file2.txt,line.no:263'
p2454
I1
sS'file4.txt,line.no:70'
p2455
I1
sS'file2.txt,line.no:969'
p2456
I5
sS'file4.txt,line.no:72'
p2457
I1
sS'file4.txt,line.no:73'
p2458
I1
sS'file4.txt,line.no:852'
p2459
I10
sS'file4.txt,line.no:78'
p2460
I1
sS'file4.txt,line.no:79'
p2461
I1
sS'file2.txt,line.no:8'
p2462
I2
sS'file2.txt,line.no:9'
p2463
I6
sS'file2.txt,line.no:2'
p2464
I1
sS'file2.txt,line.no:3'
p2465
I1
sS'file2.txt,line.no:1'
p2466
I2
sS'file2.txt,line.no:413'
p2467
I1
sS'file2.txt,line.no:7'
p2468
I3
sS'file2.txt,line.no:4'
p2469
I4
sS'file2.txt,line.no:5'
p2470
I2
sS'file3.txt,line.no:62'
p2471
I16
sS'file1.txt,line.no:88'
p2472
I7
sS'file1.txt,line.no:89'
p2473
I4
sS'file2.txt,line.no:510'
p2474
I1
sS'file1.txt,line.no:87'
p2475
I3
sS'file1.txt,line.no:84'
p2476
I11
sS'file1.txt,line.no:85'
p2477
I5
sS'file1.txt,line.no:82'
p2478
I3
sS'file1.txt,line.no:83'
p2479
I11
sS'file1.txt,line.no:80'
p2480
I8
sS'file1.txt,line.no:81'
p2481
I2
sS'file2.txt,line.no:412'
p2482
I1
sS'file2.txt,line.no:511'
p2483
I1
sS'file4.txt,line.no:873'
p2484
I10
sS'file2.txt,line.no:516'
p2485
I1
sS'file4.txt,line.no:16'
p2486
I1
sS'file2.txt,line.no:517'
p2487
I1
sS'file4.txt,line.no:292'
p2488
I14
s.